

Microchip MPLAB XC8 Assembler V2.10 build 88905656 
                                                                                               Thu Jul 09 14:11:06 2020

Microchip MPLAB XC8 C Compiler v2.10 (Free license) build 20190730164152 Og1 
     1                           	processor	16F877A
     2                           	opt	pw 120
     3                           	opt	flic
     4                           	psect	idataCOMMON,global,class=CODE,delta=2
     5                           	psect	idataBANK0,global,class=CODE,delta=2
     6                           	psect	cinit,global,class=CODE,merge=1,delta=2
     7                           	psect	bssCOMMON,global,class=COMMON,space=1,delta=1
     8                           	psect	dataCOMMON,global,class=COMMON,space=1,delta=1
     9                           	psect	bssBANK0,global,class=BANK0,space=1,delta=1
    10                           	psect	dataBANK0,global,class=BANK0,space=1,delta=1
    11                           	psect	clrtext,global,class=CODE,delta=2
    12                           	psect	cstackCOMMON,global,class=COMMON,space=1,delta=1
    13                           	psect	cstackBANK0,global,class=BANK0,space=1,delta=1
    14                           	psect	maintext,global,class=CODE,split=1,delta=2
    15                           	psect	text1,local,class=CODE,merge=1,delta=2
    16                           	psect	text2,local,class=CODE,merge=1,delta=2
    17                           	psect	text3,local,class=CODE,merge=1,delta=2
    18                           	psect	text4,local,class=CODE,merge=1,delta=2
    19                           	psect	text5,local,class=CODE,merge=1,delta=2
    20                           	psect	text6,local,class=CODE,merge=1,delta=2
    21                           	psect	text7,local,class=CODE,merge=1,delta=2
    22                           	psect	text8,local,class=CODE,merge=1,delta=2
    23                           	psect	text9,local,class=CODE,merge=1,delta=2,group=1
    24                           	psect	text10,local,class=CODE,merge=1,delta=2
    25                           	psect	text11,local,class=CODE,merge=1,delta=2
    26                           	psect	text12,local,class=CODE,merge=1,delta=2,group=1
    27                           	psect	text13,local,class=CODE,merge=1,delta=2
    28                           	psect	text14,local,class=CODE,merge=1,delta=2
    29                           	psect	text15,local,class=CODE,merge=1,delta=2
    30                           	psect	text16,local,class=CODE,merge=1,delta=2
    31                           	psect	text17,local,class=CODE,merge=1,delta=2
    32                           	psect	text18,local,class=CODE,merge=1,delta=2,group=1
    33                           	psect	text19,local,class=CODE,merge=1,delta=2
    34                           	psect	text20,local,class=CODE,merge=1,delta=2
    35                           	psect	text21,local,class=CODE,merge=1,delta=2
    36                           	psect	text22,local,class=CODE,merge=1,delta=2
    37                           	psect	text23,local,class=CODE,merge=1,delta=2
    38                           	psect	text24,local,class=CODE,merge=1,delta=2
    39                           	psect	text25,local,class=CODE,merge=1,delta=2
    40                           	psect	text26,local,class=CODE,merge=1,delta=2
    41                           	psect	text27,local,class=CODE,merge=1,delta=2
    42                           	psect	text28,local,class=CODE,merge=1,delta=2
    43                           	psect	text29,local,class=CODE,merge=1,delta=2
    44                           	psect	text30,local,class=CODE,merge=1,delta=2
    45                           	psect	text31,local,class=CODE,merge=1,delta=2
    46                           	psect	text32,local,class=CODE,merge=1,delta=2
    47                           	psect	text33,local,class=CODE,merge=1,delta=2
    48                           	psect	text34,local,class=CODE,merge=1,delta=2
    49                           	psect	text35,local,class=CODE,merge=1,delta=2
    50                           	psect	text36,local,class=CODE,merge=1,delta=2
    51                           	psect	text37,local,class=CODE,merge=1,delta=2
    52                           	psect	text38,local,class=CODE,merge=1,delta=2
    53                           	psect	text39,local,class=CODE,merge=1,delta=2,group=1
    54                           	psect	text40,local,class=CODE,merge=1,delta=2
    55                           	psect	text41,local,class=CODE,merge=1,delta=2
    56                           	psect	intentry,global,class=CODE,delta=2
    57                           	psect	text42,local,class=CODE,merge=1,delta=2
    58                           	psect	text43,local,class=CODE,merge=1,delta=2
    59                           	psect	functab,global,class=ENTRY,delta=2
    60                           	dabs	1,0x7E,2
    61  0000                     
    62                           ; Version 2.10
    63                           ; Generated 31/07/2019 GMT
    64                           ; 
    65                           ; Copyright © 2019, Microchip Technology Inc. and its subsidiaries ("Microchip")
    66                           ; All rights reserved.
    67                           ; 
    68                           ; This software is developed by Microchip Technology Inc. and its subsidiaries ("Microch
      +                          ip").
    69                           ; 
    70                           ; Redistribution and use in source and binary forms, with or without modification, are
    71                           ; permitted provided that the following conditions are met:
    72                           ; 
    73                           ;     1. Redistributions of source code must retain the above copyright notice, this lis
      +                          t of
    74                           ;        conditions and the following disclaimer.
    75                           ; 
    76                           ;     2. Redistributions in binary form must reproduce the above copyright notice, this 
      +                          list
    77                           ;        of conditions and the following disclaimer in the documentation and/or other
    78                           ;        materials provided with the distribution.
    79                           ; 
    80                           ;     3. Microchip's name may not be used to endorse or promote products derived from th
      +                          is
    81                           ;        software without specific prior written permission.
    82                           ; 
    83                           ; THIS SOFTWARE IS PROVIDED BY MICROCHIP "AS IS" AND ANY EXPRESS OR IMPLIED WARRANTIES,
    84                           ; INCLUDING, BUT NOT LIMITED TO, THE IMPLIED WARRANTIES OF MERCHANTABILITY AND FITNESS F
      +                          OR
    85                           ; PURPOSE ARE DISCLAIMED.  IN NO EVENT SHALL MICROCHIP BE LIABLE FOR ANY DIRECT, INDIREC
      +                          T,
    86                           ; INCIDENTAL, SPECIAL, EXEMPLARY, OR CONSEQUENTIAL DAMAGES (INCLUDING BUT NOT LIMITED TO
    87                           ; PROCUREMENT OF SUBSTITUTE GOODS OR SERVICES; LOSS OF USE, DATA OR PROFITS; OR BUSINESS
    88                           ; INTERRUPTION) HOWSOEVER CAUSED AND ON ANY THEORY OF LIABILITY, WHETHER IN CONTRACT, ST
      +                          RICT
    89                           ; LIABILITY, OR TORT (INCLUDING NEGLIGENCE OR OTHERWISE) ARISING IN ANY WAY OUT OF THE U
      +                          SE OF
    90                           ; THIS SOFTWARE, EVEN IF ADVISED OF THE POSSIBILITY OF SUCH DAMAGE.
    91                           ; 
    92                           ; 
    93                           ; Code-generator required, PIC16F877A Definitions
    94                           ; 
    95                           ; SFR Addresses
    96  0000                     	;# 
    97  0001                     	;# 
    98  0002                     	;# 
    99  0003                     	;# 
   100  0004                     	;# 
   101  0005                     	;# 
   102  0006                     	;# 
   103  0007                     	;# 
   104  0008                     	;# 
   105  0009                     	;# 
   106  000A                     	;# 
   107  000B                     	;# 
   108  000C                     	;# 
   109  000D                     	;# 
   110  000E                     	;# 
   111  000E                     	;# 
   112  000F                     	;# 
   113  0010                     	;# 
   114  0011                     	;# 
   115  0012                     	;# 
   116  0013                     	;# 
   117  0014                     	;# 
   118  0015                     	;# 
   119  0015                     	;# 
   120  0016                     	;# 
   121  0017                     	;# 
   122  0018                     	;# 
   123  0019                     	;# 
   124  001A                     	;# 
   125  001B                     	;# 
   126  001B                     	;# 
   127  001C                     	;# 
   128  001D                     	;# 
   129  001E                     	;# 
   130  001F                     	;# 
   131  0081                     	;# 
   132  0085                     	;# 
   133  0086                     	;# 
   134  0087                     	;# 
   135  0088                     	;# 
   136  0089                     	;# 
   137  008C                     	;# 
   138  008D                     	;# 
   139  008E                     	;# 
   140  0091                     	;# 
   141  0092                     	;# 
   142  0093                     	;# 
   143  0094                     	;# 
   144  0098                     	;# 
   145  0099                     	;# 
   146  009C                     	;# 
   147  009D                     	;# 
   148  009E                     	;# 
   149  009F                     	;# 
   150  010C                     	;# 
   151  010D                     	;# 
   152  010E                     	;# 
   153  010F                     	;# 
   154  018C                     	;# 
   155  018D                     	;# 
   156  0000                     	;# 
   157  0001                     	;# 
   158  0002                     	;# 
   159  0003                     	;# 
   160  0004                     	;# 
   161  0005                     	;# 
   162  0006                     	;# 
   163  0007                     	;# 
   164  0008                     	;# 
   165  0009                     	;# 
   166  000A                     	;# 
   167  000B                     	;# 
   168  000C                     	;# 
   169  000D                     	;# 
   170  000E                     	;# 
   171  000E                     	;# 
   172  000F                     	;# 
   173  0010                     	;# 
   174  0011                     	;# 
   175  0012                     	;# 
   176  0013                     	;# 
   177  0014                     	;# 
   178  0015                     	;# 
   179  0015                     	;# 
   180  0016                     	;# 
   181  0017                     	;# 
   182  0018                     	;# 
   183  0019                     	;# 
   184  001A                     	;# 
   185  001B                     	;# 
   186  001B                     	;# 
   187  001C                     	;# 
   188  001D                     	;# 
   189  001E                     	;# 
   190  001F                     	;# 
   191  0081                     	;# 
   192  0085                     	;# 
   193  0086                     	;# 
   194  0087                     	;# 
   195  0088                     	;# 
   196  0089                     	;# 
   197  008C                     	;# 
   198  008D                     	;# 
   199  008E                     	;# 
   200  0091                     	;# 
   201  0092                     	;# 
   202  0093                     	;# 
   203  0094                     	;# 
   204  0098                     	;# 
   205  0099                     	;# 
   206  009C                     	;# 
   207  009D                     	;# 
   208  009E                     	;# 
   209  009F                     	;# 
   210  010C                     	;# 
   211  010D                     	;# 
   212  010E                     	;# 
   213  010F                     	;# 
   214  018C                     	;# 
   215  018D                     	;# 
   216  0000                     	;# 
   217  0001                     	;# 
   218  0002                     	;# 
   219  0003                     	;# 
   220  0004                     	;# 
   221  0005                     	;# 
   222  0006                     	;# 
   223  0007                     	;# 
   224  0008                     	;# 
   225  0009                     	;# 
   226  000A                     	;# 
   227  000B                     	;# 
   228  000C                     	;# 
   229  000D                     	;# 
   230  000E                     	;# 
   231  000E                     	;# 
   232  000F                     	;# 
   233  0010                     	;# 
   234  0011                     	;# 
   235  0012                     	;# 
   236  0013                     	;# 
   237  0014                     	;# 
   238  0015                     	;# 
   239  0015                     	;# 
   240  0016                     	;# 
   241  0017                     	;# 
   242  0018                     	;# 
   243  0019                     	;# 
   244  001A                     	;# 
   245  001B                     	;# 
   246  001B                     	;# 
   247  001C                     	;# 
   248  001D                     	;# 
   249  001E                     	;# 
   250  001F                     	;# 
   251  0081                     	;# 
   252  0085                     	;# 
   253  0086                     	;# 
   254  0087                     	;# 
   255  0088                     	;# 
   256  0089                     	;# 
   257  008C                     	;# 
   258  008D                     	;# 
   259  008E                     	;# 
   260  0091                     	;# 
   261  0092                     	;# 
   262  0093                     	;# 
   263  0094                     	;# 
   264  0098                     	;# 
   265  0099                     	;# 
   266  009C                     	;# 
   267  009D                     	;# 
   268  009E                     	;# 
   269  009F                     	;# 
   270  010C                     	;# 
   271  010D                     	;# 
   272  010E                     	;# 
   273  010F                     	;# 
   274  018C                     	;# 
   275  018D                     	;# 
   276  0000                     	;# 
   277  0001                     	;# 
   278  0002                     	;# 
   279  0003                     	;# 
   280  0004                     	;# 
   281  0005                     	;# 
   282  0006                     	;# 
   283  0007                     	;# 
   284  0008                     	;# 
   285  0009                     	;# 
   286  000A                     	;# 
   287  000B                     	;# 
   288  000C                     	;# 
   289  000D                     	;# 
   290  000E                     	;# 
   291  000E                     	;# 
   292  000F                     	;# 
   293  0010                     	;# 
   294  0011                     	;# 
   295  0012                     	;# 
   296  0013                     	;# 
   297  0014                     	;# 
   298  0015                     	;# 
   299  0015                     	;# 
   300  0016                     	;# 
   301  0017                     	;# 
   302  0018                     	;# 
   303  0019                     	;# 
   304  001A                     	;# 
   305  001B                     	;# 
   306  001B                     	;# 
   307  001C                     	;# 
   308  001D                     	;# 
   309  001E                     	;# 
   310  001F                     	;# 
   311  0081                     	;# 
   312  0085                     	;# 
   313  0086                     	;# 
   314  0087                     	;# 
   315  0088                     	;# 
   316  0089                     	;# 
   317  008C                     	;# 
   318  008D                     	;# 
   319  008E                     	;# 
   320  0091                     	;# 
   321  0092                     	;# 
   322  0093                     	;# 
   323  0094                     	;# 
   324  0098                     	;# 
   325  0099                     	;# 
   326  009C                     	;# 
   327  009D                     	;# 
   328  009E                     	;# 
   329  009F                     	;# 
   330  010C                     	;# 
   331  010D                     	;# 
   332  010E                     	;# 
   333  010F                     	;# 
   334  018C                     	;# 
   335  018D                     	;# 
   336  0000                     	;# 
   337  0001                     	;# 
   338  0002                     	;# 
   339  0003                     	;# 
   340  0004                     	;# 
   341  0005                     	;# 
   342  0006                     	;# 
   343  0007                     	;# 
   344  0008                     	;# 
   345  0009                     	;# 
   346  000A                     	;# 
   347  000B                     	;# 
   348  000C                     	;# 
   349  000D                     	;# 
   350  000E                     	;# 
   351  000E                     	;# 
   352  000F                     	;# 
   353  0010                     	;# 
   354  0011                     	;# 
   355  0012                     	;# 
   356  0013                     	;# 
   357  0014                     	;# 
   358  0015                     	;# 
   359  0015                     	;# 
   360  0016                     	;# 
   361  0017                     	;# 
   362  0018                     	;# 
   363  0019                     	;# 
   364  001A                     	;# 
   365  001B                     	;# 
   366  001B                     	;# 
   367  001C                     	;# 
   368  001D                     	;# 
   369  001E                     	;# 
   370  001F                     	;# 
   371  0081                     	;# 
   372  0085                     	;# 
   373  0086                     	;# 
   374  0087                     	;# 
   375  0088                     	;# 
   376  0089                     	;# 
   377  008C                     	;# 
   378  008D                     	;# 
   379  008E                     	;# 
   380  0091                     	;# 
   381  0092                     	;# 
   382  0093                     	;# 
   383  0094                     	;# 
   384  0098                     	;# 
   385  0099                     	;# 
   386  009C                     	;# 
   387  009D                     	;# 
   388  009E                     	;# 
   389  009F                     	;# 
   390  010C                     	;# 
   391  010D                     	;# 
   392  010E                     	;# 
   393  010F                     	;# 
   394  018C                     	;# 
   395  018D                     	;# 
   396  0000                     	;# 
   397  0001                     	;# 
   398  0002                     	;# 
   399  0003                     	;# 
   400  0004                     	;# 
   401  0005                     	;# 
   402  0006                     	;# 
   403  0007                     	;# 
   404  0008                     	;# 
   405  0009                     	;# 
   406  000A                     	;# 
   407  000B                     	;# 
   408  000C                     	;# 
   409  000D                     	;# 
   410  000E                     	;# 
   411  000E                     	;# 
   412  000F                     	;# 
   413  0010                     	;# 
   414  0011                     	;# 
   415  0012                     	;# 
   416  0013                     	;# 
   417  0014                     	;# 
   418  0015                     	;# 
   419  0015                     	;# 
   420  0016                     	;# 
   421  0017                     	;# 
   422  0018                     	;# 
   423  0019                     	;# 
   424  001A                     	;# 
   425  001B                     	;# 
   426  001B                     	;# 
   427  001C                     	;# 
   428  001D                     	;# 
   429  001E                     	;# 
   430  001F                     	;# 
   431  0081                     	;# 
   432  0085                     	;# 
   433  0086                     	;# 
   434  0087                     	;# 
   435  0088                     	;# 
   436  0089                     	;# 
   437  008C                     	;# 
   438  008D                     	;# 
   439  008E                     	;# 
   440  0091                     	;# 
   441  0092                     	;# 
   442  0093                     	;# 
   443  0094                     	;# 
   444  0098                     	;# 
   445  0099                     	;# 
   446  009C                     	;# 
   447  009D                     	;# 
   448  009E                     	;# 
   449  009F                     	;# 
   450  010C                     	;# 
   451  010D                     	;# 
   452  010E                     	;# 
   453  010F                     	;# 
   454  018C                     	;# 
   455  018D                     	;# 
   456  0000                     	;# 
   457  0001                     	;# 
   458  0002                     	;# 
   459  0003                     	;# 
   460  0004                     	;# 
   461  0005                     	;# 
   462  0006                     	;# 
   463  0007                     	;# 
   464  0008                     	;# 
   465  0009                     	;# 
   466  000A                     	;# 
   467  000B                     	;# 
   468  000C                     	;# 
   469  000D                     	;# 
   470  000E                     	;# 
   471  000E                     	;# 
   472  000F                     	;# 
   473  0010                     	;# 
   474  0011                     	;# 
   475  0012                     	;# 
   476  0013                     	;# 
   477  0014                     	;# 
   478  0015                     	;# 
   479  0015                     	;# 
   480  0016                     	;# 
   481  0017                     	;# 
   482  0018                     	;# 
   483  0019                     	;# 
   484  001A                     	;# 
   485  001B                     	;# 
   486  001B                     	;# 
   487  001C                     	;# 
   488  001D                     	;# 
   489  001E                     	;# 
   490  001F                     	;# 
   491  0081                     	;# 
   492  0085                     	;# 
   493  0086                     	;# 
   494  0087                     	;# 
   495  0088                     	;# 
   496  0089                     	;# 
   497  008C                     	;# 
   498  008D                     	;# 
   499  008E                     	;# 
   500  0091                     	;# 
   501  0092                     	;# 
   502  0093                     	;# 
   503  0094                     	;# 
   504  0098                     	;# 
   505  0099                     	;# 
   506  009C                     	;# 
   507  009D                     	;# 
   508  009E                     	;# 
   509  009F                     	;# 
   510  010C                     	;# 
   511  010D                     	;# 
   512  010E                     	;# 
   513  010F                     	;# 
   514  018C                     	;# 
   515  018D                     	;# 
   516  0000                     	;# 
   517  0001                     	;# 
   518  0002                     	;# 
   519  0003                     	;# 
   520  0004                     	;# 
   521  0005                     	;# 
   522  0006                     	;# 
   523  0007                     	;# 
   524  0008                     	;# 
   525  0009                     	;# 
   526  000A                     	;# 
   527  000B                     	;# 
   528  000C                     	;# 
   529  000D                     	;# 
   530  000E                     	;# 
   531  000E                     	;# 
   532  000F                     	;# 
   533  0010                     	;# 
   534  0011                     	;# 
   535  0012                     	;# 
   536  0013                     	;# 
   537  0014                     	;# 
   538  0015                     	;# 
   539  0015                     	;# 
   540  0016                     	;# 
   541  0017                     	;# 
   542  0018                     	;# 
   543  0019                     	;# 
   544  001A                     	;# 
   545  001B                     	;# 
   546  001B                     	;# 
   547  001C                     	;# 
   548  001D                     	;# 
   549  001E                     	;# 
   550  001F                     	;# 
   551  0081                     	;# 
   552  0085                     	;# 
   553  0086                     	;# 
   554  0087                     	;# 
   555  0088                     	;# 
   556  0089                     	;# 
   557  008C                     	;# 
   558  008D                     	;# 
   559  008E                     	;# 
   560  0091                     	;# 
   561  0092                     	;# 
   562  0093                     	;# 
   563  0094                     	;# 
   564  0098                     	;# 
   565  0099                     	;# 
   566  009C                     	;# 
   567  009D                     	;# 
   568  009E                     	;# 
   569  009F                     	;# 
   570  010C                     	;# 
   571  010D                     	;# 
   572  010E                     	;# 
   573  010F                     	;# 
   574  018C                     	;# 
   575  018D                     	;# 
   576  0000                     	;# 
   577  0001                     	;# 
   578  0002                     	;# 
   579  0003                     	;# 
   580  0004                     	;# 
   581  0005                     	;# 
   582  0006                     	;# 
   583  0007                     	;# 
   584  0008                     	;# 
   585  0009                     	;# 
   586  000A                     	;# 
   587  000B                     	;# 
   588  000C                     	;# 
   589  000D                     	;# 
   590  000E                     	;# 
   591  000E                     	;# 
   592  000F                     	;# 
   593  0010                     	;# 
   594  0011                     	;# 
   595  0012                     	;# 
   596  0013                     	;# 
   597  0014                     	;# 
   598  0015                     	;# 
   599  0015                     	;# 
   600  0016                     	;# 
   601  0017                     	;# 
   602  0018                     	;# 
   603  0019                     	;# 
   604  001A                     	;# 
   605  001B                     	;# 
   606  001B                     	;# 
   607  001C                     	;# 
   608  001D                     	;# 
   609  001E                     	;# 
   610  001F                     	;# 
   611  0081                     	;# 
   612  0085                     	;# 
   613  0086                     	;# 
   614  0087                     	;# 
   615  0088                     	;# 
   616  0089                     	;# 
   617  008C                     	;# 
   618  008D                     	;# 
   619  008E                     	;# 
   620  0091                     	;# 
   621  0092                     	;# 
   622  0093                     	;# 
   623  0094                     	;# 
   624  0098                     	;# 
   625  0099                     	;# 
   626  009C                     	;# 
   627  009D                     	;# 
   628  009E                     	;# 
   629  009F                     	;# 
   630  010C                     	;# 
   631  010D                     	;# 
   632  010E                     	;# 
   633  010F                     	;# 
   634  018C                     	;# 
   635  018D                     	;# 
   636  0000                     	;# 
   637  0001                     	;# 
   638  0002                     	;# 
   639  0003                     	;# 
   640  0004                     	;# 
   641  0005                     	;# 
   642  0006                     	;# 
   643  0007                     	;# 
   644  0008                     	;# 
   645  0009                     	;# 
   646  000A                     	;# 
   647  000B                     	;# 
   648  000C                     	;# 
   649  000D                     	;# 
   650  000E                     	;# 
   651  000E                     	;# 
   652  000F                     	;# 
   653  0010                     	;# 
   654  0011                     	;# 
   655  0012                     	;# 
   656  0013                     	;# 
   657  0014                     	;# 
   658  0015                     	;# 
   659  0015                     	;# 
   660  0016                     	;# 
   661  0017                     	;# 
   662  0018                     	;# 
   663  0019                     	;# 
   664  001A                     	;# 
   665  001B                     	;# 
   666  001B                     	;# 
   667  001C                     	;# 
   668  001D                     	;# 
   669  001E                     	;# 
   670  001F                     	;# 
   671  0081                     	;# 
   672  0085                     	;# 
   673  0086                     	;# 
   674  0087                     	;# 
   675  0088                     	;# 
   676  0089                     	;# 
   677  008C                     	;# 
   678  008D                     	;# 
   679  008E                     	;# 
   680  0091                     	;# 
   681  0092                     	;# 
   682  0093                     	;# 
   683  0094                     	;# 
   684  0098                     	;# 
   685  0099                     	;# 
   686  009C                     	;# 
   687  009D                     	;# 
   688  009E                     	;# 
   689  009F                     	;# 
   690  010C                     	;# 
   691  010D                     	;# 
   692  010E                     	;# 
   693  010F                     	;# 
   694  018C                     	;# 
   695  018D                     	;# 
   696                           
   697                           	psect	idataCOMMON
   698  0003                     __pidataCOMMON:	
   699                           
   700                           ;initializer for _displayFlag
   701  0003  34FF               	retlw	255
   702                           
   703                           	psect	idataBANK0
   704  0C4C                     __pidataBANK0:	
   705                           
   706                           ;initializer for _ssdState
   707  0C4C  3401               	retlw	1
   708                           
   709                           ;initializer for _counter
   710  0C4D  343C               	retlw	60
   711  000C                     _PIR1	set	12
   712  0013                     _SSPBUF	set	19
   713  0009                     _PORTE	set	9
   714  0008                     _PORTD	set	8
   715  0007                     _PORTC	set	7
   716  0006                     _PORTB	set	6
   717  0005                     _PORTA	set	5
   718  005D                     _TMR0IE	set	93
   719  005F                     _GIE	set	95
   720  005E                     _PEIE	set	94
   721  0061                     _TMR2IF	set	97
   722  0060                     _TMR1IF	set	96
   723  005A                     _TMR0IF	set	90
   724  0063                     _SSPIF	set	99
   725  00A0                     _SSPM0	set	160
   726  00A1                     _SSPM1	set	161
   727  00A2                     _SSPM2	set	162
   728  00A3                     _SSPM3	set	163
   729  00A5                     _SSPEN	set	165
   730  0093                     _SSPADD	set	147
   731  0094                     _SSPSTAT	set	148
   732  0091                     _SSPCON2	set	145
   733  0089                     _TRISE	set	137
   734  0088                     _TRISD	set	136
   735  0087                     _TRISC	set	135
   736  0086                     _TRISB	set	134
   737  0085                     _TRISA	set	133
   738  040A                     _PS2	set	1034
   739  0409                     _PS1	set	1033
   740  0408                     _PS0	set	1032
   741  040B                     _PSA	set	1035
   742  040D                     _T0CS	set	1037
   743  048B                     _RCEN	set	1163
   744  048E                     _ACKSTAT	set	1166
   745  048C                     _ACKEN	set	1164
   746  048D                     _ACKDT	set	1165
   747  0489                     _RSEN	set	1161
   748  048A                     _PEN	set	1162
   749  0488                     _SEN	set	1160
   750                           
   751                           ; #config settings
   752  0000                     
   753                           	psect	cinit
   754  0015                     start_initialization:	
   755  0015                     __initialization:	
   756                           
   757                           ; Initialize objects allocated to BANK0
   758  0015  120A  158A  244C  120A  118A  	fcall	__pidataBANK0	;fetch initializer
   759  001A  00E5               	movwf	__pdataBANK0& (0+127)
   760  001B  120A  158A  244D  120A  118A  	fcall	__pidataBANK0+1	;fetch initializer
   761  0020  00E6               	movwf	(__pdataBANK0+1)& (0+127)
   762                           
   763                           ; Initialize objects allocated to COMMON
   764  0021  120A  118A  2003  120A  118A  	fcall	__pidataCOMMON	;fetch initializer
   765  0026  00FD               	movwf	__pdataCOMMON& (0+127)
   766                           
   767                           ; Clear objects allocated to BANK0
   768  0027  1383               	bcf	3,7	;select IRP bank0
   769  0028  3020               	movlw	low __pbssBANK0
   770  0029  0084               	movwf	4
   771  002A  304E               	movlw	low (__pbssBANK0+46)
   772  002B  120A  158A  2466  120A  118A  	fcall	clear_ram0
   773                           
   774                           ; Clear objects allocated to COMMON
   775  0030  01FB               	clrf	__pbssCOMMON& (0+127)
   776  0031  01FC               	clrf	(__pbssCOMMON+1)& (0+127)
   777  0032                     end_of_initialization:	
   778                           ;End of C runtime variable initialization code
   779                           
   780  0032                     __end_of__initialization:	
   781  0032  0183               	clrf	3
   782  0033  120A  118A  2E4E   	ljmp	_main	;jump to C main() function
   783                           
   784                           	psect	bssCOMMON
   785  007B                     __pbssCOMMON:	
   786  007B                     _timer1_isr:	
   787  007B                     	ds	1
   788  007C                     _timer0_isr:	
   789  007C                     	ds	1
   790                           
   791                           	psect	dataCOMMON
   792  007D                     __pdataCOMMON:	
   793  007D                     _displayFlag:	
   794  007D                     	ds	1
   795                           
   796                           	psect	bssBANK0
   797  0020                     __pbssBANK0:	
   798  0020                     _sch_tasks:	
   799  0020                     	ds	39
   800  0047                     _ssdSymbol:	
   801  0047                     	ds	2
   802  0049                     _settingModeCounter:	
   803  0049                     	ds	2
   804  004B                     _timer2_isr:	
   805  004B                     	ds	1
   806  004C                     _settingModeFlag:	
   807  004C                     	ds	1
   808  004D                     _buttonPressedFlag:	
   809  004D                     	ds	1
   810                           
   811                           	psect	dataBANK0
   812  0065                     __pdataBANK0:	
   813  0065                     _ssdState:	
   814  0065                     	ds	1
   815  0066                     _counter:	
   816  0066                     	ds	1
   817                           
   818                           	psect	clrtext
   819  0C66                     clear_ram0:	
   820                           ;	Called with FSR containing the base address, and
   821                           ;	W with the last address+1
   822                           
   823  0C66  0064               	clrwdt	;clear the watchdog before getting into this loop
   824  0C67                     clrloop0:	
   825  0C67  0180               	clrf	0	;clear RAM location pointed to by FSR
   826  0C68  0A84               	incf	4,f	;increment pointer
   827  0C69  0604               	xorwf	4,w	;XOR with final address
   828  0C6A  1903               	btfsc	3,2	;have we reached the end yet?
   829  0C6B  3400               	retlw	0	;all done for this memory range, return
   830  0C6C  0604               	xorwf	4,w	;XOR again to restore value
   831  0C6D  2C67               	goto	clrloop0	;do the next byte
   832                           
   833                           	psect	cstackCOMMON
   834  0070                     __pcstackCOMMON:	
   835  0070                     ?_eeprom_external_vid_read:	
   836  0070                     ?_display_set_setting_mode:	
   837                           ; 1 bytes @ 0x0
   838                           
   839  0070                     ?_ssd_vid_set_symbol:	
   840                           ; 1 bytes @ 0x0
   841                           
   842  0070                     ?_ssd_vid_set_state:	
   843                           ; 1 bytes @ 0x0
   844                           
   845  0070                     ?_ssd_vid_init:	
   846                           ; 1 bytes @ 0x0
   847                           
   848  0070                     ?_ssd_u8_get_state:	
   849                           ; 1 bytes @ 0x0
   850                           
   851  0070                     ?_i2c_vid_start:	
   852                           ; 1 bytes @ 0x0
   853                           
   854  0070                     ?_i2c_vid_restart:	
   855                           ; 1 bytes @ 0x0
   856                           
   857  0070                     ?_i2c_u8_master_write_slave_address_with_write_req:	
   858                           ; 1 bytes @ 0x0
   859                           
   860  0070                     ?_i2c_u8_master_write_byte:	
   861                           ; 1 bytes @ 0x0
   862                           
   863  0070                     ?_i2c_vid_stop:	
   864                           ; 1 bytes @ 0x0
   865                           
   866  0070                     ?_i2c_u8_master_write_slave_address_with_read_req:	
   867                           ; 1 bytes @ 0x0
   868                           
   869  0070                     ?_i2c_u8_master_read_byte:	
   870                           ; 1 bytes @ 0x0
   871                           
   872  0070                     ?_i2c_vid_nack:	
   873                           ; 1 bytes @ 0x0
   874                           
   875  0070                     ?_i2c_vid_wait:	
   876                           ; 1 bytes @ 0x0
   877                           
   878  0070                     ?_sch_vid_init:	
   879                           ; 1 bytes @ 0x0
   880                           
   881  0070                     ?_ssd_vid_update:	
   882                           ; 1 bytes @ 0x0
   883                           
   884  0070                     ?_sch_vid_dispatch_tasks:	
   885                           ; 1 bytes @ 0x0
   886                           
   887  0070                     ?_sch_vid_delete_task:	
   888                           ; 1 bytes @ 0x0
   889                           
   890  0070                     ?_timer_vid_set_isr_0:	
   891                           ; 1 bytes @ 0x0
   892                           
   893  0070                     ?_sch_update:	
   894                           ; 1 bytes @ 0x0
   895                           
   896  0070                     ?_ssd_u8_get_code:	
   897                           ; 1 bytes @ 0x0
   898                           
   899  0070                     ?_counter_vid_init:	
   900                           ; 1 bytes @ 0x0
   901                           
   902  0070                     ?_counter_vid_update:	
   903                           ; 1 bytes @ 0x0
   904                           
   905  0070                     ?_counter_u8_get_counter:	
   906                           ; 1 bytes @ 0x0
   907                           
   908  0070                     ?_dio_u8_read_port_value:	
   909                           ; 1 bytes @ 0x0
   910                           
   911  0070                     ?_display_init:	
   912                           ; 1 bytes @ 0x0
   913                           
   914  0070                     ?_display_vid_update:	
   915                           ; 1 bytes @ 0x0
   916                           
   917  0070                     ?_i2c_vid_master_init:	
   918                           ; 1 bytes @ 0x0
   919                           
   920  0070                     ?_timer_isr:	
   921                           ; 1 bytes @ 0x0
   922                           
   923  0070                     ?i1___bmul:	
   924                           ; 1 bytes @ 0x0
   925                           
   926  0070                     ?_main:	
   927                           ; 1 bytes @ 0x0
   928                           
   929  0070                     i1___bmul@multiplicand:	
   930                           ; 2 bytes @ 0x0
   931                           
   932                           
   933                           ; 1 bytes @ 0x0
   934  0070                     	ds	1
   935  0071                     ??i1___bmul:	
   936                           
   937                           ; 1 bytes @ 0x1
   938  0071                     	ds	1
   939  0072                     i1___bmul@multiplier:	
   940                           
   941                           ; 1 bytes @ 0x2
   942  0072                     	ds	1
   943  0073                     i1___bmul@product:	
   944                           
   945                           ; 1 bytes @ 0x3
   946  0073                     	ds	1
   947  0074                     ??_sch_update:	
   948                           
   949                           ; 1 bytes @ 0x4
   950  0074                     	ds	6
   951  007A                     sch_update@index:	
   952                           
   953                           ; 1 bytes @ 0xA
   954  007A                     	ds	1
   955                           
   956                           	psect	cstackBANK0
   957  004E                     __pcstackBANK0:	
   958  004E                     ??_timer_isr:	
   959                           
   960                           ; 1 bytes @ 0x0
   961  004E                     	ds	6
   962  0054                     ?_dio_vid_set_pin_direction:	
   963  0054                     ??_display_set_setting_mode:	
   964                           ; 1 bytes @ 0x6
   965                           
   966  0054                     ??_ssd_vid_set_symbol:	
   967                           ; 1 bytes @ 0x6
   968                           
   969  0054                     ??_ssd_vid_set_state:	
   970                           ; 1 bytes @ 0x6
   971                           
   972  0054                     ??_ssd_u8_get_state:	
   973                           ; 1 bytes @ 0x6
   974                           
   975  0054                     ??_i2c_vid_start:	
   976                           ; 1 bytes @ 0x6
   977                           
   978  0054                     ??_i2c_vid_restart:	
   979                           ; 1 bytes @ 0x6
   980                           
   981  0054                     ??_i2c_u8_master_write_slave_address_with_write_req:	
   982                           ; 1 bytes @ 0x6
   983                           
   984  0054                     ??_i2c_u8_master_write_byte:	
   985                           ; 1 bytes @ 0x6
   986                           
   987  0054                     ??_i2c_vid_stop:	
   988                           ; 1 bytes @ 0x6
   989                           
   990  0054                     ??_i2c_u8_master_write_slave_address_with_read_req:	
   991                           ; 1 bytes @ 0x6
   992                           
   993  0054                     ??_i2c_u8_master_read_byte:	
   994                           ; 1 bytes @ 0x6
   995                           
   996  0054                     ??_i2c_vid_nack:	
   997                           ; 1 bytes @ 0x6
   998                           
   999  0054                     ??_i2c_vid_wait:	
  1000                           ; 1 bytes @ 0x6
  1001                           
  1002  0054                     ??_timer_vid_set_isr_0:	
  1003                           ; 1 bytes @ 0x6
  1004                           
  1005  0054                     ?_timer_vid_init_0:	
  1006                           ; 1 bytes @ 0x6
  1007                           
  1008  0054                     ??_ssd_u8_get_code:	
  1009                           ; 1 bytes @ 0x6
  1010                           
  1011  0054                     ??_counter_u8_get_counter:	
  1012                           ; 1 bytes @ 0x6
  1013                           
  1014  0054                     ?_dio_vid_set_port_direction:	
  1015                           ; 1 bytes @ 0x6
  1016                           
  1017  0054                     ??_dio_u8_read_port_value:	
  1018                           ; 1 bytes @ 0x6
  1019                           
  1020  0054                     ?_dio_vid_set_pin_value:	
  1021                           ; 1 bytes @ 0x6
  1022                           
  1023  0054                     ?___bmul:	
  1024                           ; 1 bytes @ 0x6
  1025                           
  1026  0054                     ?___awmod:	
  1027                           ; 1 bytes @ 0x6
  1028                           
  1029  0054                     ?___lwdiv:	
  1030                           ; 2 bytes @ 0x6
  1031                           
  1032  0054                     ?___lwmod:	
  1033                           ; 2 bytes @ 0x6
  1034                           
  1035  0054                     dio_vid_set_port_direction@direction:	
  1036                           ; 2 bytes @ 0x6
  1037                           
  1038  0054                     dio_vid_set_pin_value@index:	
  1039                           ; 1 bytes @ 0x6
  1040                           
  1041  0054                     dio_vid_set_pin_direction@index:	
  1042                           ; 1 bytes @ 0x6
  1043                           
  1044  0054                     i2c_u8_master_write_slave_address_with_read_req@address:	
  1045                           ; 1 bytes @ 0x6
  1046                           
  1047  0054                     i2c_u8_master_write_byte@data:	
  1048                           ; 1 bytes @ 0x6
  1049                           
  1050  0054                     ___bmul@multiplicand:	
  1051                           ; 1 bytes @ 0x6
  1052                           
  1053  0054                     timer_vid_init_0@prescaler:	
  1054                           ; 1 bytes @ 0x6
  1055                           
  1056  0054                     ___awmod@divisor:	
  1057                           ; 2 bytes @ 0x6
  1058                           
  1059  0054                     ___lwdiv@divisor:	
  1060                           ; 2 bytes @ 0x6
  1061                           
  1062  0054                     ___lwmod@divisor:	
  1063                           ; 2 bytes @ 0x6
  1064                           
  1065                           
  1066                           ; 2 bytes @ 0x6
  1067  0054                     	ds	1
  1068  0055                     ??_dio_vid_set_port_direction:	
  1069  0055                     ??___bmul:	
  1070                           ; 1 bytes @ 0x7
  1071                           
  1072  0055                     dio_vid_set_pin_value@value:	
  1073                           ; 1 bytes @ 0x7
  1074                           
  1075  0055                     dio_vid_set_pin_direction@direction:	
  1076                           ; 1 bytes @ 0x7
  1077                           
  1078  0055                     display_set_setting_mode@mode:	
  1079                           ; 1 bytes @ 0x7
  1080                           
  1081  0055                     i2c_u8_master_write_slave_address_with_write_req@address:	
  1082                           ; 1 bytes @ 0x7
  1083                           
  1084  0055                     ssd_vid_set_state@state:	
  1085                           ; 1 bytes @ 0x7
  1086                           
  1087  0055                     timer_vid_set_isr_0@callback_function:	
  1088                           ; 1 bytes @ 0x7
  1089                           
  1090                           
  1091                           ; 1 bytes @ 0x7
  1092  0055                     	ds	1
  1093  0056                     ??_dio_vid_set_pin_direction:	
  1094  0056                     ??_eeprom_external_vid_read:	
  1095                           ; 1 bytes @ 0x8
  1096                           
  1097  0056                     ?_eeprom_external_vid_write:	
  1098                           ; 1 bytes @ 0x8
  1099                           
  1100  0056                     ??_dio_vid_set_pin_value:	
  1101                           ; 1 bytes @ 0x8
  1102                           
  1103  0056                     dio_u8_read_port_value@portNumber:	
  1104                           ; 1 bytes @ 0x8
  1105                           
  1106  0056                     eeprom_external_vid_write@data:	
  1107                           ; 1 bytes @ 0x8
  1108                           
  1109  0056                     ssd_vid_set_symbol@symbol:	
  1110                           ; 1 bytes @ 0x8
  1111                           
  1112  0056                     ssd_u8_get_code@number:	
  1113                           ; 1 bytes @ 0x8
  1114                           
  1115  0056                     timer_vid_init_0@interruptEnable:	
  1116                           ; 1 bytes @ 0x8
  1117                           
  1118  0056                     ___bmul@product:	
  1119                           ; 1 bytes @ 0x8
  1120                           
  1121  0056                     ___awmod@dividend:	
  1122                           ; 1 bytes @ 0x8
  1123                           
  1124  0056                     ___lwdiv@dividend:	
  1125                           ; 2 bytes @ 0x8
  1126                           
  1127  0056                     ___lwmod@dividend:	
  1128                           ; 2 bytes @ 0x8
  1129                           
  1130                           
  1131                           ; 2 bytes @ 0x8
  1132  0056                     	ds	1
  1133  0057                     ?_dio_u8_read_pin_value:	
  1134  0057                     ??_eeprom_external_vid_write:	
  1135                           ; 1 bytes @ 0x9
  1136                           
  1137  0057                     ??_timer_vid_init_0:	
  1138                           ; 1 bytes @ 0x9
  1139                           
  1140  0057                     ?_dio_vid_set_port_value:	
  1141                           ; 1 bytes @ 0x9
  1142                           
  1143  0057                     dio_vid_set_port_direction@portNumber:	
  1144                           ; 1 bytes @ 0x9
  1145                           
  1146  0057                     dio_vid_set_port_value@value:	
  1147                           ; 1 bytes @ 0x9
  1148                           
  1149  0057                     dio_u8_read_pin_value@index:	
  1150                           ; 1 bytes @ 0x9
  1151                           
  1152  0057                     eeprom_external_vid_write@address:	
  1153                           ; 1 bytes @ 0x9
  1154                           
  1155  0057                     eeprom_external_vid_read@address:	
  1156                           ; 1 bytes @ 0x9
  1157                           
  1158  0057                     ___bmul@multiplier:	
  1159                           ; 1 bytes @ 0x9
  1160                           
  1161                           
  1162                           ; 1 bytes @ 0x9
  1163  0057                     	ds	1
  1164  0058                     ??_dio_u8_read_pin_value:	
  1165  0058                     ?_sch_u8_add_task:	
  1166                           ; 1 bytes @ 0xA
  1167                           
  1168  0058                     ??_sch_vid_delete_task:	
  1169                           ; 1 bytes @ 0xA
  1170                           
  1171  0058                     ??_dio_vid_set_port_value:	
  1172                           ; 1 bytes @ 0xA
  1173                           
  1174  0058                     ??___awmod:	
  1175                           ; 1 bytes @ 0xA
  1176                           
  1177  0058                     ??___lwdiv:	
  1178                           ; 1 bytes @ 0xA
  1179                           
  1180  0058                     ??___lwmod:	
  1181                           ; 1 bytes @ 0xA
  1182                           
  1183  0058                     dio_vid_set_pin_value@portNumber:	
  1184                           ; 1 bytes @ 0xA
  1185                           
  1186  0058                     dio_vid_set_pin_direction@portNumber:	
  1187                           ; 1 bytes @ 0xA
  1188                           
  1189  0058                     eeprom_external_vid_read@data:	
  1190                           ; 1 bytes @ 0xA
  1191                           
  1192  0058                     sch_u8_add_task@delay:	
  1193                           ; 1 bytes @ 0xA
  1194                           
  1195                           
  1196                           ; 4 bytes @ 0xA
  1197  0058                     	ds	1
  1198  0059                     ??_ssd_vid_init:	
  1199  0059                     ??_i2c_vid_master_init:	
  1200                           ; 1 bytes @ 0xB
  1201                           
  1202  0059                     dio_u8_read_pin_value@portNumber:	
  1203                           ; 1 bytes @ 0xB
  1204                           
  1205  0059                     sch_vid_delete_task@index:	
  1206                           ; 1 bytes @ 0xB
  1207                           
  1208  0059                     ___awmod@counter:	
  1209                           ; 1 bytes @ 0xB
  1210                           
  1211  0059                     ___lwmod@counter:	
  1212                           ; 1 bytes @ 0xB
  1213                           
  1214  0059                     ___lwdiv@quotient:	
  1215                           ; 1 bytes @ 0xB
  1216                           
  1217                           
  1218                           ; 2 bytes @ 0xB
  1219  0059                     	ds	1
  1220  005A                     ??_sch_vid_init:	
  1221  005A                     ??_display_vid_update:	
  1222                           ; 1 bytes @ 0xC
  1223                           
  1224  005A                     dio_vid_set_port_value@portNumber:	
  1225                           ; 1 bytes @ 0xC
  1226                           
  1227  005A                     dio_u8_read_pin_value@port:	
  1228                           ; 1 bytes @ 0xC
  1229                           
  1230  005A                     ___awmod@sign:	
  1231                           ; 1 bytes @ 0xC
  1232                           
  1233                           
  1234                           ; 1 bytes @ 0xC
  1235  005A                     	ds	1
  1236  005B                     ??_counter_vid_init:	
  1237  005B                     ??_counter_vid_update:	
  1238                           ; 1 bytes @ 0xD
  1239                           
  1240  005B                     sch_vid_init@i:	
  1241                           ; 1 bytes @ 0xD
  1242                           
  1243  005B                     ___lwdiv@counter:	
  1244                           ; 1 bytes @ 0xD
  1245                           
  1246                           
  1247                           ; 1 bytes @ 0xD
  1248  005B                     	ds	1
  1249  005C                     ??_ssd_vid_update:	
  1250  005C                     sch_u8_add_task@period:	
  1251                           ; 1 bytes @ 0xE
  1252                           
  1253                           
  1254                           ; 4 bytes @ 0xE
  1255  005C                     	ds	1
  1256  005D                     ??_display_init:	
  1257  005D                     ssd_vid_update@ones:	
  1258                           ; 1 bytes @ 0xF
  1259                           
  1260                           
  1261                           ; 1 bytes @ 0xF
  1262  005D                     	ds	1
  1263  005E                     ssd_vid_update@tens:	
  1264                           
  1265                           ; 1 bytes @ 0x10
  1266  005E                     	ds	1
  1267  005F                     ??_sch_vid_dispatch_tasks:	
  1268                           
  1269                           ; 1 bytes @ 0x11
  1270  005F                     	ds	1
  1271  0060                     ??_sch_u8_add_task:	
  1272                           
  1273                           ; 1 bytes @ 0x12
  1274  0060                     	ds	2
  1275  0062                     sch_u8_add_task@taskFunction:	
  1276                           
  1277                           ; 1 bytes @ 0x14
  1278  0062                     	ds	1
  1279  0063                     sch_u8_add_task@index:	
  1280                           
  1281                           ; 1 bytes @ 0x15
  1282  0063                     	ds	1
  1283  0064                     sch_vid_dispatch_tasks@index:	
  1284                           
  1285                           ; 1 bytes @ 0x16
  1286  0064                     	ds	1
  1287  0065                     ??_main:	
  1288                           
  1289                           	psect	maintext
  1290  064E                     __pmaintext:	
  1291                           ; 1 bytes @ 0x17
  1292 ;;
  1293 ;;Main: autosize = 0, tempsize = 0, incstack = 0, save=0
  1294 ;;
  1295 ;; *************** function _main *****************
  1296 ;; Defined at:
  1297 ;;		line 23 in file "main.c"
  1298 ;; Parameters:    Size  Location     Type
  1299 ;;		None
  1300 ;; Auto vars:     Size  Location     Type
  1301 ;;		None
  1302 ;; Return value:  Size  Location     Type
  1303 ;;                  2  314[None  ] int 
  1304 ;; Registers used:
  1305 ;;		wreg, fsr0l, fsr0h, status,2, status,0, btemp+1, pclath, cstack
  1306 ;; Tracked objects:
  1307 ;;		On entry : B00/0
  1308 ;;		On exit  : 0/0
  1309 ;;		Unchanged: 0/0
  1310 ;; Data sizes:     COMMON   BANK0   BANK1   BANK3   BANK2
  1311 ;;      Params:         0       0       0       0       0
  1312 ;;      Locals:         0       0       0       0       0
  1313 ;;      Temps:          0       0       0       0       0
  1314 ;;      Totals:         0       0       0       0       0
  1315 ;;Total ram usage:        0 bytes
  1316 ;; Hardware stack levels required when called:    8
  1317 ;; This function calls:
  1318 ;;		_display_init
  1319 ;;		_i2c_vid_master_init
  1320 ;;		_sch_u8_add_task
  1321 ;;		_sch_vid_dispatch_tasks
  1322 ;;		_sch_vid_init
  1323 ;; This function is called by:
  1324 ;;		Startup code after reset
  1325 ;; This function uses a non-reentrant model
  1326 ;;
  1327                           
  1328                           
  1329                           ;psect for function _main
  1330  064E                     _main:	
  1331  064E                     l2562:	
  1332                           ;incstack = 0
  1333                           ; Regs used in _main: [wreg-fsr0h+status,2+status,0+btemp+1+pclath+cstack]
  1334                           
  1335                           
  1336                           ;main.c: 24:     i2c_vid_master_init();
  1337  064E  120A  158A  25C8  120A  118A  	fcall	_i2c_vid_master_init
  1338                           
  1339                           ;main.c: 25:     display_init();
  1340  0653  120A  158A  27A7  120A  118A  	fcall	_display_init
  1341                           
  1342                           ;main.c: 26:     sch_vid_init();
  1343  0658  120A  158A  259F  120A  118A  	fcall	_sch_vid_init
  1344                           
  1345                           ;main.c: 27:     sch_u8_add_task(counter_vid_update, 20, 20);
  1346  065D  3000               	movlw	0
  1347  065E  1283               	bcf	3,5	;RP0=0, select bank0
  1348  065F  1303               	bcf	3,6	;RP1=0, select bank0
  1349  0660  00DB               	movwf	sch_u8_add_task@delay+3
  1350  0661  3000               	movlw	0
  1351  0662  00DA               	movwf	sch_u8_add_task@delay+2
  1352  0663  3000               	movlw	0
  1353  0664  00D9               	movwf	sch_u8_add_task@delay+1
  1354  0665  3014               	movlw	20
  1355  0666  00D8               	movwf	sch_u8_add_task@delay
  1356  0667  3000               	movlw	0
  1357  0668  00DF               	movwf	sch_u8_add_task@period+3
  1358  0669  3000               	movlw	0
  1359  066A  00DE               	movwf	sch_u8_add_task@period+2
  1360  066B  3000               	movlw	0
  1361  066C  00DD               	movwf	sch_u8_add_task@period+1
  1362  066D  3014               	movlw	20
  1363  066E  00DC               	movwf	sch_u8_add_task@period
  1364  066F  3005               	movlw	(low (fp__counter_vid_update-fpbase))& (0+255)
  1365  0670  120A  118A  24F7  120A  118A  	fcall	_sch_u8_add_task
  1366                           
  1367                           ;main.c: 28:     sch_u8_add_task(display_vid_update, 0, 20);
  1368  0675  3000               	movlw	0
  1369  0676  1283               	bcf	3,5	;RP0=0, select bank0
  1370  0677  1303               	bcf	3,6	;RP1=0, select bank0
  1371  0678  00DB               	movwf	sch_u8_add_task@delay+3
  1372  0679  3000               	movlw	0
  1373  067A  00DA               	movwf	sch_u8_add_task@delay+2
  1374  067B  3000               	movlw	0
  1375  067C  00D9               	movwf	sch_u8_add_task@delay+1
  1376  067D  3000               	movlw	0
  1377  067E  00D8               	movwf	sch_u8_add_task@delay
  1378  067F  3000               	movlw	0
  1379  0680  00DF               	movwf	sch_u8_add_task@period+3
  1380  0681  3000               	movlw	0
  1381  0682  00DE               	movwf	sch_u8_add_task@period+2
  1382  0683  3000               	movlw	0
  1383  0684  00DD               	movwf	sch_u8_add_task@period+1
  1384  0685  3014               	movlw	20
  1385  0686  00DC               	movwf	sch_u8_add_task@period
  1386  0687  3008               	movlw	(low (fp__display_vid_update-fpbase))& (0+255)
  1387  0688  120A  118A  24F7  120A  118A  	fcall	_sch_u8_add_task
  1388                           
  1389                           ;main.c: 29:     sch_u8_add_task(ssd_vid_update, 5, 5);
  1390  068D  3000               	movlw	0
  1391  068E  1283               	bcf	3,5	;RP0=0, select bank0
  1392  068F  1303               	bcf	3,6	;RP1=0, select bank0
  1393  0690  00DB               	movwf	sch_u8_add_task@delay+3
  1394  0691  3000               	movlw	0
  1395  0692  00DA               	movwf	sch_u8_add_task@delay+2
  1396  0693  3000               	movlw	0
  1397  0694  00D9               	movwf	sch_u8_add_task@delay+1
  1398  0695  3005               	movlw	5
  1399  0696  00D8               	movwf	sch_u8_add_task@delay
  1400  0697  3000               	movlw	0
  1401  0698  00DF               	movwf	sch_u8_add_task@period+3
  1402  0699  3000               	movlw	0
  1403  069A  00DE               	movwf	sch_u8_add_task@period+2
  1404  069B  3000               	movlw	0
  1405  069C  00DD               	movwf	sch_u8_add_task@period+1
  1406  069D  3005               	movlw	5
  1407  069E  00DC               	movwf	sch_u8_add_task@period
  1408  069F  3002               	movlw	(low (fp__ssd_vid_update-fpbase))& (0+255)
  1409  06A0  120A  118A  24F7  120A  118A  	fcall	_sch_u8_add_task
  1410  06A5                     l2564:	
  1411                           
  1412                           ;main.c: 32:         sch_vid_dispatch_tasks();
  1413  06A5  120A  118A  2466  120A  118A  	fcall	_sch_vid_dispatch_tasks
  1414  06AA  2EA5               	goto	l2564
  1415  06AB  120A  118A  2812   	ljmp	start
  1416  06AE                     __end_of_main:	
  1417                           
  1418                           	psect	text1
  1419  0D9F                     __ptext1:	
  1420 ;; *************** function _sch_vid_init *****************
  1421 ;; Defined at:
  1422 ;;		line 19 in file "scheduler.c"
  1423 ;; Parameters:    Size  Location     Type
  1424 ;;		None
  1425 ;; Auto vars:     Size  Location     Type
  1426 ;;  i               1   13[BANK0 ] unsigned char 
  1427 ;; Return value:  Size  Location     Type
  1428 ;;                  1    wreg      void 
  1429 ;; Registers used:
  1430 ;;		wreg, fsr0l, fsr0h, status,2, status,0, pclath, cstack
  1431 ;; Tracked objects:
  1432 ;;		On entry : 0/0
  1433 ;;		On exit  : 0/0
  1434 ;;		Unchanged: 0/0
  1435 ;; Data sizes:     COMMON   BANK0   BANK1   BANK3   BANK2
  1436 ;;      Params:         0       0       0       0       0
  1437 ;;      Locals:         0       1       0       0       0
  1438 ;;      Temps:          0       1       0       0       0
  1439 ;;      Totals:         0       2       0       0       0
  1440 ;;Total ram usage:        2 bytes
  1441 ;; Hardware stack levels used:    1
  1442 ;; Hardware stack levels required when called:    5
  1443 ;; This function calls:
  1444 ;;		_sch_vid_delete_task
  1445 ;;		_timer_vid_init_0
  1446 ;;		_timer_vid_set_isr_0
  1447 ;; This function is called by:
  1448 ;;		_main
  1449 ;; This function uses a non-reentrant model
  1450 ;;
  1451                           
  1452                           
  1453                           ;psect for function _sch_vid_init
  1454  0D9F                     _sch_vid_init:	
  1455  0D9F                     l2484:	
  1456                           ;incstack = 0
  1457                           ; Regs used in _sch_vid_init: [wreg-fsr0h+status,2+status,0+pclath+cstack]
  1458                           
  1459                           
  1460                           ;scheduler.c: 20:     u8 i;;scheduler.c: 21:     for (i = 0; i < 3; i++) {
  1461  0D9F  1283               	bcf	3,5	;RP0=0, select bank0
  1462  0DA0  1303               	bcf	3,6	;RP1=0, select bank0
  1463  0DA1  01DB               	clrf	sch_vid_init@i
  1464  0DA2                     l2490:	
  1465                           
  1466                           ;scheduler.c: 22:         sch_vid_delete_task(i);
  1467  0DA2  085B               	movf	sch_vid_init@i,w
  1468  0DA3  120A  118A  2583  120A  158A  	fcall	_sch_vid_delete_task
  1469  0DA8                     l2492:	
  1470                           
  1471                           ;scheduler.c: 23:     }
  1472  0DA8  3001               	movlw	1
  1473  0DA9  1283               	bcf	3,5	;RP0=0, select bank0
  1474  0DAA  1303               	bcf	3,6	;RP1=0, select bank0
  1475  0DAB  00DA               	movwf	??_sch_vid_init
  1476  0DAC  085A               	movf	??_sch_vid_init,w
  1477  0DAD  07DB               	addwf	sch_vid_init@i,f
  1478  0DAE                     l2494:	
  1479  0DAE  3003               	movlw	3
  1480  0DAF  025B               	subwf	sch_vid_init@i,w
  1481  0DB0  1C03               	skipc
  1482  0DB1  2DB3               	goto	u2091
  1483  0DB2  2DB4               	goto	u2090
  1484  0DB3                     u2091:	
  1485  0DB3  2DA2               	goto	l2490
  1486  0DB4                     u2090:	
  1487  0DB4                     l2496:	
  1488                           
  1489                           ;scheduler.c: 24:     timer_vid_set_isr_0(sch_update);
  1490  0DB4  3001               	movlw	(low (fp__sch_update-i1fpbase))& (0+255)
  1491  0DB5  120A  158A  245E  120A  158A  	fcall	_timer_vid_set_isr_0
  1492  0DBA                     l2498:	
  1493                           
  1494                           ;scheduler.c: 25:     timer_vid_init_0(8, 1);
  1495  0DBA  3008               	movlw	8
  1496  0DBB  1283               	bcf	3,5	;RP0=0, select bank0
  1497  0DBC  1303               	bcf	3,6	;RP1=0, select bank0
  1498  0DBD  00D4               	movwf	timer_vid_init_0@prescaler
  1499  0DBE  3000               	movlw	0
  1500  0DBF  00D5               	movwf	timer_vid_init_0@prescaler+1
  1501  0DC0  01D6               	clrf	timer_vid_init_0@interruptEnable
  1502  0DC1  0AD6               	incf	timer_vid_init_0@interruptEnable,f
  1503  0DC2  120A  118A  25E9  120A  158A  	fcall	_timer_vid_init_0
  1504  0DC7                     l333:	
  1505  0DC7  0008               	return
  1506  0DC8                     __end_of_sch_vid_init:	
  1507                           
  1508                           	psect	text2
  1509  0C5E                     __ptext2:	
  1510 ;; *************** function _timer_vid_set_isr_0 *****************
  1511 ;; Defined at:
  1512 ;;		line 36 in file "timer.c"
  1513 ;; Parameters:    Size  Location     Type
  1514 ;;  callback_fun    1    wreg     PTR FTN()void 
  1515 ;;		 -> sch_update(1), 
  1516 ;; Auto vars:     Size  Location     Type
  1517 ;;  callback_fun    1    7[BANK0 ] PTR FTN()void 
  1518 ;;		 -> sch_update(1), 
  1519 ;; Return value:  Size  Location     Type
  1520 ;;                  1    wreg      void 
  1521 ;; Registers used:
  1522 ;;		wreg
  1523 ;; Tracked objects:
  1524 ;;		On entry : 0/0
  1525 ;;		On exit  : 0/0
  1526 ;;		Unchanged: 0/0
  1527 ;; Data sizes:     COMMON   BANK0   BANK1   BANK3   BANK2
  1528 ;;      Params:         0       0       0       0       0
  1529 ;;      Locals:         0       1       0       0       0
  1530 ;;      Temps:          0       1       0       0       0
  1531 ;;      Totals:         0       2       0       0       0
  1532 ;;Total ram usage:        2 bytes
  1533 ;; Hardware stack levels used:    1
  1534 ;; Hardware stack levels required when called:    3
  1535 ;; This function calls:
  1536 ;;		Nothing
  1537 ;; This function is called by:
  1538 ;;		_sch_vid_init
  1539 ;; This function uses a non-reentrant model
  1540 ;;
  1541                           
  1542                           
  1543                           ;psect for function _timer_vid_set_isr_0
  1544  0C5E                     _timer_vid_set_isr_0:	
  1545                           
  1546                           ;incstack = 0
  1547                           ; Regs used in _timer_vid_set_isr_0: [wreg]
  1548                           ;timer_vid_set_isr_0@callback_function stored from wreg
  1549  0C5E  1283               	bcf	3,5	;RP0=0, select bank0
  1550  0C5F  1303               	bcf	3,6	;RP1=0, select bank0
  1551  0C60  00D5               	movwf	timer_vid_set_isr_0@callback_function
  1552  0C61                     l2412:	
  1553                           
  1554                           ;timer.c: 37:     timer0_isr = callback_function;
  1555  0C61  0855               	movf	timer_vid_set_isr_0@callback_function,w
  1556  0C62  00D4               	movwf	??_timer_vid_set_isr_0
  1557  0C63  0854               	movf	??_timer_vid_set_isr_0,w
  1558  0C64  00FC               	movwf	_timer0_isr
  1559  0C65                     l456:	
  1560  0C65  0008               	return
  1561  0C66                     __end_of_timer_vid_set_isr_0:	
  1562                           
  1563                           	psect	text3
  1564  05E9                     __ptext3:	
  1565 ;; *************** function _timer_vid_init_0 *****************
  1566 ;; Defined at:
  1567 ;;		line 48 in file "timer.c"
  1568 ;; Parameters:    Size  Location     Type
  1569 ;;  prescaler       2    6[BANK0 ] unsigned short 
  1570 ;;  interruptEna    1    8[BANK0 ] unsigned char 
  1571 ;; Auto vars:     Size  Location     Type
  1572 ;;		None
  1573 ;; Return value:  Size  Location     Type
  1574 ;;                  1    wreg      void 
  1575 ;; Registers used:
  1576 ;;		wreg, fsr0l, fsr0h, status,2, status,0
  1577 ;; Tracked objects:
  1578 ;;		On entry : 0/0
  1579 ;;		On exit  : 0/0
  1580 ;;		Unchanged: 0/0
  1581 ;; Data sizes:     COMMON   BANK0   BANK1   BANK3   BANK2
  1582 ;;      Params:         0       3       0       0       0
  1583 ;;      Locals:         0       0       0       0       0
  1584 ;;      Temps:          0       0       0       0       0
  1585 ;;      Totals:         0       3       0       0       0
  1586 ;;Total ram usage:        3 bytes
  1587 ;; Hardware stack levels used:    1
  1588 ;; Hardware stack levels required when called:    3
  1589 ;; This function calls:
  1590 ;;		Nothing
  1591 ;; This function is called by:
  1592 ;;		_sch_vid_init
  1593 ;; This function uses a non-reentrant model
  1594 ;;
  1595                           
  1596                           
  1597                           ;psect for function _timer_vid_init_0
  1598  05E9                     _timer_vid_init_0:	
  1599  05E9                     l2414:	
  1600                           ;incstack = 0
  1601                           ; Regs used in _timer_vid_init_0: [wreg-fsr0h+status,2+status,0]
  1602                           
  1603                           
  1604                           ;timer.c: 51:     T0CS = 0;
  1605  05E9  1683               	bsf	3,5	;RP0=1, select bank1
  1606  05EA  1303               	bcf	3,6	;RP1=0, select bank1
  1607  05EB  1281               	bcf	1,5	;volatile
  1608                           
  1609                           ;timer.c: 54:     PSA = 0;
  1610  05EC  1181               	bcf	1,3	;volatile
  1611                           
  1612                           ;timer.c: 57:     switch (prescaler) {
  1613  05ED  2E1E               	goto	l2418
  1614  05EE                     l466:	
  1615                           ;timer.c: 58:         case 2:
  1616                           
  1617                           
  1618                           ;timer.c: 59:             PS0 = 0;
  1619  05EE  1683               	bsf	3,5	;RP0=1, select bank1
  1620  05EF  1303               	bcf	3,6	;RP1=0, select bank1
  1621  05F0  1001               	bcf	1,0	;volatile
  1622                           
  1623                           ;timer.c: 60:             PS1 = 0;
  1624  05F1  1081               	bcf	1,1	;volatile
  1625                           
  1626                           ;timer.c: 61:             PS2 = 0;
  1627  05F2  1101               	bcf	1,2	;volatile
  1628                           
  1629                           ;timer.c: 62:             break;
  1630  05F3  2E44               	goto	l2420
  1631  05F4                     l468:	
  1632                           ;timer.c: 63:         case 4:
  1633                           
  1634                           
  1635                           ;timer.c: 64:             PS0 = 1;
  1636  05F4  1683               	bsf	3,5	;RP0=1, select bank1
  1637  05F5  1303               	bcf	3,6	;RP1=0, select bank1
  1638  05F6  1401               	bsf	1,0	;volatile
  1639                           
  1640                           ;timer.c: 65:             PS1 = 0;
  1641  05F7  1081               	bcf	1,1	;volatile
  1642                           
  1643                           ;timer.c: 66:             PS2 = 0;
  1644  05F8  1101               	bcf	1,2	;volatile
  1645                           
  1646                           ;timer.c: 67:             break;
  1647  05F9  2E44               	goto	l2420
  1648  05FA                     l469:	
  1649                           ;timer.c: 68:         case 8:
  1650                           
  1651                           
  1652                           ;timer.c: 69:             PS0 = 0;
  1653  05FA  1683               	bsf	3,5	;RP0=1, select bank1
  1654  05FB  1303               	bcf	3,6	;RP1=0, select bank1
  1655  05FC  1001               	bcf	1,0	;volatile
  1656                           
  1657                           ;timer.c: 70:             PS1 = 1;
  1658  05FD  1481               	bsf	1,1	;volatile
  1659                           
  1660                           ;timer.c: 71:             PS2 = 0;
  1661  05FE  1101               	bcf	1,2	;volatile
  1662                           
  1663                           ;timer.c: 72:             break;
  1664  05FF  2E44               	goto	l2420
  1665  0600                     l470:	
  1666                           ;timer.c: 73:         case 16:
  1667                           
  1668                           
  1669                           ;timer.c: 74:             PS0 = 1;
  1670  0600  1683               	bsf	3,5	;RP0=1, select bank1
  1671  0601  1303               	bcf	3,6	;RP1=0, select bank1
  1672  0602  1401               	bsf	1,0	;volatile
  1673                           
  1674                           ;timer.c: 75:             PS1 = 1;
  1675  0603  1481               	bsf	1,1	;volatile
  1676                           
  1677                           ;timer.c: 76:             PS2 = 0;
  1678  0604  1101               	bcf	1,2	;volatile
  1679                           
  1680                           ;timer.c: 77:             break;
  1681  0605  2E44               	goto	l2420
  1682  0606                     l471:	
  1683                           ;timer.c: 78:         case 32:
  1684                           
  1685                           
  1686                           ;timer.c: 79:             PS0 = 0;
  1687  0606  1683               	bsf	3,5	;RP0=1, select bank1
  1688  0607  1303               	bcf	3,6	;RP1=0, select bank1
  1689  0608  1001               	bcf	1,0	;volatile
  1690                           
  1691                           ;timer.c: 80:             PS1 = 0;
  1692  0609  1081               	bcf	1,1	;volatile
  1693                           
  1694                           ;timer.c: 81:             PS2 = 1;
  1695  060A  1501               	bsf	1,2	;volatile
  1696                           
  1697                           ;timer.c: 82:             break;
  1698  060B  2E44               	goto	l2420
  1699  060C                     l472:	
  1700                           ;timer.c: 83:         case 64:
  1701                           
  1702                           
  1703                           ;timer.c: 84:             PS0 = 1;
  1704  060C  1683               	bsf	3,5	;RP0=1, select bank1
  1705  060D  1303               	bcf	3,6	;RP1=0, select bank1
  1706  060E  1401               	bsf	1,0	;volatile
  1707                           
  1708                           ;timer.c: 85:             PS1 = 0;
  1709  060F  1081               	bcf	1,1	;volatile
  1710                           
  1711                           ;timer.c: 86:             PS2 = 1;
  1712  0610  1501               	bsf	1,2	;volatile
  1713                           
  1714                           ;timer.c: 87:             break;
  1715  0611  2E44               	goto	l2420
  1716  0612                     l473:	
  1717                           ;timer.c: 88:         case 128:
  1718                           
  1719                           
  1720                           ;timer.c: 89:             PS0 = 0;
  1721  0612  1683               	bsf	3,5	;RP0=1, select bank1
  1722  0613  1303               	bcf	3,6	;RP1=0, select bank1
  1723  0614  1001               	bcf	1,0	;volatile
  1724                           
  1725                           ;timer.c: 90:             PS1 = 1;
  1726  0615  1481               	bsf	1,1	;volatile
  1727                           
  1728                           ;timer.c: 91:             PS2 = 1;
  1729  0616  1501               	bsf	1,2	;volatile
  1730                           
  1731                           ;timer.c: 92:             break;
  1732  0617  2E44               	goto	l2420
  1733  0618                     l474:	
  1734                           ;timer.c: 93:         case 256:
  1735                           
  1736                           
  1737                           ;timer.c: 94:             PS0 = 1;
  1738  0618  1683               	bsf	3,5	;RP0=1, select bank1
  1739  0619  1303               	bcf	3,6	;RP1=0, select bank1
  1740  061A  1401               	bsf	1,0	;volatile
  1741                           
  1742                           ;timer.c: 95:             PS1 = 1;
  1743  061B  1481               	bsf	1,1	;volatile
  1744                           
  1745                           ;timer.c: 96:             PS2 = 1;
  1746  061C  1501               	bsf	1,2	;volatile
  1747                           
  1748                           ;timer.c: 97:             break;
  1749  061D  2E44               	goto	l2420
  1750  061E                     l2418:	
  1751                           
  1752                           ; Switch on 2 bytes has been partitioned into a top level switch of size 1, and 2 sub-sw
      +                          itches
  1753                           ; Switch size 1, requested type "simple"
  1754                           ; Number of cases is 2, Range of values is 0 to 1
  1755                           ; switch strategies available:
  1756                           ; Name         Instructions Cycles
  1757                           ; simple_byte            7     4 (average)
  1758                           ; direct_byte           14     8 (fixed)
  1759                           ; jumptable            260     6 (fixed)
  1760                           ;	Chosen strategy is simple_byte
  1761  061E  1283               	bcf	3,5	;RP0=0, select bank0
  1762  061F  1303               	bcf	3,6	;RP1=0, select bank0
  1763  0620  0855               	movf	timer_vid_init_0@prescaler+1,w
  1764  0621  3A00               	xorlw	0	; case 0
  1765  0622  1903               	skipnz
  1766  0623  2E28               	goto	l2800
  1767  0624  3A01               	xorlw	1	; case 1
  1768  0625  1903               	skipnz
  1769  0626  2E3F               	goto	l2802
  1770  0627  2E44               	goto	l2420
  1771  0628                     l2800:	
  1772                           
  1773                           ; Switch size 1, requested type "simple"
  1774                           ; Number of cases is 7, Range of values is 2 to 128
  1775                           ; switch strategies available:
  1776                           ; Name         Instructions Cycles
  1777                           ; simple_byte           22    12 (average)
  1778                           ; jumptable            263     9 (fixed)
  1779                           ;	Chosen strategy is simple_byte
  1780  0628  0854               	movf	timer_vid_init_0@prescaler,w
  1781  0629  3A02               	xorlw	2	; case 2
  1782  062A  1903               	skipnz
  1783  062B  2DEE               	goto	l466
  1784  062C  3A06               	xorlw	6	; case 4
  1785  062D  1903               	skipnz
  1786  062E  2DF4               	goto	l468
  1787  062F  3A0C               	xorlw	12	; case 8
  1788  0630  1903               	skipnz
  1789  0631  2DFA               	goto	l469
  1790  0632  3A18               	xorlw	24	; case 16
  1791  0633  1903               	skipnz
  1792  0634  2E00               	goto	l470
  1793  0635  3A30               	xorlw	48	; case 32
  1794  0636  1903               	skipnz
  1795  0637  2E06               	goto	l471
  1796  0638  3A60               	xorlw	96	; case 64
  1797  0639  1903               	skipnz
  1798  063A  2E0C               	goto	l472
  1799  063B  3AC0               	xorlw	192	; case 128
  1800  063C  1903               	skipnz
  1801  063D  2E12               	goto	l473
  1802  063E  2E44               	goto	l2420
  1803  063F                     l2802:	
  1804                           
  1805                           ; Switch size 1, requested type "simple"
  1806                           ; Number of cases is 1, Range of values is 0 to 0
  1807                           ; switch strategies available:
  1808                           ; Name         Instructions Cycles
  1809                           ; simple_byte            4     3 (average)
  1810                           ; direct_byte           11     8 (fixed)
  1811                           ; jumptable            260     6 (fixed)
  1812                           ;	Chosen strategy is simple_byte
  1813  063F  0854               	movf	timer_vid_init_0@prescaler,w
  1814  0640  3A00               	xorlw	0	; case 0
  1815  0641  1903               	skipnz
  1816  0642  2E18               	goto	l474
  1817  0643  2E44               	goto	l2420
  1818  0644                     l2420:	
  1819                           
  1820                           ;timer.c: 100:     if (interruptEnable) {
  1821  0644  1283               	bcf	3,5	;RP0=0, select bank0
  1822  0645  0856               	movf	timer_vid_init_0@interruptEnable,w
  1823  0646  1903               	btfsc	3,2
  1824  0647  2E49               	goto	u2041
  1825  0648  2E4A               	goto	u2040
  1826  0649                     u2041:	
  1827  0649  2E4D               	goto	l476
  1828  064A                     u2040:	
  1829  064A                     l2422:	
  1830                           
  1831                           ;timer.c: 102:         PEIE = 1;
  1832  064A  170B               	bsf	11,6	;volatile
  1833                           
  1834                           ;timer.c: 105:         GIE = 1;
  1835  064B  178B               	bsf	11,7	;volatile
  1836                           
  1837                           ;timer.c: 108:         TMR0IE = 1;
  1838  064C  168B               	bsf	11,5	;volatile
  1839  064D                     l476:	
  1840  064D  0008               	return
  1841  064E                     __end_of_timer_vid_init_0:	
  1842                           
  1843                           	psect	text4
  1844  0466                     __ptext4:	
  1845 ;; *************** function _sch_vid_dispatch_tasks *****************
  1846 ;; Defined at:
  1847 ;;		line 73 in file "scheduler.c"
  1848 ;; Parameters:    Size  Location     Type
  1849 ;;		None
  1850 ;; Auto vars:     Size  Location     Type
  1851 ;;  index           1   22[BANK0 ] unsigned char 
  1852 ;; Return value:  Size  Location     Type
  1853 ;;                  1    wreg      void 
  1854 ;; Registers used:
  1855 ;;		wreg, fsr0l, fsr0h, status,2, status,0, btemp+1, pclath, cstack
  1856 ;; Tracked objects:
  1857 ;;		On entry : 0/0
  1858 ;;		On exit  : 0/0
  1859 ;;		Unchanged: 0/0
  1860 ;; Data sizes:     COMMON   BANK0   BANK1   BANK3   BANK2
  1861 ;;      Params:         0       0       0       0       0
  1862 ;;      Locals:         0       1       0       0       0
  1863 ;;      Temps:          0       5       0       0       0
  1864 ;;      Totals:         0       6       0       0       0
  1865 ;;Total ram usage:        6 bytes
  1866 ;; Hardware stack levels used:    1
  1867 ;; Hardware stack levels required when called:    7
  1868 ;; This function calls:
  1869 ;;		Absolute function
  1870 ;;		___bmul
  1871 ;;		_counter_vid_update
  1872 ;;		_display_vid_update
  1873 ;;		_sch_vid_delete_task
  1874 ;;		_ssd_vid_update
  1875 ;; This function is called by:
  1876 ;;		_main
  1877 ;; This function uses a non-reentrant model
  1878 ;;
  1879                           
  1880                           
  1881                           ;psect for function _sch_vid_dispatch_tasks
  1882  0466                     _sch_vid_dispatch_tasks:	
  1883  0466                     l2516:	
  1884                           ;incstack = 0
  1885                           ; Regs used in _sch_vid_dispatch_tasks: [wreg-fsr0h+status,2+status,0+btemp+1+pclath+cst
      +                          ack]
  1886                           
  1887                           
  1888                           ;scheduler.c: 74:     u8 index;;scheduler.c: 76:     for (index = 0; index < 3; index++)
      +                           {
  1889  0466  1283               	bcf	3,5	;RP0=0, select bank0
  1890  0467  1303               	bcf	3,6	;RP1=0, select bank0
  1891  0468  01E4               	clrf	sch_vid_dispatch_tasks@index
  1892  0469                     l2522:	
  1893                           
  1894                           ;scheduler.c: 77:         if (sch_tasks[index].runMe > 0) {
  1895  0469  300D               	movlw	13
  1896  046A  00DF               	movwf	??_sch_vid_dispatch_tasks
  1897  046B  085F               	movf	??_sch_vid_dispatch_tasks,w
  1898  046C  00D4               	movwf	___bmul@multiplicand
  1899  046D  0864               	movf	sch_vid_dispatch_tasks@index,w
  1900  046E  120A  158A  2508  120A  118A  	fcall	___bmul
  1901  0473  3E29               	addlw	(low ((_sch_tasks| 0+9)))& (0+255)
  1902  0474  0084               	movwf	4
  1903  0475  1383               	bcf	3,7	;select IRP bank0
  1904  0476  0800               	movf	0,w
  1905  0477  1283               	bcf	3,5	;RP0=0, select bank0
  1906  0478  1303               	bcf	3,6	;RP1=0, select bank0
  1907  0479  00E0               	movwf	??_sch_vid_dispatch_tasks+1
  1908  047A  0A84               	incf	4,f
  1909  047B  0800               	movf	0,w
  1910  047C  00E1               	movwf	??_sch_vid_dispatch_tasks+2
  1911  047D  0A84               	incf	4,f
  1912  047E  0800               	movf	0,w
  1913  047F  00E2               	movwf	??_sch_vid_dispatch_tasks+3
  1914  0480  0A84               	incf	4,f
  1915  0481  0800               	movf	0,w
  1916  0482  00E3               	movwf	??_sch_vid_dispatch_tasks+4
  1917  0483  0863               	movf	??_sch_vid_dispatch_tasks+4,w
  1918  0484  0462               	iorwf	??_sch_vid_dispatch_tasks+3,w
  1919  0485  0461               	iorwf	??_sch_vid_dispatch_tasks+2,w
  1920  0486  0460               	iorwf	??_sch_vid_dispatch_tasks+1,w
  1921  0487  1903               	skipnz
  1922  0488  2C8A               	goto	u2131
  1923  0489  2C8B               	goto	u2130
  1924  048A                     u2131:	
  1925  048A  2CEA               	goto	l2532
  1926  048B                     u2130:	
  1927  048B                     l2524:	
  1928                           
  1929                           ;scheduler.c: 78:             (*sch_tasks[index].taskFunction)();
  1930  048B  300D               	movlw	13
  1931  048C  00DF               	movwf	??_sch_vid_dispatch_tasks
  1932  048D  085F               	movf	??_sch_vid_dispatch_tasks,w
  1933  048E  00D4               	movwf	___bmul@multiplicand
  1934  048F  0864               	movf	sch_vid_dispatch_tasks@index,w
  1935  0490  120A  158A  2508  120A  118A  	fcall	___bmul
  1936  0495  3E20               	addlw	(low (_sch_tasks| 0))& (0+255)
  1937  0496  0084               	movwf	4
  1938  0497  1383               	bcf	3,7	;select IRP bank0
  1939  0498  0800               	movf	0,w
  1940  0499  120A  118A  2036  120A  118A  	fcall	fptable
  1941  049E                     l2526:	
  1942                           
  1943                           ;scheduler.c: 79:             sch_tasks[index].runMe -= 1;
  1944  049E  300D               	movlw	13
  1945  049F  1283               	bcf	3,5	;RP0=0, select bank0
  1946  04A0  1303               	bcf	3,6	;RP1=0, select bank0
  1947  04A1  00DF               	movwf	??_sch_vid_dispatch_tasks
  1948  04A2  085F               	movf	??_sch_vid_dispatch_tasks,w
  1949  04A3  00D4               	movwf	___bmul@multiplicand
  1950  04A4  0864               	movf	sch_vid_dispatch_tasks@index,w
  1951  04A5  120A  158A  2508  120A  118A  	fcall	___bmul
  1952  04AA  3E29               	addlw	(low ((_sch_tasks| 0+9)))& (0+255)
  1953  04AB  0084               	movwf	4
  1954  04AC  3001               	movlw	1
  1955  04AD  1383               	bcf	3,7	;select IRP bank0
  1956  04AE  0280               	subwf	0,f
  1957  04AF  0A84               	incf	4,f
  1958  04B0  3000               	movlw	0
  1959  04B1  1C03               	skipc
  1960  04B2  3001               	movlw	1
  1961  04B3  0280               	subwf	0,f
  1962  04B4  0A84               	incf	4,f
  1963  04B5  3000               	movlw	0
  1964  04B6  1C03               	skipc
  1965  04B7  3001               	movlw	1
  1966  04B8  0280               	subwf	0,f
  1967  04B9  0A84               	incf	4,f
  1968  04BA  3000               	movlw	0
  1969  04BB  1C03               	skipc
  1970  04BC  3001               	movlw	1
  1971  04BD  0280               	subwf	0,f
  1972  04BE  3003               	movlw	3
  1973  04BF  0284               	subwf	4,f
  1974  04C0                     l2528:	
  1975                           
  1976                           ;scheduler.c: 82:             if (sch_tasks[index].period == 0) {
  1977  04C0  300D               	movlw	13
  1978  04C1  1283               	bcf	3,5	;RP0=0, select bank0
  1979  04C2  1303               	bcf	3,6	;RP1=0, select bank0
  1980  04C3  00DF               	movwf	??_sch_vid_dispatch_tasks
  1981  04C4  085F               	movf	??_sch_vid_dispatch_tasks,w
  1982  04C5  00D4               	movwf	___bmul@multiplicand
  1983  04C6  0864               	movf	sch_vid_dispatch_tasks@index,w
  1984  04C7  120A  158A  2508  120A  118A  	fcall	___bmul
  1985  04CC  3E25               	addlw	(low ((_sch_tasks| 0+5)))& (0+255)
  1986  04CD  0084               	movwf	4
  1987  04CE  1383               	bcf	3,7	;select IRP bank0
  1988  04CF  0800               	movf	0,w
  1989  04D0  1283               	bcf	3,5	;RP0=0, select bank0
  1990  04D1  1303               	bcf	3,6	;RP1=0, select bank0
  1991  04D2  00E0               	movwf	??_sch_vid_dispatch_tasks+1
  1992  04D3  0A84               	incf	4,f
  1993  04D4  0800               	movf	0,w
  1994  04D5  00E1               	movwf	??_sch_vid_dispatch_tasks+2
  1995  04D6  0A84               	incf	4,f
  1996  04D7  0800               	movf	0,w
  1997  04D8  00E2               	movwf	??_sch_vid_dispatch_tasks+3
  1998  04D9  0A84               	incf	4,f
  1999  04DA  0800               	movf	0,w
  2000  04DB  00E3               	movwf	??_sch_vid_dispatch_tasks+4
  2001  04DC  0863               	movf	??_sch_vid_dispatch_tasks+4,w
  2002  04DD  0462               	iorwf	??_sch_vid_dispatch_tasks+3,w
  2003  04DE  0461               	iorwf	??_sch_vid_dispatch_tasks+2,w
  2004  04DF  0460               	iorwf	??_sch_vid_dispatch_tasks+1,w
  2005  04E0  1D03               	skipz
  2006  04E1  2CE3               	goto	u2141
  2007  04E2  2CE4               	goto	u2140
  2008  04E3                     u2141:	
  2009  04E3  2CEA               	goto	l2532
  2010  04E4                     u2140:	
  2011  04E4                     l2530:	
  2012                           
  2013                           ;scheduler.c: 83:                 sch_vid_delete_task(index);
  2014  04E4  0864               	movf	sch_vid_dispatch_tasks@index,w
  2015  04E5  120A  118A  2583  120A  118A  	fcall	_sch_vid_delete_task
  2016  04EA                     l2532:	
  2017                           
  2018                           ;scheduler.c: 86:     }
  2019  04EA  3001               	movlw	1
  2020  04EB  1283               	bcf	3,5	;RP0=0, select bank0
  2021  04EC  1303               	bcf	3,6	;RP1=0, select bank0
  2022  04ED  00DF               	movwf	??_sch_vid_dispatch_tasks
  2023  04EE  085F               	movf	??_sch_vid_dispatch_tasks,w
  2024  04EF  07E4               	addwf	sch_vid_dispatch_tasks@index,f
  2025  04F0                     l2534:	
  2026  04F0  3003               	movlw	3
  2027  04F1  0264               	subwf	sch_vid_dispatch_tasks@index,w
  2028  04F2  1C03               	skipc
  2029  04F3  2CF5               	goto	u2151
  2030  04F4  2CF6               	goto	u2150
  2031  04F5                     u2151:	
  2032  04F5  2C69               	goto	l2522
  2033  04F6                     u2150:	
  2034  04F6                     l358:	
  2035  04F6  0008               	return
  2036  04F7                     __end_of_sch_vid_dispatch_tasks:	
  2037                           
  2038                           	psect	text5
  2039  0709                     __ptext5:	
  2040 ;; *************** function _display_vid_update *****************
  2041 ;; Defined at:
  2042 ;;		line 39 in file "display.c"
  2043 ;; Parameters:    Size  Location     Type
  2044 ;;		None
  2045 ;; Auto vars:     Size  Location     Type
  2046 ;;		None
  2047 ;; Return value:  Size  Location     Type
  2048 ;;                  1    wreg      void 
  2049 ;; Registers used:
  2050 ;;		wreg, status,2, status,0, pclath, cstack
  2051 ;; Tracked objects:
  2052 ;;		On entry : 0/0
  2053 ;;		On exit  : 0/0
  2054 ;;		Unchanged: 0/0
  2055 ;; Data sizes:     COMMON   BANK0   BANK1   BANK3   BANK2
  2056 ;;      Params:         0       0       0       0       0
  2057 ;;      Locals:         0       0       0       0       0
  2058 ;;      Temps:          0       0       0       0       0
  2059 ;;      Totals:         0       0       0       0       0
  2060 ;;Total ram usage:        0 bytes
  2061 ;; Hardware stack levels used:    1
  2062 ;; Hardware stack levels required when called:    4
  2063 ;; This function calls:
  2064 ;;		___lwmod
  2065 ;;		_counter_u8_get_counter
  2066 ;;		_ssd_u8_get_state
  2067 ;;		_ssd_vid_set_state
  2068 ;;		_ssd_vid_set_symbol
  2069 ;; This function is called by:
  2070 ;;		_main
  2071 ;;		_sch_vid_dispatch_tasks
  2072 ;; This function uses a non-reentrant model
  2073 ;;
  2074                           
  2075                           
  2076                           ;psect for function _display_vid_update
  2077  0709                     _display_vid_update:	
  2078  0709                     l2388:	
  2079                           ;incstack = 0
  2080                           ; Regs used in _display_vid_update: [wreg+status,2+status,0+pclath+cstack]
  2081                           
  2082                           
  2083                           ;display.c: 41:     if (settingModeCounter == 250 && settingModeFlag == 1) {
  2084  0709  30FA               	movlw	250
  2085  070A  1283               	bcf	3,5	;RP0=0, select bank0
  2086  070B  1303               	bcf	3,6	;RP1=0, select bank0
  2087  070C  0649               	xorwf	_settingModeCounter,w
  2088  070D  044A               	iorwf	_settingModeCounter+1,w
  2089  070E  1D03               	btfss	3,2
  2090  070F  2F11               	goto	u1981
  2091  0710  2F12               	goto	u1980
  2092  0711                     u1981:	
  2093  0711  2F1A               	goto	l2394
  2094  0712                     u1980:	
  2095  0712                     l2390:	
  2096  0712  034C               	decf	_settingModeFlag,w
  2097  0713  1D03               	btfss	3,2
  2098  0714  2F16               	goto	u1991
  2099  0715  2F17               	goto	u1990
  2100  0716                     u1991:	
  2101  0716  2F1A               	goto	l2394
  2102  0717                     u1990:	
  2103  0717                     l2392:	
  2104                           
  2105                           ;display.c: 42:         settingModeFlag = 0;
  2106  0717  01CC               	clrf	_settingModeFlag
  2107                           
  2108                           ;display.c: 43:         settingModeCounter = 0;
  2109  0718  01C9               	clrf	_settingModeCounter
  2110  0719  01CA               	clrf	_settingModeCounter+1
  2111  071A                     l2394:	
  2112                           
  2113                           ;display.c: 47:     if (settingModeFlag) {
  2114  071A  084C               	movf	_settingModeFlag,w
  2115  071B  1903               	btfsc	3,2
  2116  071C  2F1E               	goto	u2001
  2117  071D  2F1F               	goto	u2000
  2118  071E                     u2001:	
  2119  071E  2F52               	goto	l2406
  2120  071F                     u2000:	
  2121  071F                     l2396:	
  2122                           
  2123                           ;display.c: 48:         settingModeCounter++;
  2124  071F  3001               	movlw	1
  2125  0720  07C9               	addwf	_settingModeCounter,f
  2126  0721  1803               	skipnc
  2127  0722  0ACA               	incf	_settingModeCounter+1,f
  2128  0723  3000               	movlw	0
  2129  0724  07CA               	addwf	_settingModeCounter+1,f
  2130  0725                     l2398:	
  2131                           
  2132                           ;display.c: 49:         if (settingModeCounter % 50 == 0) {
  2133  0725  3032               	movlw	50
  2134  0726  00D4               	movwf	___lwmod@divisor
  2135  0727  3000               	movlw	0
  2136  0728  00D5               	movwf	___lwmod@divisor+1
  2137  0729  084A               	movf	_settingModeCounter+1,w
  2138  072A  00D7               	movwf	___lwmod@dividend+1
  2139  072B  0849               	movf	_settingModeCounter,w
  2140  072C  00D6               	movwf	___lwmod@dividend
  2141  072D  120A  158A  268D  120A  118A  	fcall	___lwmod
  2142  0732  1283               	bcf	3,5	;RP0=0, select bank0
  2143  0733  1303               	bcf	3,6	;RP1=0, select bank0
  2144  0734  0854               	movf	?___lwmod,w
  2145  0735  0455               	iorwf	?___lwmod+1,w
  2146  0736  1D03               	btfss	3,2
  2147  0737  2F39               	goto	u2011
  2148  0738  2F3A               	goto	u2010
  2149  0739                     u2011:	
  2150  0739  2F58               	goto	l176
  2151  073A                     u2010:	
  2152  073A                     l2400:	
  2153                           
  2154                           ;display.c: 50:             if (ssd_u8_get_state() == 1)
  2155  073A  120A  158A  2452  120A  118A  	fcall	_ssd_u8_get_state
  2156  073F  3A01               	xorlw	1
  2157  0740  1D03               	skipz
  2158  0741  2F43               	goto	u2021
  2159  0742  2F44               	goto	u2020
  2160  0743                     u2021:	
  2161  0743  2F4B               	goto	l2404
  2162  0744                     u2020:	
  2163  0744                     l2402:	
  2164                           
  2165                           ;display.c: 51:                 ssd_vid_set_state(0);
  2166  0744  3000               	movlw	0
  2167  0745  120A  158A  2456  120A  118A  	fcall	_ssd_vid_set_state
  2168  074A  2F58               	goto	l176
  2169  074B                     l2404:	
  2170                           
  2171                           ;display.c: 53:                 ssd_vid_set_state(1);
  2172  074B  3001               	movlw	1
  2173  074C  120A  158A  2456  120A  118A  	fcall	_ssd_vid_set_state
  2174  0751  2F58               	goto	l176
  2175  0752                     l2406:	
  2176                           
  2177                           ;display.c: 58:         ssd_vid_set_state(1);
  2178  0752  3001               	movlw	1
  2179  0753  120A  158A  2456  120A  118A  	fcall	_ssd_vid_set_state
  2180  0758                     l176:	
  2181                           ;display.c: 59:     }
  2182                           
  2183                           
  2184                           ;display.c: 62:     ssd_vid_set_symbol(counter_u8_get_counter());
  2185  0758  120A  158A  244E  120A  118A  	fcall	_counter_u8_get_counter
  2186  075D  120A  158A  2493  120A  118A  	fcall	_ssd_vid_set_symbol
  2187  0762                     l177:	
  2188  0762  0008               	return
  2189  0763                     __end_of_display_vid_update:	
  2190                           
  2191                           	psect	text6
  2192  02F4                     __ptext6:	
  2193 ;; *************** function _counter_vid_update *****************
  2194 ;; Defined at:
  2195 ;;		line 35 in file "counter.c"
  2196 ;; Parameters:    Size  Location     Type
  2197 ;;		None
  2198 ;; Auto vars:     Size  Location     Type
  2199 ;;		None
  2200 ;; Return value:  Size  Location     Type
  2201 ;;                  1    wreg      void 
  2202 ;; Registers used:
  2203 ;;		wreg, fsr0l, fsr0h, status,2, status,0, btemp+1, pclath, cstack
  2204 ;; Tracked objects:
  2205 ;;		On entry : 0/0
  2206 ;;		On exit  : 0/0
  2207 ;;		Unchanged: 0/0
  2208 ;; Data sizes:     COMMON   BANK0   BANK1   BANK3   BANK2
  2209 ;;      Params:         0       0       0       0       0
  2210 ;;      Locals:         0       0       0       0       0
  2211 ;;      Temps:          0       2       0       0       0
  2212 ;;      Totals:         0       2       0       0       0
  2213 ;;Total ram usage:        2 bytes
  2214 ;; Hardware stack levels used:    1
  2215 ;; Hardware stack levels required when called:    6
  2216 ;; This function calls:
  2217 ;;		_dio_u8_read_pin_value
  2218 ;;		_display_set_setting_mode
  2219 ;;		_eeprom_external_vid_write
  2220 ;;		_ssd_vid_set_symbol
  2221 ;; This function is called by:
  2222 ;;		_main
  2223 ;;		_sch_vid_dispatch_tasks
  2224 ;; This function uses a non-reentrant model
  2225 ;;
  2226                           
  2227                           
  2228                           ;psect for function _counter_vid_update
  2229  02F4                     _counter_vid_update:	
  2230  02F4                     l2348:	
  2231                           ;incstack = 0
  2232                           ; Regs used in _counter_vid_update: [wreg-fsr0h+status,2+status,0+btemp+1+pclath+cstack]
  2233                           
  2234                           
  2235                           ;counter.c: 36:     if (dio_u8_read_pin_value(B, 2) == 0 && buttonPressedFlag == 0) {
  2236  02F4  3002               	movlw	2
  2237  02F5  1283               	bcf	3,5	;RP0=0, select bank0
  2238  02F6  1303               	bcf	3,6	;RP1=0, select bank0
  2239  02F7  00DB               	movwf	??_counter_vid_update
  2240  02F8  085B               	movf	??_counter_vid_update,w
  2241  02F9  00D7               	movwf	dio_u8_read_pin_value@index
  2242  02FA  3001               	movlw	1
  2243  02FB  120A  158A  2538  120A  118A  	fcall	_dio_u8_read_pin_value
  2244  0300  3A00               	xorlw	0
  2245  0301  1D03               	skipz
  2246  0302  2B04               	goto	u1901
  2247  0303  2B05               	goto	u1900
  2248  0304                     u1901:	
  2249  0304  2B44               	goto	l2364
  2250  0305                     u1900:	
  2251  0305                     l2350:	
  2252  0305  1283               	bcf	3,5	;RP0=0, select bank0
  2253  0306  1303               	bcf	3,6	;RP1=0, select bank0
  2254  0307  084D               	movf	_buttonPressedFlag,w
  2255  0308  1D03               	btfss	3,2
  2256  0309  2B0B               	goto	u1911
  2257  030A  2B0C               	goto	u1910
  2258  030B                     u1911:	
  2259  030B  2B44               	goto	l2364
  2260  030C                     u1910:	
  2261  030C                     l2352:	
  2262                           
  2263                           ;counter.c: 37:         display_set_setting_mode(1);
  2264  030C  3001               	movlw	1
  2265  030D  120A  158A  2489  120A  118A  	fcall	_display_set_setting_mode
  2266  0312                     l2354:	
  2267                           
  2268                           ;counter.c: 38:         buttonPressedFlag = 1;
  2269  0312  1283               	bcf	3,5	;RP0=0, select bank0
  2270  0313  1303               	bcf	3,6	;RP1=0, select bank0
  2271  0314  01CD               	clrf	_buttonPressedFlag
  2272  0315  0ACD               	incf	_buttonPressedFlag,f
  2273  0316                     l2356:	
  2274                           
  2275                           ;counter.c: 39:         if (counter + 5 < 80) {
  2276  0316  0866               	movf	_counter,w
  2277  0317  3E05               	addlw	5
  2278  0318  00DB               	movwf	??_counter_vid_update
  2279  0319  3000               	movlw	0
  2280  031A  1803               	skipnc
  2281  031B  3001               	movlw	1
  2282  031C  00DC               	movwf	??_counter_vid_update+1
  2283  031D  085C               	movf	??_counter_vid_update+1,w
  2284  031E  3A80               	xorlw	128
  2285  031F  00FF               	movwf	btemp+1
  2286  0320  3080               	movlw	128
  2287  0321  027F               	subwf	btemp+1,w
  2288  0322  1D03               	skipz
  2289  0323  2B26               	goto	u1925
  2290  0324  3050               	movlw	80
  2291  0325  025B               	subwf	??_counter_vid_update,w
  2292  0326                     u1925:	
  2293  0326  1803               	skipnc
  2294  0327  2B29               	goto	u1921
  2295  0328  2B2A               	goto	u1920
  2296  0329                     u1921:	
  2297  0329  2B8F               	goto	l2380
  2298  032A                     u1920:	
  2299  032A                     l2358:	
  2300                           
  2301                           ;counter.c: 40:             eeprom_external_vid_write(0, counter + 5);
  2302  032A  1283               	bcf	3,5	;RP0=0, select bank0
  2303  032B  1303               	bcf	3,6	;RP1=0, select bank0
  2304  032C  0866               	movf	_counter,w
  2305  032D  3E05               	addlw	5
  2306  032E  00DB               	movwf	??_counter_vid_update
  2307  032F  085B               	movf	??_counter_vid_update,w
  2308  0330  00D6               	movwf	eeprom_external_vid_write@data
  2309  0331  3000               	movlw	0
  2310  0332  120A  158A  2621  120A  118A  	fcall	_eeprom_external_vid_write
  2311  0337                     l2360:	
  2312                           
  2313                           ;counter.c: 41:             counter += 5;
  2314  0337  3005               	movlw	5
  2315  0338  1283               	bcf	3,5	;RP0=0, select bank0
  2316  0339  1303               	bcf	3,6	;RP1=0, select bank0
  2317  033A  00DB               	movwf	??_counter_vid_update
  2318  033B  085B               	movf	??_counter_vid_update,w
  2319  033C  07E6               	addwf	_counter,f
  2320  033D                     l2362:	
  2321                           
  2322                           ;counter.c: 42:             ssd_vid_set_symbol(counter);
  2323  033D  0866               	movf	_counter,w
  2324  033E  120A  158A  2493  120A  118A  	fcall	_ssd_vid_set_symbol
  2325  0343  2B8F               	goto	l2380
  2326  0344                     l2364:	
  2327  0344  1283               	bcf	3,5	;RP0=0, select bank0
  2328  0345  1303               	bcf	3,6	;RP1=0, select bank0
  2329  0346  01D7               	clrf	dio_u8_read_pin_value@index
  2330  0347  0AD7               	incf	dio_u8_read_pin_value@index,f
  2331  0348  3001               	movlw	1
  2332  0349  120A  158A  2538  120A  118A  	fcall	_dio_u8_read_pin_value
  2333  034E  3A00               	xorlw	0
  2334  034F  1D03               	skipz
  2335  0350  2B52               	goto	u1931
  2336  0351  2B53               	goto	u1930
  2337  0352                     u1931:	
  2338  0352  2B8F               	goto	l2380
  2339  0353                     u1930:	
  2340  0353                     l2366:	
  2341  0353  1283               	bcf	3,5	;RP0=0, select bank0
  2342  0354  1303               	bcf	3,6	;RP1=0, select bank0
  2343  0355  084D               	movf	_buttonPressedFlag,w
  2344  0356  1D03               	btfss	3,2
  2345  0357  2B59               	goto	u1941
  2346  0358  2B5A               	goto	u1940
  2347  0359                     u1941:	
  2348  0359  2B8F               	goto	l2380
  2349  035A                     u1940:	
  2350  035A                     l2368:	
  2351                           
  2352                           ;counter.c: 46:         display_set_setting_mode(1);
  2353  035A  3001               	movlw	1
  2354  035B  120A  158A  2489  120A  118A  	fcall	_display_set_setting_mode
  2355  0360                     l2370:	
  2356                           
  2357                           ;counter.c: 47:         buttonPressedFlag = 1;
  2358  0360  1283               	bcf	3,5	;RP0=0, select bank0
  2359  0361  1303               	bcf	3,6	;RP1=0, select bank0
  2360  0362  01CD               	clrf	_buttonPressedFlag
  2361  0363  0ACD               	incf	_buttonPressedFlag,f
  2362  0364                     l2372:	
  2363                           
  2364                           ;counter.c: 48:         if (counter - 5 > 30) {
  2365  0364  0866               	movf	_counter,w
  2366  0365  3EFB               	addlw	251
  2367  0366  00DB               	movwf	??_counter_vid_update
  2368  0367  30FF               	movlw	255
  2369  0368  1803               	skipnc
  2370  0369  3000               	movlw	0
  2371  036A  00DC               	movwf	??_counter_vid_update+1
  2372  036B  085C               	movf	??_counter_vid_update+1,w
  2373  036C  3A80               	xorlw	128
  2374  036D  00FF               	movwf	btemp+1
  2375  036E  3080               	movlw	128
  2376  036F  027F               	subwf	btemp+1,w
  2377  0370  1D03               	skipz
  2378  0371  2B74               	goto	u1955
  2379  0372  301F               	movlw	31
  2380  0373  025B               	subwf	??_counter_vid_update,w
  2381  0374                     u1955:	
  2382  0374  1C03               	skipc
  2383  0375  2B77               	goto	u1951
  2384  0376  2B78               	goto	u1950
  2385  0377                     u1951:	
  2386  0377  2B8F               	goto	l2380
  2387  0378                     u1950:	
  2388  0378                     l2374:	
  2389                           
  2390                           ;counter.c: 49:             eeprom_external_vid_write(0, counter - 5);
  2391  0378  1283               	bcf	3,5	;RP0=0, select bank0
  2392  0379  1303               	bcf	3,6	;RP1=0, select bank0
  2393  037A  0866               	movf	_counter,w
  2394  037B  3EFB               	addlw	251
  2395  037C  00DB               	movwf	??_counter_vid_update
  2396  037D  085B               	movf	??_counter_vid_update,w
  2397  037E  00D6               	movwf	eeprom_external_vid_write@data
  2398  037F  3000               	movlw	0
  2399  0380  120A  158A  2621  120A  118A  	fcall	_eeprom_external_vid_write
  2400  0385                     l2376:	
  2401                           
  2402                           ;counter.c: 50:             counter -= 5;
  2403  0385  3005               	movlw	5
  2404  0386  1283               	bcf	3,5	;RP0=0, select bank0
  2405  0387  1303               	bcf	3,6	;RP1=0, select bank0
  2406  0388  02E6               	subwf	_counter,f
  2407  0389                     l2378:	
  2408                           
  2409                           ;counter.c: 51:             ssd_vid_set_symbol(counter);
  2410  0389  0866               	movf	_counter,w
  2411  038A  120A  158A  2493  120A  118A  	fcall	_ssd_vid_set_symbol
  2412  038F                     l2380:	
  2413                           
  2414                           ;counter.c: 54:     if (dio_u8_read_pin_value(B, 2) && dio_u8_read_pin_value(B, 1))
  2415  038F  3002               	movlw	2
  2416  0390  1283               	bcf	3,5	;RP0=0, select bank0
  2417  0391  1303               	bcf	3,6	;RP1=0, select bank0
  2418  0392  00DB               	movwf	??_counter_vid_update
  2419  0393  085B               	movf	??_counter_vid_update,w
  2420  0394  00D7               	movwf	dio_u8_read_pin_value@index
  2421  0395  3001               	movlw	1
  2422  0396  120A  158A  2538  120A  118A  	fcall	_dio_u8_read_pin_value
  2423  039B  3A00               	xorlw	0
  2424  039C  1903               	skipnz
  2425  039D  2B9F               	goto	u1961
  2426  039E  2BA0               	goto	u1960
  2427  039F                     u1961:	
  2428  039F  2BB2               	goto	l35
  2429  03A0                     u1960:	
  2430  03A0                     l2382:	
  2431  03A0  1283               	bcf	3,5	;RP0=0, select bank0
  2432  03A1  1303               	bcf	3,6	;RP1=0, select bank0
  2433  03A2  01D7               	clrf	dio_u8_read_pin_value@index
  2434  03A3  0AD7               	incf	dio_u8_read_pin_value@index,f
  2435  03A4  3001               	movlw	1
  2436  03A5  120A  158A  2538  120A  118A  	fcall	_dio_u8_read_pin_value
  2437  03AA  3A00               	xorlw	0
  2438  03AB  1903               	skipnz
  2439  03AC  2BAE               	goto	u1971
  2440  03AD  2BAF               	goto	u1970
  2441  03AE                     u1971:	
  2442  03AE  2BB2               	goto	l35
  2443  03AF                     u1970:	
  2444  03AF                     l2384:	
  2445                           
  2446                           ;counter.c: 55:         buttonPressedFlag = 0;
  2447  03AF  1283               	bcf	3,5	;RP0=0, select bank0
  2448  03B0  1303               	bcf	3,6	;RP1=0, select bank0
  2449  03B1  01CD               	clrf	_buttonPressedFlag
  2450  03B2                     l35:	
  2451  03B2  0008               	return
  2452  03B3                     __end_of_counter_vid_update:	
  2453                           
  2454                           	psect	text7
  2455  03B3                     __ptext7:	
  2456 ;; *************** function _ssd_vid_update *****************
  2457 ;; Defined at:
  2458 ;;		line 30 in file "ssd.c"
  2459 ;; Parameters:    Size  Location     Type
  2460 ;;		None
  2461 ;; Auto vars:     Size  Location     Type
  2462 ;;  tens            1   16[BANK0 ] unsigned char 
  2463 ;;  ones            1   15[BANK0 ] unsigned char 
  2464 ;; Return value:  Size  Location     Type
  2465 ;;                  1    wreg      void 
  2466 ;; Registers used:
  2467 ;;		wreg, fsr0l, fsr0h, status,2, status,0, pclath, cstack
  2468 ;; Tracked objects:
  2469 ;;		On entry : 0/0
  2470 ;;		On exit  : 0/0
  2471 ;;		Unchanged: 0/0
  2472 ;; Data sizes:     COMMON   BANK0   BANK1   BANK3   BANK2
  2473 ;;      Params:         0       0       0       0       0
  2474 ;;      Locals:         0       2       0       0       0
  2475 ;;      Temps:          0       1       0       0       0
  2476 ;;      Totals:         0       3       0       0       0
  2477 ;;Total ram usage:        3 bytes
  2478 ;; Hardware stack levels used:    1
  2479 ;; Hardware stack levels required when called:    5
  2480 ;; This function calls:
  2481 ;;		___lwdiv
  2482 ;;		___lwmod
  2483 ;;		_dio_u8_read_pin_value
  2484 ;;		_dio_vid_set_pin_value
  2485 ;;		_dio_vid_set_port_value
  2486 ;;		_ssd_u8_get_code
  2487 ;; This function is called by:
  2488 ;;		_main
  2489 ;;		_sch_vid_dispatch_tasks
  2490 ;; This function uses a non-reentrant model
  2491 ;;
  2492                           
  2493                           
  2494                           ;psect for function _ssd_vid_update
  2495  03B3                     _ssd_vid_update:	
  2496  03B3                     l2432:	
  2497                           ;incstack = 0
  2498                           ; Regs used in _ssd_vid_update: [wreg-fsr0h+status,2+status,0+pclath+cstack]
  2499                           
  2500                           
  2501                           ;ssd.c: 31:     if (ssdState == 0) {
  2502  03B3  1283               	bcf	3,5	;RP0=0, select bank0
  2503  03B4  1303               	bcf	3,6	;RP1=0, select bank0
  2504  03B5  0865               	movf	_ssdState,w
  2505  03B6  1D03               	btfss	3,2
  2506  03B7  2BB9               	goto	u2051
  2507  03B8  2BBA               	goto	u2050
  2508  03B9                     u2051:	
  2509  03B9  2BD3               	goto	l2438
  2510  03BA                     u2050:	
  2511  03BA                     l2434:	
  2512                           
  2513                           ;ssd.c: 33:         dio_vid_set_pin_value(A, 2, 0);
  2514  03BA  3002               	movlw	2
  2515  03BB  00DC               	movwf	??_ssd_vid_update
  2516  03BC  085C               	movf	??_ssd_vid_update,w
  2517  03BD  00D4               	movwf	dio_vid_set_pin_value@index
  2518  03BE  01D5               	clrf	dio_vid_set_pin_value@value
  2519  03BF  3000               	movlw	0
  2520  03C0  120A  118A  2144  120A  118A  	fcall	_dio_vid_set_pin_value
  2521                           
  2522                           ;ssd.c: 34:         dio_vid_set_pin_value(A, 3, 0);
  2523  03C5  3003               	movlw	3
  2524  03C6  1283               	bcf	3,5	;RP0=0, select bank0
  2525  03C7  1303               	bcf	3,6	;RP1=0, select bank0
  2526  03C8  00DC               	movwf	??_ssd_vid_update
  2527  03C9  085C               	movf	??_ssd_vid_update,w
  2528  03CA  00D4               	movwf	dio_vid_set_pin_value@index
  2529  03CB  01D5               	clrf	dio_vid_set_pin_value@value
  2530  03CC  3000               	movlw	0
  2531  03CD  120A  118A  2144  120A  118A  	fcall	_dio_vid_set_pin_value
  2532  03D2  2C65               	goto	l385
  2533  03D3                     l2438:	
  2534                           
  2535                           ;ssd.c: 37:     u8 ones = ssdSymbol % 10;
  2536  03D3  300A               	movlw	10
  2537  03D4  00D4               	movwf	___lwmod@divisor
  2538  03D5  3000               	movlw	0
  2539  03D6  00D5               	movwf	___lwmod@divisor+1
  2540  03D7  0848               	movf	_ssdSymbol+1,w
  2541  03D8  00D7               	movwf	___lwmod@dividend+1
  2542  03D9  0847               	movf	_ssdSymbol,w
  2543  03DA  00D6               	movwf	___lwmod@dividend
  2544  03DB  120A  158A  268D  120A  118A  	fcall	___lwmod
  2545  03E0  1283               	bcf	3,5	;RP0=0, select bank0
  2546  03E1  1303               	bcf	3,6	;RP1=0, select bank0
  2547  03E2  0854               	movf	?___lwmod,w
  2548  03E3  00DC               	movwf	??_ssd_vid_update
  2549  03E4  085C               	movf	??_ssd_vid_update,w
  2550  03E5  00DD               	movwf	ssd_vid_update@ones
  2551                           
  2552                           ;ssd.c: 38:     u8 tens = ssdSymbol / 10;
  2553  03E6  300A               	movlw	10
  2554  03E7  00D4               	movwf	___lwdiv@divisor
  2555  03E8  3000               	movlw	0
  2556  03E9  00D5               	movwf	___lwdiv@divisor+1
  2557  03EA  0848               	movf	_ssdSymbol+1,w
  2558  03EB  00D7               	movwf	___lwdiv@dividend+1
  2559  03EC  0847               	movf	_ssdSymbol,w
  2560  03ED  00D6               	movwf	___lwdiv@dividend
  2561  03EE  120A  158A  26C9  120A  118A  	fcall	___lwdiv
  2562  03F3  1283               	bcf	3,5	;RP0=0, select bank0
  2563  03F4  1303               	bcf	3,6	;RP1=0, select bank0
  2564  03F5  0854               	movf	?___lwdiv,w
  2565  03F6  00DC               	movwf	??_ssd_vid_update
  2566  03F7  085C               	movf	??_ssd_vid_update,w
  2567  03F8  00DE               	movwf	ssd_vid_update@tens
  2568  03F9                     l2440:	
  2569                           
  2570                           ;ssd.c: 40:     if (dio_u8_read_pin_value(A, 3) == 1) {
  2571  03F9  3003               	movlw	3
  2572  03FA  00DC               	movwf	??_ssd_vid_update
  2573  03FB  085C               	movf	??_ssd_vid_update,w
  2574  03FC  00D7               	movwf	dio_u8_read_pin_value@index
  2575  03FD  3000               	movlw	0
  2576  03FE  120A  158A  2538  120A  118A  	fcall	_dio_u8_read_pin_value
  2577  0403  3A01               	xorlw	1
  2578  0404  1D03               	skipz
  2579  0405  2C07               	goto	u2061
  2580  0406  2C08               	goto	u2060
  2581  0407                     u2061:	
  2582  0407  2C37               	goto	l2444
  2583  0408                     u2060:	
  2584  0408                     l2442:	
  2585                           
  2586                           ;ssd.c: 41:         dio_vid_set_pin_value(A, 3, 0);
  2587  0408  3003               	movlw	3
  2588  0409  1283               	bcf	3,5	;RP0=0, select bank0
  2589  040A  1303               	bcf	3,6	;RP1=0, select bank0
  2590  040B  00DC               	movwf	??_ssd_vid_update
  2591  040C  085C               	movf	??_ssd_vid_update,w
  2592  040D  00D4               	movwf	dio_vid_set_pin_value@index
  2593  040E  01D5               	clrf	dio_vid_set_pin_value@value
  2594  040F  3000               	movlw	0
  2595  0410  120A  118A  2144  120A  118A  	fcall	_dio_vid_set_pin_value
  2596                           
  2597                           ;ssd.c: 42:         dio_vid_set_pin_value(A, 2, 1);
  2598  0415  3002               	movlw	2
  2599  0416  1283               	bcf	3,5	;RP0=0, select bank0
  2600  0417  1303               	bcf	3,6	;RP1=0, select bank0
  2601  0418  00DC               	movwf	??_ssd_vid_update
  2602  0419  085C               	movf	??_ssd_vid_update,w
  2603  041A  00D4               	movwf	dio_vid_set_pin_value@index
  2604  041B  01D5               	clrf	dio_vid_set_pin_value@value
  2605  041C  0AD5               	incf	dio_vid_set_pin_value@value,f
  2606  041D  3000               	movlw	0
  2607  041E  120A  118A  2144  120A  118A  	fcall	_dio_vid_set_pin_value
  2608                           
  2609                           ;ssd.c: 43:         dio_vid_set_port_value(D, ssd_u8_get_code(tens));
  2610  0423  1283               	bcf	3,5	;RP0=0, select bank0
  2611  0424  1303               	bcf	3,6	;RP1=0, select bank0
  2612  0425  085E               	movf	ssd_vid_update@tens,w
  2613  0426  120A  118A  27BD  120A  118A  	fcall	_ssd_u8_get_code
  2614  042B  1283               	bcf	3,5	;RP0=0, select bank0
  2615  042C  1303               	bcf	3,6	;RP1=0, select bank0
  2616  042D  00DC               	movwf	??_ssd_vid_update
  2617  042E  085C               	movf	??_ssd_vid_update,w
  2618  042F  00D7               	movwf	dio_vid_set_port_value@value
  2619  0430  3003               	movlw	3
  2620  0431  120A  158A  25F4  120A  118A  	fcall	_dio_vid_set_port_value
  2621                           
  2622                           ;ssd.c: 44:     } else {
  2623  0436  2C65               	goto	l385
  2624  0437                     l2444:	
  2625                           
  2626                           ;ssd.c: 45:         dio_vid_set_pin_value(A, 2, 0);
  2627  0437  3002               	movlw	2
  2628  0438  1283               	bcf	3,5	;RP0=0, select bank0
  2629  0439  1303               	bcf	3,6	;RP1=0, select bank0
  2630  043A  00DC               	movwf	??_ssd_vid_update
  2631  043B  085C               	movf	??_ssd_vid_update,w
  2632  043C  00D4               	movwf	dio_vid_set_pin_value@index
  2633  043D  01D5               	clrf	dio_vid_set_pin_value@value
  2634  043E  3000               	movlw	0
  2635  043F  120A  118A  2144  120A  118A  	fcall	_dio_vid_set_pin_value
  2636                           
  2637                           ;ssd.c: 46:         dio_vid_set_pin_value(A, 3, 1);
  2638  0444  3003               	movlw	3
  2639  0445  1283               	bcf	3,5	;RP0=0, select bank0
  2640  0446  1303               	bcf	3,6	;RP1=0, select bank0
  2641  0447  00DC               	movwf	??_ssd_vid_update
  2642  0448  085C               	movf	??_ssd_vid_update,w
  2643  0449  00D4               	movwf	dio_vid_set_pin_value@index
  2644  044A  01D5               	clrf	dio_vid_set_pin_value@value
  2645  044B  0AD5               	incf	dio_vid_set_pin_value@value,f
  2646  044C  3000               	movlw	0
  2647  044D  120A  118A  2144  120A  118A  	fcall	_dio_vid_set_pin_value
  2648                           
  2649                           ;ssd.c: 47:         dio_vid_set_port_value(D, ssd_u8_get_code(ones));
  2650  0452  1283               	bcf	3,5	;RP0=0, select bank0
  2651  0453  1303               	bcf	3,6	;RP1=0, select bank0
  2652  0454  085D               	movf	ssd_vid_update@ones,w
  2653  0455  120A  118A  27BD  120A  118A  	fcall	_ssd_u8_get_code
  2654  045A  1283               	bcf	3,5	;RP0=0, select bank0
  2655  045B  1303               	bcf	3,6	;RP1=0, select bank0
  2656  045C  00DC               	movwf	??_ssd_vid_update
  2657  045D  085C               	movf	??_ssd_vid_update,w
  2658  045E  00D7               	movwf	dio_vid_set_port_value@value
  2659  045F  3003               	movlw	3
  2660  0460  120A  158A  25F4  120A  118A  	fcall	_dio_vid_set_port_value
  2661  0465                     l385:	
  2662  0465  0008               	return
  2663  0466                     __end_of_ssd_vid_update:	
  2664                           
  2665                           	psect	text8
  2666  07BD                     __ptext8:	
  2667 ;; *************** function _ssd_u8_get_code *****************
  2668 ;; Defined at:
  2669 ;;		line 70 in file "ssd.c"
  2670 ;; Parameters:    Size  Location     Type
  2671 ;;  number          1    wreg     unsigned char 
  2672 ;; Auto vars:     Size  Location     Type
  2673 ;;  number          1    8[BANK0 ] unsigned char 
  2674 ;; Return value:  Size  Location     Type
  2675 ;;                  1    wreg      unsigned char 
  2676 ;; Registers used:
  2677 ;;		wreg, fsr0l, fsr0h, status,2, status,0
  2678 ;; Tracked objects:
  2679 ;;		On entry : 0/0
  2680 ;;		On exit  : 0/0
  2681 ;;		Unchanged: 0/0
  2682 ;; Data sizes:     COMMON   BANK0   BANK1   BANK3   BANK2
  2683 ;;      Params:         0       0       0       0       0
  2684 ;;      Locals:         0       1       0       0       0
  2685 ;;      Temps:          0       2       0       0       0
  2686 ;;      Totals:         0       3       0       0       0
  2687 ;;Total ram usage:        3 bytes
  2688 ;; Hardware stack levels used:    1
  2689 ;; Hardware stack levels required when called:    3
  2690 ;; This function calls:
  2691 ;;		Nothing
  2692 ;; This function is called by:
  2693 ;;		_ssd_vid_update
  2694 ;; This function uses a non-reentrant model
  2695 ;;
  2696                           
  2697                           
  2698                           ;psect for function _ssd_u8_get_code
  2699  07BD                     _ssd_u8_get_code:	
  2700                           
  2701                           ;incstack = 0
  2702                           ; Regs used in _ssd_u8_get_code: [wreg-fsr0h+status,2+status,0]
  2703                           ;ssd_u8_get_code@number stored from wreg
  2704  07BD  1283               	bcf	3,5	;RP0=0, select bank0
  2705  07BE  1303               	bcf	3,6	;RP1=0, select bank0
  2706  07BF  00D6               	movwf	ssd_u8_get_code@number
  2707  07C0                     l2180:	
  2708                           
  2709                           ;ssd.c: 71:     switch (number) {
  2710  07C0  2FD7               	goto	l2228
  2711  07C1                     l2182:	
  2712                           
  2713                           ;ssd.c: 73:             return 0x3F;
  2714  07C1  303F               	movlw	63
  2715  07C2  2FFF               	goto	l404
  2716  07C3                     l2186:	
  2717                           
  2718                           ;ssd.c: 75:             return 0x06;
  2719  07C3  3006               	movlw	6
  2720  07C4  2FFF               	goto	l404
  2721  07C5                     l2190:	
  2722                           
  2723                           ;ssd.c: 77:             return 0x5B;
  2724  07C5  305B               	movlw	91
  2725  07C6  2FFF               	goto	l404
  2726  07C7                     l2194:	
  2727                           
  2728                           ;ssd.c: 79:             return 0x4F;
  2729  07C7  304F               	movlw	79
  2730  07C8  2FFF               	goto	l404
  2731  07C9                     l2198:	
  2732                           
  2733                           ;ssd.c: 81:             return 0x66;
  2734  07C9  3066               	movlw	102
  2735  07CA  2FFF               	goto	l404
  2736  07CB                     l2202:	
  2737                           
  2738                           ;ssd.c: 83:             return 0x6D;
  2739  07CB  306D               	movlw	109
  2740  07CC  2FFF               	goto	l404
  2741  07CD                     l2206:	
  2742                           
  2743                           ;ssd.c: 85:             return 0x7D;
  2744  07CD  307D               	movlw	125
  2745  07CE  2FFF               	goto	l404
  2746  07CF                     l2210:	
  2747                           
  2748                           ;ssd.c: 87:             return 0x07;
  2749  07CF  3007               	movlw	7
  2750  07D0  2FFF               	goto	l404
  2751  07D1                     l2214:	
  2752                           
  2753                           ;ssd.c: 89:             return 0x7F;
  2754  07D1  307F               	movlw	127
  2755  07D2  2FFF               	goto	l404
  2756  07D3                     l2218:	
  2757                           
  2758                           ;ssd.c: 91:             return 0x6F;
  2759  07D3  306F               	movlw	111
  2760  07D4  2FFF               	goto	l404
  2761  07D5                     l2222:	
  2762                           
  2763                           ;ssd.c: 93:             return 0;
  2764  07D5  3000               	movlw	0
  2765  07D6  2FFF               	goto	l404
  2766  07D7                     l2228:	
  2767  07D7  0856               	movf	ssd_u8_get_code@number,w
  2768  07D8  00D4               	movwf	??_ssd_u8_get_code
  2769  07D9  01D5               	clrf	??_ssd_u8_get_code+1
  2770                           
  2771                           ; Switch on 2 bytes has been partitioned into a top level switch of size 1, and 1 sub-sw
      +                          itches
  2772                           ; Switch size 1, requested type "simple"
  2773                           ; Number of cases is 1, Range of values is 0 to 0
  2774                           ; switch strategies available:
  2775                           ; Name         Instructions Cycles
  2776                           ; simple_byte            4     3 (average)
  2777                           ; direct_byte           11     8 (fixed)
  2778                           ; jumptable            260     6 (fixed)
  2779                           ;	Chosen strategy is simple_byte
  2780  07DA  0855               	movf	??_ssd_u8_get_code+1,w
  2781  07DB  3A00               	xorlw	0	; case 0
  2782  07DC  1903               	skipnz
  2783  07DD  2FDF               	goto	l2804
  2784  07DE  2FD5               	goto	l2222
  2785  07DF                     l2804:	
  2786                           
  2787                           ; Switch size 1, requested type "simple"
  2788                           ; Number of cases is 10, Range of values is 0 to 9
  2789                           ; switch strategies available:
  2790                           ; Name         Instructions Cycles
  2791                           ; simple_byte           31    16 (average)
  2792                           ; direct_byte           38     8 (fixed)
  2793                           ; jumptable            260     6 (fixed)
  2794                           ;	Chosen strategy is simple_byte
  2795  07DF  0854               	movf	??_ssd_u8_get_code,w
  2796  07E0  3A00               	xorlw	0	; case 0
  2797  07E1  1903               	skipnz
  2798  07E2  2FC1               	goto	l2182
  2799  07E3  3A01               	xorlw	1	; case 1
  2800  07E4  1903               	skipnz
  2801  07E5  2FC3               	goto	l2186
  2802  07E6  3A03               	xorlw	3	; case 2
  2803  07E7  1903               	skipnz
  2804  07E8  2FC5               	goto	l2190
  2805  07E9  3A01               	xorlw	1	; case 3
  2806  07EA  1903               	skipnz
  2807  07EB  2FC7               	goto	l2194
  2808  07EC  3A07               	xorlw	7	; case 4
  2809  07ED  1903               	skipnz
  2810  07EE  2FC9               	goto	l2198
  2811  07EF  3A01               	xorlw	1	; case 5
  2812  07F0  1903               	skipnz
  2813  07F1  2FCB               	goto	l2202
  2814  07F2  3A03               	xorlw	3	; case 6
  2815  07F3  1903               	skipnz
  2816  07F4  2FCD               	goto	l2206
  2817  07F5  3A01               	xorlw	1	; case 7
  2818  07F6  1903               	skipnz
  2819  07F7  2FCF               	goto	l2210
  2820  07F8  3A0F               	xorlw	15	; case 8
  2821  07F9  1903               	skipnz
  2822  07FA  2FD1               	goto	l2214
  2823  07FB  3A01               	xorlw	1	; case 9
  2824  07FC  1903               	skipnz
  2825  07FD  2FD3               	goto	l2218
  2826  07FE  2FD5               	goto	l2222
  2827  07FF                     l404:	
  2828  07FF  0008               	return
  2829  0800                     __end_of_ssd_u8_get_code:	
  2830                           
  2831                           	psect	text9
  2832  0EC9                     __ptext9:	
  2833 ;; *************** function ___lwdiv *****************
  2834 ;; Defined at:
  2835 ;;		line 5 in file "C:\Program Files (x86)\Microchip\xc8\v2.10\pic\sources\c90\common\lwdiv.c"
  2836 ;; Parameters:    Size  Location     Type
  2837 ;;  divisor         2    6[BANK0 ] unsigned int 
  2838 ;;  dividend        2    8[BANK0 ] unsigned int 
  2839 ;; Auto vars:     Size  Location     Type
  2840 ;;  quotient        2   11[BANK0 ] unsigned int 
  2841 ;;  counter         1   13[BANK0 ] unsigned char 
  2842 ;; Return value:  Size  Location     Type
  2843 ;;                  2    6[BANK0 ] unsigned int 
  2844 ;; Registers used:
  2845 ;;		wreg, status,2, status,0
  2846 ;; Tracked objects:
  2847 ;;		On entry : 0/0
  2848 ;;		On exit  : 0/0
  2849 ;;		Unchanged: 0/0
  2850 ;; Data sizes:     COMMON   BANK0   BANK1   BANK3   BANK2
  2851 ;;      Params:         0       4       0       0       0
  2852 ;;      Locals:         0       3       0       0       0
  2853 ;;      Temps:          0       1       0       0       0
  2854 ;;      Totals:         0       8       0       0       0
  2855 ;;Total ram usage:        8 bytes
  2856 ;; Hardware stack levels used:    1
  2857 ;; Hardware stack levels required when called:    3
  2858 ;; This function calls:
  2859 ;;		Nothing
  2860 ;; This function is called by:
  2861 ;;		_ssd_vid_update
  2862 ;; This function uses a non-reentrant model
  2863 ;;
  2864                           
  2865                           
  2866                           ;psect for function ___lwdiv
  2867  0EC9                     ___lwdiv:	
  2868  0EC9                     l2288:	
  2869                           ;incstack = 0
  2870                           ; Regs used in ___lwdiv: [wreg+status,2+status,0]
  2871                           
  2872  0EC9  1283               	bcf	3,5	;RP0=0, select bank0
  2873  0ECA  1303               	bcf	3,6	;RP1=0, select bank0
  2874  0ECB  01D9               	clrf	___lwdiv@quotient
  2875  0ECC  01DA               	clrf	___lwdiv@quotient+1
  2876  0ECD                     l2290:	
  2877  0ECD  0854               	movf	___lwdiv@divisor,w
  2878  0ECE  0455               	iorwf	___lwdiv@divisor+1,w
  2879  0ECF  1903               	btfsc	3,2
  2880  0ED0  2ED2               	goto	u1741
  2881  0ED1  2ED3               	goto	u1740
  2882  0ED2                     u1741:	
  2883  0ED2  2F0A               	goto	l2310
  2884  0ED3                     u1740:	
  2885  0ED3                     l2292:	
  2886  0ED3  01DB               	clrf	___lwdiv@counter
  2887  0ED4  0ADB               	incf	___lwdiv@counter,f
  2888  0ED5  2EE1               	goto	l2298
  2889  0ED6                     l2294:	
  2890  0ED6  3001               	movlw	1
  2891  0ED7                     u1755:	
  2892  0ED7  1003               	clrc
  2893  0ED8  0DD4               	rlf	___lwdiv@divisor,f
  2894  0ED9  0DD5               	rlf	___lwdiv@divisor+1,f
  2895  0EDA  3EFF               	addlw	-1
  2896  0EDB  1D03               	skipz
  2897  0EDC  2ED7               	goto	u1755
  2898  0EDD                     l2296:	
  2899  0EDD  3001               	movlw	1
  2900  0EDE  00D8               	movwf	??___lwdiv
  2901  0EDF  0858               	movf	??___lwdiv,w
  2902  0EE0  07DB               	addwf	___lwdiv@counter,f
  2903  0EE1                     l2298:	
  2904  0EE1  1FD5               	btfss	___lwdiv@divisor+1,7
  2905  0EE2  2EE4               	goto	u1761
  2906  0EE3  2EE5               	goto	u1760
  2907  0EE4                     u1761:	
  2908  0EE4  2ED6               	goto	l2294
  2909  0EE5                     u1760:	
  2910  0EE5                     l2300:	
  2911  0EE5  3001               	movlw	1
  2912  0EE6                     u1775:	
  2913  0EE6  1003               	clrc
  2914  0EE7  0DD9               	rlf	___lwdiv@quotient,f
  2915  0EE8  0DDA               	rlf	___lwdiv@quotient+1,f
  2916  0EE9  3EFF               	addlw	-1
  2917  0EEA  1D03               	skipz
  2918  0EEB  2EE6               	goto	u1775
  2919  0EEC  0855               	movf	___lwdiv@divisor+1,w
  2920  0EED  0257               	subwf	___lwdiv@dividend+1,w
  2921  0EEE  1D03               	skipz
  2922  0EEF  2EF2               	goto	u1785
  2923  0EF0  0854               	movf	___lwdiv@divisor,w
  2924  0EF1  0256               	subwf	___lwdiv@dividend,w
  2925  0EF2                     u1785:	
  2926  0EF2  1C03               	skipc
  2927  0EF3  2EF5               	goto	u1781
  2928  0EF4  2EF6               	goto	u1780
  2929  0EF5                     u1781:	
  2930  0EF5  2EFD               	goto	l2306
  2931  0EF6                     u1780:	
  2932  0EF6                     l2302:	
  2933  0EF6  0854               	movf	___lwdiv@divisor,w
  2934  0EF7  02D6               	subwf	___lwdiv@dividend,f
  2935  0EF8  0855               	movf	___lwdiv@divisor+1,w
  2936  0EF9  1C03               	skipc
  2937  0EFA  03D7               	decf	___lwdiv@dividend+1,f
  2938  0EFB  02D7               	subwf	___lwdiv@dividend+1,f
  2939  0EFC                     l2304:	
  2940  0EFC  1459               	bsf	___lwdiv@quotient,0
  2941  0EFD                     l2306:	
  2942  0EFD  3001               	movlw	1
  2943  0EFE                     u1795:	
  2944  0EFE  1003               	clrc
  2945  0EFF  0CD5               	rrf	___lwdiv@divisor+1,f
  2946  0F00  0CD4               	rrf	___lwdiv@divisor,f
  2947  0F01  3EFF               	addlw	-1
  2948  0F02  1D03               	skipz
  2949  0F03  2EFE               	goto	u1795
  2950  0F04                     l2308:	
  2951  0F04  3001               	movlw	1
  2952  0F05  02DB               	subwf	___lwdiv@counter,f
  2953  0F06  1D03               	btfss	3,2
  2954  0F07  2F09               	goto	u1801
  2955  0F08  2F0A               	goto	u1800
  2956  0F09                     u1801:	
  2957  0F09  2EE5               	goto	l2300
  2958  0F0A                     u1800:	
  2959  0F0A                     l2310:	
  2960  0F0A  085A               	movf	___lwdiv@quotient+1,w
  2961  0F0B  00D5               	movwf	?___lwdiv+1
  2962  0F0C  0859               	movf	___lwdiv@quotient,w
  2963  0F0D  00D4               	movwf	?___lwdiv
  2964  0F0E                     l834:	
  2965  0F0E  0008               	return
  2966  0F0F                     __end_of___lwdiv:	
  2967                           
  2968                           	psect	text10
  2969  0583                     __ptext10:	
  2970 ;; *************** function _sch_vid_delete_task *****************
  2971 ;; Defined at:
  2972 ;;		line 89 in file "scheduler.c"
  2973 ;; Parameters:    Size  Location     Type
  2974 ;;  index           1    wreg     unsigned char 
  2975 ;; Auto vars:     Size  Location     Type
  2976 ;;  index           1   11[BANK0 ] unsigned char 
  2977 ;; Return value:  Size  Location     Type
  2978 ;;                  1    wreg      unsigned char 
  2979 ;; Registers used:
  2980 ;;		wreg, fsr0l, fsr0h, status,2, status,0, pclath, cstack
  2981 ;; Tracked objects:
  2982 ;;		On entry : 0/0
  2983 ;;		On exit  : 0/0
  2984 ;;		Unchanged: 0/0
  2985 ;; Data sizes:     COMMON   BANK0   BANK1   BANK3   BANK2
  2986 ;;      Params:         0       0       0       0       0
  2987 ;;      Locals:         0       1       0       0       0
  2988 ;;      Temps:          0       1       0       0       0
  2989 ;;      Totals:         0       2       0       0       0
  2990 ;;Total ram usage:        2 bytes
  2991 ;; Hardware stack levels used:    1
  2992 ;; Hardware stack levels required when called:    4
  2993 ;; This function calls:
  2994 ;;		___bmul
  2995 ;; This function is called by:
  2996 ;;		_sch_vid_init
  2997 ;;		_sch_vid_dispatch_tasks
  2998 ;; This function uses a non-reentrant model
  2999 ;;
  3000                           
  3001                           
  3002                           ;psect for function _sch_vid_delete_task
  3003  0583                     _sch_vid_delete_task:	
  3004                           
  3005                           ;incstack = 0
  3006                           ; Regs used in _sch_vid_delete_task: [wreg-fsr0h+status,2+status,0+pclath+cstack]
  3007                           ;sch_vid_delete_task@index stored from wreg
  3008  0583  1283               	bcf	3,5	;RP0=0, select bank0
  3009  0584  1303               	bcf	3,6	;RP1=0, select bank0
  3010  0585  00D9               	movwf	sch_vid_delete_task@index
  3011  0586                     l2408:	
  3012                           
  3013                           ;scheduler.c: 90:     if (index < 3) {
  3014  0586  3003               	movlw	3
  3015  0587  0259               	subwf	sch_vid_delete_task@index,w
  3016  0588  1803               	skipnc
  3017  0589  2D8B               	goto	u2031
  3018  058A  2D8C               	goto	u2030
  3019  058B                     u2031:	
  3020  058B  2DE8               	goto	l362
  3021  058C                     u2030:	
  3022  058C                     l2410:	
  3023                           
  3024                           ;scheduler.c: 91:         sch_tasks[index].taskFunction = 0x0000;
  3025  058C  300D               	movlw	13
  3026  058D  00D8               	movwf	??_sch_vid_delete_task
  3027  058E  0858               	movf	??_sch_vid_delete_task,w
  3028  058F  00D4               	movwf	___bmul@multiplicand
  3029  0590  0859               	movf	sch_vid_delete_task@index,w
  3030  0591  120A  158A  2508  120A  118A  	fcall	___bmul
  3031  0596  3E20               	addlw	(low (_sch_tasks| 0))& (0+255)
  3032  0597  0084               	movwf	4
  3033  0598  1383               	bcf	3,7	;select IRP bank0
  3034  0599  0180               	clrf	0
  3035                           
  3036                           ;scheduler.c: 92:         sch_tasks[index].delay = 0;
  3037  059A  300D               	movlw	13
  3038  059B  1283               	bcf	3,5	;RP0=0, select bank0
  3039  059C  1303               	bcf	3,6	;RP1=0, select bank0
  3040  059D  00D8               	movwf	??_sch_vid_delete_task
  3041  059E  0858               	movf	??_sch_vid_delete_task,w
  3042  059F  00D4               	movwf	___bmul@multiplicand
  3043  05A0  0859               	movf	sch_vid_delete_task@index,w
  3044  05A1  120A  158A  2508  120A  118A  	fcall	___bmul
  3045  05A6  3E21               	addlw	(low ((_sch_tasks| 0+1)))& (0+255)
  3046  05A7  0084               	movwf	4
  3047  05A8  3000               	movlw	0
  3048  05A9  1383               	bcf	3,7	;select IRP bank0
  3049  05AA  0080               	movwf	0
  3050  05AB  0A84               	incf	4,f
  3051  05AC  3000               	movlw	0
  3052  05AD  0080               	movwf	0
  3053  05AE  0A84               	incf	4,f
  3054  05AF  3000               	movlw	0
  3055  05B0  0080               	movwf	0
  3056  05B1  0A84               	incf	4,f
  3057  05B2  3000               	movlw	0
  3058  05B3  0080               	movwf	0
  3059                           
  3060                           ;scheduler.c: 93:         sch_tasks[index].period = 0;
  3061  05B4  300D               	movlw	13
  3062  05B5  1283               	bcf	3,5	;RP0=0, select bank0
  3063  05B6  1303               	bcf	3,6	;RP1=0, select bank0
  3064  05B7  00D8               	movwf	??_sch_vid_delete_task
  3065  05B8  0858               	movf	??_sch_vid_delete_task,w
  3066  05B9  00D4               	movwf	___bmul@multiplicand
  3067  05BA  0859               	movf	sch_vid_delete_task@index,w
  3068  05BB  120A  158A  2508  120A  118A  	fcall	___bmul
  3069  05C0  3E25               	addlw	(low ((_sch_tasks| 0+5)))& (0+255)
  3070  05C1  0084               	movwf	4
  3071  05C2  3000               	movlw	0
  3072  05C3  1383               	bcf	3,7	;select IRP bank0
  3073  05C4  0080               	movwf	0
  3074  05C5  0A84               	incf	4,f
  3075  05C6  3000               	movlw	0
  3076  05C7  0080               	movwf	0
  3077  05C8  0A84               	incf	4,f
  3078  05C9  3000               	movlw	0
  3079  05CA  0080               	movwf	0
  3080  05CB  0A84               	incf	4,f
  3081  05CC  3000               	movlw	0
  3082  05CD  0080               	movwf	0
  3083                           
  3084                           ;scheduler.c: 94:         sch_tasks[index].runMe = 0;
  3085  05CE  300D               	movlw	13
  3086  05CF  1283               	bcf	3,5	;RP0=0, select bank0
  3087  05D0  1303               	bcf	3,6	;RP1=0, select bank0
  3088  05D1  00D8               	movwf	??_sch_vid_delete_task
  3089  05D2  0858               	movf	??_sch_vid_delete_task,w
  3090  05D3  00D4               	movwf	___bmul@multiplicand
  3091  05D4  0859               	movf	sch_vid_delete_task@index,w
  3092  05D5  120A  158A  2508  120A  118A  	fcall	___bmul
  3093  05DA  3E29               	addlw	(low ((_sch_tasks| 0+9)))& (0+255)
  3094  05DB  0084               	movwf	4
  3095  05DC  3000               	movlw	0
  3096  05DD  1383               	bcf	3,7	;select IRP bank0
  3097  05DE  0080               	movwf	0
  3098  05DF  0A84               	incf	4,f
  3099  05E0  3000               	movlw	0
  3100  05E1  0080               	movwf	0
  3101  05E2  0A84               	incf	4,f
  3102  05E3  3000               	movlw	0
  3103  05E4  0080               	movwf	0
  3104  05E5  0A84               	incf	4,f
  3105  05E6  3000               	movlw	0
  3106  05E7  0080               	movwf	0
  3107  05E8                     l362:	
  3108  05E8  0008               	return
  3109  05E9                     __end_of_sch_vid_delete_task:	
  3110                           
  3111                           	psect	text11
  3112  0C52                     __ptext11:	
  3113 ;; *************** function _ssd_u8_get_state *****************
  3114 ;; Defined at:
  3115 ;;		line 61 in file "ssd.c"
  3116 ;; Parameters:    Size  Location     Type
  3117 ;;		None
  3118 ;; Auto vars:     Size  Location     Type
  3119 ;;		None
  3120 ;; Return value:  Size  Location     Type
  3121 ;;                  1    wreg      unsigned char 
  3122 ;; Registers used:
  3123 ;;		wreg
  3124 ;; Tracked objects:
  3125 ;;		On entry : 0/0
  3126 ;;		On exit  : 0/0
  3127 ;;		Unchanged: 0/0
  3128 ;; Data sizes:     COMMON   BANK0   BANK1   BANK3   BANK2
  3129 ;;      Params:         0       0       0       0       0
  3130 ;;      Locals:         0       0       0       0       0
  3131 ;;      Temps:          0       0       0       0       0
  3132 ;;      Totals:         0       0       0       0       0
  3133 ;;Total ram usage:        0 bytes
  3134 ;; Hardware stack levels used:    1
  3135 ;; Hardware stack levels required when called:    3
  3136 ;; This function calls:
  3137 ;;		Nothing
  3138 ;; This function is called by:
  3139 ;;		_display_vid_update
  3140 ;; This function uses a non-reentrant model
  3141 ;;
  3142                           
  3143                           
  3144                           ;psect for function _ssd_u8_get_state
  3145  0C52                     _ssd_u8_get_state:	
  3146  0C52                     l2176:	
  3147                           ;incstack = 0
  3148                           ; Regs used in _ssd_u8_get_state: [wreg]
  3149                           
  3150                           
  3151                           ;ssd.c: 62:     return ssdState;
  3152  0C52  1283               	bcf	3,5	;RP0=0, select bank0
  3153  0C53  1303               	bcf	3,6	;RP1=0, select bank0
  3154  0C54  0865               	movf	_ssdState,w
  3155  0C55                     l396:	
  3156  0C55  0008               	return
  3157  0C56                     __end_of_ssd_u8_get_state:	
  3158                           
  3159                           	psect	text12
  3160  0E8D                     __ptext12:	
  3161 ;; *************** function ___lwmod *****************
  3162 ;; Defined at:
  3163 ;;		line 5 in file "C:\Program Files (x86)\Microchip\xc8\v2.10\pic\sources\c90\common\lwmod.c"
  3164 ;; Parameters:    Size  Location     Type
  3165 ;;  divisor         2    6[BANK0 ] unsigned int 
  3166 ;;  dividend        2    8[BANK0 ] unsigned int 
  3167 ;; Auto vars:     Size  Location     Type
  3168 ;;  counter         1   11[BANK0 ] unsigned char 
  3169 ;; Return value:  Size  Location     Type
  3170 ;;                  2    6[BANK0 ] unsigned int 
  3171 ;; Registers used:
  3172 ;;		wreg, status,2, status,0
  3173 ;; Tracked objects:
  3174 ;;		On entry : 0/0
  3175 ;;		On exit  : 0/0
  3176 ;;		Unchanged: 0/0
  3177 ;; Data sizes:     COMMON   BANK0   BANK1   BANK3   BANK2
  3178 ;;      Params:         0       4       0       0       0
  3179 ;;      Locals:         0       1       0       0       0
  3180 ;;      Temps:          0       1       0       0       0
  3181 ;;      Totals:         0       6       0       0       0
  3182 ;;Total ram usage:        6 bytes
  3183 ;; Hardware stack levels used:    1
  3184 ;; Hardware stack levels required when called:    3
  3185 ;; This function calls:
  3186 ;;		Nothing
  3187 ;; This function is called by:
  3188 ;;		_display_vid_update
  3189 ;;		_ssd_vid_update
  3190 ;; This function uses a non-reentrant model
  3191 ;;
  3192                           
  3193                           
  3194                           ;psect for function ___lwmod
  3195  0E8D                     ___lwmod:	
  3196  0E8D                     l2314:	
  3197                           ;incstack = 0
  3198                           ; Regs used in ___lwmod: [wreg+status,2+status,0]
  3199                           
  3200  0E8D  1283               	bcf	3,5	;RP0=0, select bank0
  3201  0E8E  1303               	bcf	3,6	;RP1=0, select bank0
  3202  0E8F  0854               	movf	___lwmod@divisor,w
  3203  0E90  0455               	iorwf	___lwmod@divisor+1,w
  3204  0E91  1903               	btfsc	3,2
  3205  0E92  2E94               	goto	u1811
  3206  0E93  2E95               	goto	u1810
  3207  0E94                     u1811:	
  3208  0E94  2EC4               	goto	l2332
  3209  0E95                     u1810:	
  3210  0E95                     l2316:	
  3211  0E95  01D9               	clrf	___lwmod@counter
  3212  0E96  0AD9               	incf	___lwmod@counter,f
  3213  0E97  2EA3               	goto	l2322
  3214  0E98                     l2318:	
  3215  0E98  3001               	movlw	1
  3216  0E99                     u1825:	
  3217  0E99  1003               	clrc
  3218  0E9A  0DD4               	rlf	___lwmod@divisor,f
  3219  0E9B  0DD5               	rlf	___lwmod@divisor+1,f
  3220  0E9C  3EFF               	addlw	-1
  3221  0E9D  1D03               	skipz
  3222  0E9E  2E99               	goto	u1825
  3223  0E9F                     l2320:	
  3224  0E9F  3001               	movlw	1
  3225  0EA0  00D8               	movwf	??___lwmod
  3226  0EA1  0858               	movf	??___lwmod,w
  3227  0EA2  07D9               	addwf	___lwmod@counter,f
  3228  0EA3                     l2322:	
  3229  0EA3  1FD5               	btfss	___lwmod@divisor+1,7
  3230  0EA4  2EA6               	goto	u1831
  3231  0EA5  2EA7               	goto	u1830
  3232  0EA6                     u1831:	
  3233  0EA6  2E98               	goto	l2318
  3234  0EA7                     u1830:	
  3235  0EA7                     l2324:	
  3236  0EA7  0855               	movf	___lwmod@divisor+1,w
  3237  0EA8  0257               	subwf	___lwmod@dividend+1,w
  3238  0EA9  1D03               	skipz
  3239  0EAA  2EAD               	goto	u1845
  3240  0EAB  0854               	movf	___lwmod@divisor,w
  3241  0EAC  0256               	subwf	___lwmod@dividend,w
  3242  0EAD                     u1845:	
  3243  0EAD  1C03               	skipc
  3244  0EAE  2EB0               	goto	u1841
  3245  0EAF  2EB1               	goto	u1840
  3246  0EB0                     u1841:	
  3247  0EB0  2EB7               	goto	l2328
  3248  0EB1                     u1840:	
  3249  0EB1                     l2326:	
  3250  0EB1  0854               	movf	___lwmod@divisor,w
  3251  0EB2  02D6               	subwf	___lwmod@dividend,f
  3252  0EB3  0855               	movf	___lwmod@divisor+1,w
  3253  0EB4  1C03               	skipc
  3254  0EB5  03D7               	decf	___lwmod@dividend+1,f
  3255  0EB6  02D7               	subwf	___lwmod@dividend+1,f
  3256  0EB7                     l2328:	
  3257  0EB7  3001               	movlw	1
  3258  0EB8                     u1855:	
  3259  0EB8  1003               	clrc
  3260  0EB9  0CD5               	rrf	___lwmod@divisor+1,f
  3261  0EBA  0CD4               	rrf	___lwmod@divisor,f
  3262  0EBB  3EFF               	addlw	-1
  3263  0EBC  1D03               	skipz
  3264  0EBD  2EB8               	goto	u1855
  3265  0EBE                     l2330:	
  3266  0EBE  3001               	movlw	1
  3267  0EBF  02D9               	subwf	___lwmod@counter,f
  3268  0EC0  1D03               	btfss	3,2
  3269  0EC1  2EC3               	goto	u1861
  3270  0EC2  2EC4               	goto	u1860
  3271  0EC3                     u1861:	
  3272  0EC3  2EA7               	goto	l2324
  3273  0EC4                     u1860:	
  3274  0EC4                     l2332:	
  3275  0EC4  0857               	movf	___lwmod@dividend+1,w
  3276  0EC5  00D5               	movwf	?___lwmod+1
  3277  0EC6  0856               	movf	___lwmod@dividend,w
  3278  0EC7  00D4               	movwf	?___lwmod
  3279  0EC8                     l844:	
  3280  0EC8  0008               	return
  3281  0EC9                     __end_of___lwmod:	
  3282                           
  3283                           	psect	text13
  3284  0E21                     __ptext13:	
  3285 ;; *************** function _eeprom_external_vid_write *****************
  3286 ;; Defined at:
  3287 ;;		line 11 in file "eeprom_external.c"
  3288 ;; Parameters:    Size  Location     Type
  3289 ;;  address         1    wreg     unsigned char 
  3290 ;;  data            1    8[BANK0 ] unsigned char 
  3291 ;; Auto vars:     Size  Location     Type
  3292 ;;  address         1    9[BANK0 ] unsigned char 
  3293 ;; Return value:  Size  Location     Type
  3294 ;;                  1    wreg      void 
  3295 ;; Registers used:
  3296 ;;		wreg, status,2, status,0, pclath, cstack
  3297 ;; Tracked objects:
  3298 ;;		On entry : 0/0
  3299 ;;		On exit  : 0/0
  3300 ;;		Unchanged: 0/0
  3301 ;; Data sizes:     COMMON   BANK0   BANK1   BANK3   BANK2
  3302 ;;      Params:         0       1       0       0       0
  3303 ;;      Locals:         0       1       0       0       0
  3304 ;;      Temps:          0       0       0       0       0
  3305 ;;      Totals:         0       2       0       0       0
  3306 ;;Total ram usage:        2 bytes
  3307 ;; Hardware stack levels used:    1
  3308 ;; Hardware stack levels required when called:    5
  3309 ;; This function calls:
  3310 ;;		_i2c_u8_master_write_byte
  3311 ;;		_i2c_u8_master_write_slave_address_with_write_req
  3312 ;;		_i2c_vid_restart
  3313 ;;		_i2c_vid_start
  3314 ;;		_i2c_vid_stop
  3315 ;; This function is called by:
  3316 ;;		_counter_vid_update
  3317 ;; This function uses a non-reentrant model
  3318 ;;
  3319                           
  3320                           
  3321                           ;psect for function _eeprom_external_vid_write
  3322  0E21                     _eeprom_external_vid_write:	
  3323                           
  3324                           ;incstack = 0
  3325                           ; Regs used in _eeprom_external_vid_write: [wreg+status,2+status,0+pclath+cstack]
  3326                           ;eeprom_external_vid_write@address stored from wreg
  3327  0E21  1283               	bcf	3,5	;RP0=0, select bank0
  3328  0E22  1303               	bcf	3,6	;RP1=0, select bank0
  3329  0E23  00D7               	movwf	eeprom_external_vid_write@address
  3330  0E24                     l2066:	
  3331                           
  3332                           ;eeprom_external.c: 12:     i2c_vid_start();
  3333  0E24  120A  158A  2477  120A  158A  	fcall	_i2c_vid_start
  3334                           
  3335                           ;eeprom_external.c: 13:     while(i2c_u8_master_write_slave_address_with_write_req(0x50)
      +                          )
  3336  0E29  2E2F               	goto	l199
  3337  0E2A                     l2068:	
  3338                           
  3339                           ;eeprom_external.c: 14:     i2c_vid_restart();
  3340  0E2A  120A  158A  246E  120A  158A  	fcall	_i2c_vid_restart
  3341  0E2F                     l199:	
  3342                           
  3343                           ;eeprom_external.c: 13:     while(i2c_u8_master_write_slave_address_with_write_req(0x50)
      +                          )
  3344  0E2F  3050               	movlw	80
  3345  0E30  120A  158A  251F  120A  158A  	fcall	_i2c_u8_master_write_slave_address_with_write_req
  3346  0E35  3A00               	xorlw	0
  3347  0E36  1D03               	skipz
  3348  0E37  2E39               	goto	u1421
  3349  0E38  2E3A               	goto	u1420
  3350  0E39                     u1421:	
  3351  0E39  2E2A               	goto	l2068
  3352  0E3A                     u1420:	
  3353  0E3A                     l2070:	
  3354                           
  3355                           ;eeprom_external.c: 15:     i2c_u8_master_write_byte(address >> 8);
  3356  0E3A  3000               	movlw	0
  3357  0E3B  120A  158A  24B7  120A  158A  	fcall	_i2c_u8_master_write_byte
  3358                           
  3359                           ;eeprom_external.c: 16:     i2c_u8_master_write_byte((u8) address);
  3360  0E40  1283               	bcf	3,5	;RP0=0, select bank0
  3361  0E41  1303               	bcf	3,6	;RP1=0, select bank0
  3362  0E42  0857               	movf	eeprom_external_vid_write@address,w
  3363  0E43  120A  158A  24B7  120A  158A  	fcall	_i2c_u8_master_write_byte
  3364                           
  3365                           ;eeprom_external.c: 17:     i2c_u8_master_write_byte(data);
  3366  0E48  1283               	bcf	3,5	;RP0=0, select bank0
  3367  0E49  1303               	bcf	3,6	;RP1=0, select bank0
  3368  0E4A  0856               	movf	eeprom_external_vid_write@data,w
  3369  0E4B  120A  158A  24B7  120A  158A  	fcall	_i2c_u8_master_write_byte
  3370                           
  3371                           ;eeprom_external.c: 18:     i2c_vid_stop();
  3372  0E50  120A  158A  2480  120A  158A  	fcall	_i2c_vid_stop
  3373  0E55                     l202:	
  3374  0E55  0008               	return
  3375  0E56                     __end_of_eeprom_external_vid_write:	
  3376                           
  3377                           	psect	text14
  3378  0C89                     __ptext14:	
  3379 ;; *************** function _display_set_setting_mode *****************
  3380 ;; Defined at:
  3381 ;;		line 65 in file "display.c"
  3382 ;; Parameters:    Size  Location     Type
  3383 ;;  mode            1    wreg     unsigned char 
  3384 ;; Auto vars:     Size  Location     Type
  3385 ;;  mode            1    7[BANK0 ] unsigned char 
  3386 ;; Return value:  Size  Location     Type
  3387 ;;                  1    wreg      void 
  3388 ;; Registers used:
  3389 ;;		wreg, status,2
  3390 ;; Tracked objects:
  3391 ;;		On entry : 0/0
  3392 ;;		On exit  : 0/0
  3393 ;;		Unchanged: 0/0
  3394 ;; Data sizes:     COMMON   BANK0   BANK1   BANK3   BANK2
  3395 ;;      Params:         0       0       0       0       0
  3396 ;;      Locals:         0       1       0       0       0
  3397 ;;      Temps:          0       1       0       0       0
  3398 ;;      Totals:         0       2       0       0       0
  3399 ;;Total ram usage:        2 bytes
  3400 ;; Hardware stack levels used:    1
  3401 ;; Hardware stack levels required when called:    3
  3402 ;; This function calls:
  3403 ;;		Nothing
  3404 ;; This function is called by:
  3405 ;;		_counter_vid_update
  3406 ;; This function uses a non-reentrant model
  3407 ;;
  3408                           
  3409                           
  3410                           ;psect for function _display_set_setting_mode
  3411  0C89                     _display_set_setting_mode:	
  3412                           
  3413                           ;incstack = 0
  3414                           ; Regs used in _display_set_setting_mode: [wreg+status,2]
  3415                           ;display_set_setting_mode@mode stored from wreg
  3416  0C89  1283               	bcf	3,5	;RP0=0, select bank0
  3417  0C8A  1303               	bcf	3,6	;RP1=0, select bank0
  3418  0C8B  00D5               	movwf	display_set_setting_mode@mode
  3419  0C8C                     l2062:	
  3420                           
  3421                           ;display.c: 66:     settingModeFlag = mode;
  3422  0C8C  0855               	movf	display_set_setting_mode@mode,w
  3423  0C8D  00D4               	movwf	??_display_set_setting_mode
  3424  0C8E  0854               	movf	??_display_set_setting_mode,w
  3425  0C8F  00CC               	movwf	_settingModeFlag
  3426  0C90                     l2064:	
  3427                           
  3428                           ;display.c: 67:     settingModeCounter = 0;
  3429  0C90  01C9               	clrf	_settingModeCounter
  3430  0C91  01CA               	clrf	_settingModeCounter+1
  3431  0C92                     l180:	
  3432  0C92  0008               	return
  3433  0C93                     __end_of_display_set_setting_mode:	
  3434                           
  3435                           	psect	text15
  3436  0D38                     __ptext15:	
  3437 ;; *************** function _dio_u8_read_pin_value *****************
  3438 ;; Defined at:
  3439 ;;		line 75 in file "dio.c"
  3440 ;; Parameters:    Size  Location     Type
  3441 ;;  portNumber      1    wreg     unsigned char 
  3442 ;;  index           1    9[BANK0 ] unsigned char 
  3443 ;; Auto vars:     Size  Location     Type
  3444 ;;  portNumber      1   11[BANK0 ] unsigned char 
  3445 ;;  port            1   12[BANK0 ] unsigned char 
  3446 ;; Return value:  Size  Location     Type
  3447 ;;                  1    wreg      unsigned char 
  3448 ;; Registers used:
  3449 ;;		wreg, fsr0l, fsr0h, status,2, status,0, pclath, cstack
  3450 ;; Tracked objects:
  3451 ;;		On entry : 0/0
  3452 ;;		On exit  : 0/0
  3453 ;;		Unchanged: 0/0
  3454 ;; Data sizes:     COMMON   BANK0   BANK1   BANK3   BANK2
  3455 ;;      Params:         0       1       0       0       0
  3456 ;;      Locals:         0       2       0       0       0
  3457 ;;      Temps:          0       1       0       0       0
  3458 ;;      Totals:         0       4       0       0       0
  3459 ;;Total ram usage:        4 bytes
  3460 ;; Hardware stack levels used:    1
  3461 ;; Hardware stack levels required when called:    4
  3462 ;; This function calls:
  3463 ;;		_dio_u8_read_port_value
  3464 ;; This function is called by:
  3465 ;;		_counter_vid_update
  3466 ;;		_ssd_vid_update
  3467 ;; This function uses a non-reentrant model
  3468 ;;
  3469                           
  3470                           
  3471                           ;psect for function _dio_u8_read_pin_value
  3472  0D38                     _dio_u8_read_pin_value:	
  3473                           
  3474                           ;incstack = 0
  3475                           ; Regs used in _dio_u8_read_pin_value: [wreg-fsr0h+status,2+status,0+pclath+cstack]
  3476                           ;dio_u8_read_pin_value@portNumber stored from wreg
  3477  0D38  1283               	bcf	3,5	;RP0=0, select bank0
  3478  0D39  1303               	bcf	3,6	;RP1=0, select bank0
  3479  0D3A  00D9               	movwf	dio_u8_read_pin_value@portNumber
  3480  0D3B                     l2056:	
  3481                           
  3482                           ;dio.c: 76:  u8 port = dio_u8_read_port_value(portNumber);
  3483  0D3B  0859               	movf	dio_u8_read_pin_value@portNumber,w
  3484  0D3C  120A  158A  2576  120A  158A  	fcall	_dio_u8_read_port_value
  3485  0D41  1283               	bcf	3,5	;RP0=0, select bank0
  3486  0D42  1303               	bcf	3,6	;RP1=0, select bank0
  3487  0D43  00D8               	movwf	??_dio_u8_read_pin_value
  3488  0D44  0858               	movf	??_dio_u8_read_pin_value,w
  3489  0D45  00DA               	movwf	dio_u8_read_pin_value@port
  3490  0D46                     l2058:	
  3491                           
  3492                           ;dio.c: 77:  return ((port>>index)&1);
  3493  0D46  085A               	movf	dio_u8_read_pin_value@port,w
  3494  0D47  00D8               	movwf	??_dio_u8_read_pin_value
  3495  0D48  0A57               	incf	dio_u8_read_pin_value@index,w
  3496  0D49  2D4C               	goto	u1414
  3497  0D4A                     u1415:	
  3498  0D4A  1003               	clrc
  3499  0D4B  0CD8               	rrf	??_dio_u8_read_pin_value,f
  3500  0D4C                     u1414:	
  3501  0D4C  3EFF               	addlw	-1
  3502  0D4D  1D03               	skipz
  3503  0D4E  2D4A               	goto	u1415
  3504  0D4F  0858               	movf	??_dio_u8_read_pin_value,w
  3505  0D50  3901               	andlw	1
  3506  0D51                     l91:	
  3507  0D51  0008               	return
  3508  0D52                     __end_of_dio_u8_read_pin_value:	
  3509                           
  3510                           	psect	text16
  3511  0D76                     __ptext16:	
  3512 ;; *************** function _dio_u8_read_port_value *****************
  3513 ;; Defined at:
  3514 ;;		line 53 in file "dio.c"
  3515 ;; Parameters:    Size  Location     Type
  3516 ;;  portNumber      1    wreg     unsigned char 
  3517 ;; Auto vars:     Size  Location     Type
  3518 ;;  portNumber      1    8[BANK0 ] unsigned char 
  3519 ;; Return value:  Size  Location     Type
  3520 ;;                  1    wreg      unsigned char 
  3521 ;; Registers used:
  3522 ;;		wreg, fsr0l, fsr0h, status,2, status,0
  3523 ;; Tracked objects:
  3524 ;;		On entry : 0/0
  3525 ;;		On exit  : 0/0
  3526 ;;		Unchanged: 0/0
  3527 ;; Data sizes:     COMMON   BANK0   BANK1   BANK3   BANK2
  3528 ;;      Params:         0       0       0       0       0
  3529 ;;      Locals:         0       1       0       0       0
  3530 ;;      Temps:          0       2       0       0       0
  3531 ;;      Totals:         0       3       0       0       0
  3532 ;;Total ram usage:        3 bytes
  3533 ;; Hardware stack levels used:    1
  3534 ;; Hardware stack levels required when called:    3
  3535 ;; This function calls:
  3536 ;;		Nothing
  3537 ;; This function is called by:
  3538 ;;		_dio_u8_read_pin_value
  3539 ;; This function uses a non-reentrant model
  3540 ;;
  3541                           
  3542                           
  3543                           ;psect for function _dio_u8_read_port_value
  3544  0D76                     _dio_u8_read_port_value:	
  3545                           
  3546                           ;incstack = 0
  3547                           ; Regs used in _dio_u8_read_port_value: [wreg-fsr0h+status,2+status,0]
  3548                           ;dio_u8_read_port_value@portNumber stored from wreg
  3549  0D76  1283               	bcf	3,5	;RP0=0, select bank0
  3550  0D77  1303               	bcf	3,6	;RP1=0, select bank0
  3551  0D78  00D6               	movwf	dio_u8_read_port_value@portNumber
  3552  0D79                     l1904:	
  3553                           
  3554                           ;dio.c: 54:  switch (portNumber) {
  3555  0D79  2D84               	goto	l1938
  3556  0D7A                     l1906:	
  3557                           
  3558                           ;dio.c: 56:   return PORTA;
  3559  0D7A  0805               	movf	5,w	;volatile
  3560  0D7B  2D9E               	goto	l83
  3561  0D7C                     l1912:	
  3562                           
  3563                           ;dio.c: 59:   return PORTB;
  3564  0D7C  0806               	movf	6,w	;volatile
  3565  0D7D  2D9E               	goto	l83
  3566  0D7E                     l1918:	
  3567                           
  3568                           ;dio.c: 62:   return PORTC;
  3569  0D7E  0807               	movf	7,w	;volatile
  3570  0D7F  2D9E               	goto	l83
  3571  0D80                     l1924:	
  3572                           
  3573                           ;dio.c: 65:   return PORTD;
  3574  0D80  0808               	movf	8,w	;volatile
  3575  0D81  2D9E               	goto	l83
  3576  0D82                     l1930:	
  3577                           
  3578                           ;dio.c: 68:   return PORTE;
  3579  0D82  0809               	movf	9,w	;volatile
  3580  0D83  2D9E               	goto	l83
  3581  0D84                     l1938:	
  3582  0D84  0856               	movf	dio_u8_read_port_value@portNumber,w
  3583  0D85  00D4               	movwf	??_dio_u8_read_port_value
  3584  0D86  01D5               	clrf	??_dio_u8_read_port_value+1
  3585                           
  3586                           ; Switch on 2 bytes has been partitioned into a top level switch of size 1, and 1 sub-sw
      +                          itches
  3587                           ; Switch size 1, requested type "simple"
  3588                           ; Number of cases is 1, Range of values is 0 to 0
  3589                           ; switch strategies available:
  3590                           ; Name         Instructions Cycles
  3591                           ; simple_byte            4     3 (average)
  3592                           ; direct_byte           11     8 (fixed)
  3593                           ; jumptable            260     6 (fixed)
  3594                           ;	Chosen strategy is simple_byte
  3595  0D87  0855               	movf	??_dio_u8_read_port_value+1,w
  3596  0D88  3A00               	xorlw	0	; case 0
  3597  0D89  1903               	skipnz
  3598  0D8A  2D8C               	goto	l2806
  3599  0D8B  2D9D               	goto	l1940
  3600  0D8C                     l2806:	
  3601                           
  3602                           ; Switch size 1, requested type "simple"
  3603                           ; Number of cases is 5, Range of values is 0 to 4
  3604                           ; switch strategies available:
  3605                           ; Name         Instructions Cycles
  3606                           ; simple_byte           16     9 (average)
  3607                           ; direct_byte           23     8 (fixed)
  3608                           ; jumptable            260     6 (fixed)
  3609                           ;	Chosen strategy is simple_byte
  3610  0D8C  0854               	movf	??_dio_u8_read_port_value,w
  3611  0D8D  3A00               	xorlw	0	; case 0
  3612  0D8E  1903               	skipnz
  3613  0D8F  2D7A               	goto	l1906
  3614  0D90  3A01               	xorlw	1	; case 1
  3615  0D91  1903               	skipnz
  3616  0D92  2D7C               	goto	l1912
  3617  0D93  3A03               	xorlw	3	; case 2
  3618  0D94  1903               	skipnz
  3619  0D95  2D7E               	goto	l1918
  3620  0D96  3A01               	xorlw	1	; case 3
  3621  0D97  1903               	skipnz
  3622  0D98  2D80               	goto	l1924
  3623  0D99  3A07               	xorlw	7	; case 4
  3624  0D9A  1903               	skipnz
  3625  0D9B  2D82               	goto	l1930
  3626  0D9C  2D9D               	goto	l1940
  3627  0D9D                     l1940:	
  3628                           
  3629                           ;dio.c: 71:  return 0;
  3630  0D9D  3000               	movlw	0
  3631  0D9E                     l83:	
  3632  0D9E  0008               	return
  3633  0D9F                     __end_of_dio_u8_read_port_value:	
  3634                           
  3635                           	psect	text17
  3636  04F7                     __ptext17:	
  3637 ;; *************** function _sch_u8_add_task *****************
  3638 ;; Defined at:
  3639 ;;		line 49 in file "scheduler.c"
  3640 ;; Parameters:    Size  Location     Type
  3641 ;;  taskFunction    1    wreg     PTR FTN()void 
  3642 ;;		 -> ssd_vid_update(1), display_vid_update(1), counter_vid_update(1), 
  3643 ;;  delay           4   10[BANK0 ] const unsigned long 
  3644 ;;  period          4   14[BANK0 ] const unsigned long 
  3645 ;; Auto vars:     Size  Location     Type
  3646 ;;  taskFunction    1   20[BANK0 ] PTR FTN()void 
  3647 ;;		 -> ssd_vid_update(1), display_vid_update(1), counter_vid_update(1), 
  3648 ;;  index           1   21[BANK0 ] unsigned char 
  3649 ;; Return value:  Size  Location     Type
  3650 ;;                  1    wreg      unsigned char 
  3651 ;; Registers used:
  3652 ;;		wreg, fsr0l, fsr0h, status,2, status,0, pclath, cstack
  3653 ;; Tracked objects:
  3654 ;;		On entry : 0/0
  3655 ;;		On exit  : 0/0
  3656 ;;		Unchanged: 0/0
  3657 ;; Data sizes:     COMMON   BANK0   BANK1   BANK3   BANK2
  3658 ;;      Params:         0       8       0       0       0
  3659 ;;      Locals:         0       2       0       0       0
  3660 ;;      Temps:          0       2       0       0       0
  3661 ;;      Totals:         0      12       0       0       0
  3662 ;;Total ram usage:       12 bytes
  3663 ;; Hardware stack levels used:    1
  3664 ;; Hardware stack levels required when called:    4
  3665 ;; This function calls:
  3666 ;;		___bmul
  3667 ;; This function is called by:
  3668 ;;		_main
  3669 ;; This function uses a non-reentrant model
  3670 ;;
  3671                           
  3672                           
  3673                           ;psect for function _sch_u8_add_task
  3674  04F7                     _sch_u8_add_task:	
  3675                           
  3676                           ;incstack = 0
  3677                           ; Regs used in _sch_u8_add_task: [wreg-fsr0h+status,2+status,0+pclath+cstack]
  3678                           ;sch_u8_add_task@taskFunction stored from wreg
  3679  04F7  1283               	bcf	3,5	;RP0=0, select bank0
  3680  04F8  1303               	bcf	3,6	;RP1=0, select bank0
  3681  04F9  00E2               	movwf	sch_u8_add_task@taskFunction
  3682  04FA                     l2500:	
  3683                           
  3684                           ;scheduler.c: 49: u8 sch_u8_add_task(void ( * taskFunction)(),;scheduler.c: 50:         
      +                          const u64 delay,;scheduler.c: 51:         const u64 period) {;scheduler.c: 52:     u8 in
      +                          dex = 0;
  3685  04FA  01E3               	clrf	sch_u8_add_task@index
  3686                           
  3687                           ;scheduler.c: 55:     while ((sch_tasks[index].taskFunction != 0) && (index < 3)) {
  3688  04FB  2D00               	goto	l2504
  3689  04FC                     l2502:	
  3690                           
  3691                           ;scheduler.c: 56:         index++;
  3692  04FC  3001               	movlw	1
  3693  04FD  00E0               	movwf	??_sch_u8_add_task
  3694  04FE  0860               	movf	??_sch_u8_add_task,w
  3695  04FF  07E3               	addwf	sch_u8_add_task@index,f
  3696  0500                     l2504:	
  3697                           
  3698                           ;scheduler.c: 55:     while ((sch_tasks[index].taskFunction != 0) && (index < 3)) {
  3699  0500  300D               	movlw	13
  3700  0501  00E0               	movwf	??_sch_u8_add_task
  3701  0502  0860               	movf	??_sch_u8_add_task,w
  3702  0503  00D4               	movwf	___bmul@multiplicand
  3703  0504  0863               	movf	sch_u8_add_task@index,w
  3704  0505  120A  158A  2508  120A  118A  	fcall	___bmul
  3705  050A  3E20               	addlw	(low (_sch_tasks| 0))& (0+255)
  3706  050B  0084               	movwf	4
  3707  050C  1383               	bcf	3,7	;select IRP bank0
  3708  050D  0800               	movf	0,w
  3709  050E  1903               	btfsc	3,2
  3710  050F  2D11               	goto	u2101
  3711  0510  2D12               	goto	u2100
  3712  0511                     u2101:	
  3713  0511  2D1A               	goto	l2508
  3714  0512                     u2100:	
  3715  0512                     l2506:	
  3716  0512  3003               	movlw	3
  3717  0513  1283               	bcf	3,5	;RP0=0, select bank0
  3718  0514  1303               	bcf	3,6	;RP1=0, select bank0
  3719  0515  0263               	subwf	sch_u8_add_task@index,w
  3720  0516  1C03               	skipc
  3721  0517  2D19               	goto	u2111
  3722  0518  2D1A               	goto	u2110
  3723  0519                     u2111:	
  3724  0519  2CFC               	goto	l2502
  3725  051A                     u2110:	
  3726  051A                     l2508:	
  3727                           
  3728                           ;scheduler.c: 60:     if (index == 3) {
  3729  051A  3003               	movlw	3
  3730  051B  1283               	bcf	3,5	;RP0=0, select bank0
  3731  051C  1303               	bcf	3,6	;RP1=0, select bank0
  3732  051D  0663               	xorwf	sch_u8_add_task@index,w
  3733  051E  1D03               	btfss	3,2
  3734  051F  2D21               	goto	u2121
  3735  0520  2D22               	goto	u2120
  3736  0521                     u2121:	
  3737  0521  2D23               	goto	l2512
  3738  0522                     u2120:	
  3739  0522  2D82               	goto	l351
  3740  0523                     l2512:	
  3741                           
  3742                           ;scheduler.c: 66:     sch_tasks[index].taskFunction = taskFunction;
  3743  0523  0862               	movf	sch_u8_add_task@taskFunction,w
  3744  0524  00E0               	movwf	??_sch_u8_add_task
  3745  0525  300D               	movlw	13
  3746  0526  00E1               	movwf	??_sch_u8_add_task+1
  3747  0527  0861               	movf	??_sch_u8_add_task+1,w
  3748  0528  00D4               	movwf	___bmul@multiplicand
  3749  0529  0863               	movf	sch_u8_add_task@index,w
  3750  052A  120A  158A  2508  120A  118A  	fcall	___bmul
  3751  052F  3E20               	addlw	(low (_sch_tasks| 0))& (0+255)
  3752  0530  0084               	movwf	4
  3753  0531  1283               	bcf	3,5	;RP0=0, select bank0
  3754  0532  1303               	bcf	3,6	;RP1=0, select bank0
  3755  0533  0860               	movf	??_sch_u8_add_task,w
  3756  0534  1383               	bcf	3,7	;select IRP bank0
  3757  0535  0080               	movwf	0
  3758                           
  3759                           ;scheduler.c: 67:     sch_tasks[index].delay = delay;
  3760  0536  300D               	movlw	13
  3761  0537  00E0               	movwf	??_sch_u8_add_task
  3762  0538  0860               	movf	??_sch_u8_add_task,w
  3763  0539  00D4               	movwf	___bmul@multiplicand
  3764  053A  0863               	movf	sch_u8_add_task@index,w
  3765  053B  120A  158A  2508  120A  118A  	fcall	___bmul
  3766  0540  3E21               	addlw	(low ((_sch_tasks| 0+1)))& (0+255)
  3767  0541  0084               	movwf	4
  3768  0542  1283               	bcf	3,5	;RP0=0, select bank0
  3769  0543  1303               	bcf	3,6	;RP1=0, select bank0
  3770  0544  0858               	movf	sch_u8_add_task@delay,w
  3771  0545  1383               	bcf	3,7	;select IRP bank0
  3772  0546  0080               	movwf	0
  3773  0547  0A84               	incf	4,f
  3774  0548  0859               	movf	sch_u8_add_task@delay+1,w
  3775  0549  0080               	movwf	0
  3776  054A  0A84               	incf	4,f
  3777  054B  085A               	movf	sch_u8_add_task@delay+2,w
  3778  054C  0080               	movwf	0
  3779  054D  0A84               	incf	4,f
  3780  054E  085B               	movf	sch_u8_add_task@delay+3,w
  3781  054F  0080               	movwf	0
  3782                           
  3783                           ;scheduler.c: 68:     sch_tasks[index].period = period;
  3784  0550  300D               	movlw	13
  3785  0551  00E0               	movwf	??_sch_u8_add_task
  3786  0552  0860               	movf	??_sch_u8_add_task,w
  3787  0553  00D4               	movwf	___bmul@multiplicand
  3788  0554  0863               	movf	sch_u8_add_task@index,w
  3789  0555  120A  158A  2508  120A  118A  	fcall	___bmul
  3790  055A  3E25               	addlw	(low ((_sch_tasks| 0+5)))& (0+255)
  3791  055B  0084               	movwf	4
  3792  055C  1283               	bcf	3,5	;RP0=0, select bank0
  3793  055D  1303               	bcf	3,6	;RP1=0, select bank0
  3794  055E  085C               	movf	sch_u8_add_task@period,w
  3795  055F  1383               	bcf	3,7	;select IRP bank0
  3796  0560  0080               	movwf	0
  3797  0561  0A84               	incf	4,f
  3798  0562  085D               	movf	sch_u8_add_task@period+1,w
  3799  0563  0080               	movwf	0
  3800  0564  0A84               	incf	4,f
  3801  0565  085E               	movf	sch_u8_add_task@period+2,w
  3802  0566  0080               	movwf	0
  3803  0567  0A84               	incf	4,f
  3804  0568  085F               	movf	sch_u8_add_task@period+3,w
  3805  0569  0080               	movwf	0
  3806                           
  3807                           ;scheduler.c: 69:     sch_tasks[index].runMe = 0;
  3808  056A  300D               	movlw	13
  3809  056B  00E0               	movwf	??_sch_u8_add_task
  3810  056C  0860               	movf	??_sch_u8_add_task,w
  3811  056D  00D4               	movwf	___bmul@multiplicand
  3812  056E  0863               	movf	sch_u8_add_task@index,w
  3813  056F  120A  158A  2508  120A  118A  	fcall	___bmul
  3814  0574  3E29               	addlw	(low ((_sch_tasks| 0+9)))& (0+255)
  3815  0575  0084               	movwf	4
  3816  0576  3000               	movlw	0
  3817  0577  1383               	bcf	3,7	;select IRP bank0
  3818  0578  0080               	movwf	0
  3819  0579  0A84               	incf	4,f
  3820  057A  3000               	movlw	0
  3821  057B  0080               	movwf	0
  3822  057C  0A84               	incf	4,f
  3823  057D  3000               	movlw	0
  3824  057E  0080               	movwf	0
  3825  057F  0A84               	incf	4,f
  3826  0580  3000               	movlw	0
  3827  0581  0080               	movwf	0
  3828  0582                     l351:	
  3829  0582  0008               	return
  3830  0583                     __end_of_sch_u8_add_task:	
  3831                           
  3832                           	psect	text18
  3833  0D08                     __ptext18:	
  3834 ;; *************** function ___bmul *****************
  3835 ;; Defined at:
  3836 ;;		line 4 in file "C:\Program Files (x86)\Microchip\xc8\v2.10\pic\sources\c90\common\Umul8.c"
  3837 ;; Parameters:    Size  Location     Type
  3838 ;;  multiplier      1    wreg     unsigned char 
  3839 ;;  multiplicand    1    6[BANK0 ] unsigned char 
  3840 ;; Auto vars:     Size  Location     Type
  3841 ;;  multiplier      1    9[BANK0 ] unsigned char 
  3842 ;;  product         1    8[BANK0 ] unsigned char 
  3843 ;; Return value:  Size  Location     Type
  3844 ;;                  1    wreg      unsigned char 
  3845 ;; Registers used:
  3846 ;;		wreg, status,2, status,0
  3847 ;; Tracked objects:
  3848 ;;		On entry : 0/0
  3849 ;;		On exit  : 0/0
  3850 ;;		Unchanged: 0/0
  3851 ;; Data sizes:     COMMON   BANK0   BANK1   BANK3   BANK2
  3852 ;;      Params:         0       1       0       0       0
  3853 ;;      Locals:         0       2       0       0       0
  3854 ;;      Temps:          0       1       0       0       0
  3855 ;;      Totals:         0       4       0       0       0
  3856 ;;Total ram usage:        4 bytes
  3857 ;; Hardware stack levels used:    1
  3858 ;; Hardware stack levels required when called:    3
  3859 ;; This function calls:
  3860 ;;		Nothing
  3861 ;; This function is called by:
  3862 ;;		_sch_update
  3863 ;;		_sch_u8_add_task
  3864 ;;		_sch_vid_dispatch_tasks
  3865 ;;		_sch_vid_delete_task
  3866 ;; This function uses a non-reentrant model
  3867 ;;
  3868                           
  3869                           
  3870                           ;psect for function ___bmul
  3871  0D08                     ___bmul:	
  3872                           
  3873                           ;incstack = 0
  3874                           ; Regs used in ___bmul: [wreg+status,2+status,0]
  3875                           ;___bmul@multiplier stored from wreg
  3876  0D08  1283               	bcf	3,5	;RP0=0, select bank0
  3877  0D09  1303               	bcf	3,6	;RP1=0, select bank0
  3878  0D0A  00D7               	movwf	___bmul@multiplier
  3879  0D0B                     l2236:	
  3880  0D0B  01D6               	clrf	___bmul@product
  3881  0D0C                     l2238:	
  3882  0D0C  1C57               	btfss	___bmul@multiplier,0
  3883  0D0D  2D0F               	goto	u1631
  3884  0D0E  2D10               	goto	u1630
  3885  0D0F                     u1631:	
  3886  0D0F  2D14               	goto	l2242
  3887  0D10                     u1630:	
  3888  0D10                     l2240:	
  3889  0D10  0854               	movf	___bmul@multiplicand,w
  3890  0D11  00D5               	movwf	??___bmul
  3891  0D12  0855               	movf	??___bmul,w
  3892  0D13  07D6               	addwf	___bmul@product,f
  3893  0D14                     l2242:	
  3894  0D14  1003               	clrc
  3895  0D15  0DD4               	rlf	___bmul@multiplicand,f
  3896  0D16                     l2244:	
  3897  0D16  1003               	clrc
  3898  0D17  0CD7               	rrf	___bmul@multiplier,f
  3899  0D18  0857               	movf	___bmul@multiplier,w
  3900  0D19  1D03               	btfss	3,2
  3901  0D1A  2D1C               	goto	u1641
  3902  0D1B  2D1D               	goto	u1640
  3903  0D1C                     u1641:	
  3904  0D1C  2D0C               	goto	l2238
  3905  0D1D                     u1640:	
  3906  0D1D                     l2246:	
  3907  0D1D  0856               	movf	___bmul@product,w
  3908  0D1E                     l588:	
  3909  0D1E  0008               	return
  3910  0D1F                     __end_of___bmul:	
  3911                           
  3912                           	psect	text19
  3913  0DC8                     __ptext19:	
  3914 ;; *************** function _i2c_vid_master_init *****************
  3915 ;; Defined at:
  3916 ;;		line 16 in file "i2c.c"
  3917 ;; Parameters:    Size  Location     Type
  3918 ;;		None
  3919 ;; Auto vars:     Size  Location     Type
  3920 ;;		None
  3921 ;; Return value:  Size  Location     Type
  3922 ;;                  1    wreg      void 
  3923 ;; Registers used:
  3924 ;;		wreg, fsr0l, fsr0h, status,2, status,0, pclath, cstack
  3925 ;; Tracked objects:
  3926 ;;		On entry : 0/0
  3927 ;;		On exit  : 0/0
  3928 ;;		Unchanged: 0/0
  3929 ;; Data sizes:     COMMON   BANK0   BANK1   BANK3   BANK2
  3930 ;;      Params:         0       0       0       0       0
  3931 ;;      Locals:         0       0       0       0       0
  3932 ;;      Temps:          0       1       0       0       0
  3933 ;;      Totals:         0       1       0       0       0
  3934 ;;Total ram usage:        1 bytes
  3935 ;; Hardware stack levels used:    1
  3936 ;; Hardware stack levels required when called:    4
  3937 ;; This function calls:
  3938 ;;		_dio_vid_set_pin_direction
  3939 ;; This function is called by:
  3940 ;;		_main
  3941 ;; This function uses a non-reentrant model
  3942 ;;
  3943                           
  3944                           
  3945                           ;psect for function _i2c_vid_master_init
  3946  0DC8                     _i2c_vid_master_init:	
  3947  0DC8                     l2466:	
  3948                           ;incstack = 0
  3949                           ; Regs used in _i2c_vid_master_init: [wreg-fsr0h+status,2+status,0+pclath+cstack]
  3950                           
  3951                           
  3952                           ;i2c.c: 18:     dio_vid_set_pin_direction(C, 3, 0x01);
  3953  0DC8  3003               	movlw	3
  3954  0DC9  1283               	bcf	3,5	;RP0=0, select bank0
  3955  0DCA  1303               	bcf	3,6	;RP1=0, select bank0
  3956  0DCB  00D9               	movwf	??_i2c_vid_master_init
  3957  0DCC  0859               	movf	??_i2c_vid_master_init,w
  3958  0DCD  00D4               	movwf	dio_vid_set_pin_direction@index
  3959  0DCE  01D5               	clrf	dio_vid_set_pin_direction@direction
  3960  0DCF  0AD5               	incf	dio_vid_set_pin_direction@direction,f
  3961  0DD0  3002               	movlw	2
  3962  0DD1  120A  118A  204F  120A  158A  	fcall	_dio_vid_set_pin_direction
  3963                           
  3964                           ;i2c.c: 19:     dio_vid_set_pin_direction(C, 4, 0x01);
  3965  0DD6  3004               	movlw	4
  3966  0DD7  1283               	bcf	3,5	;RP0=0, select bank0
  3967  0DD8  1303               	bcf	3,6	;RP1=0, select bank0
  3968  0DD9  00D9               	movwf	??_i2c_vid_master_init
  3969  0DDA  0859               	movf	??_i2c_vid_master_init,w
  3970  0DDB  00D4               	movwf	dio_vid_set_pin_direction@index
  3971  0DDC  01D5               	clrf	dio_vid_set_pin_direction@direction
  3972  0DDD  0AD5               	incf	dio_vid_set_pin_direction@direction,f
  3973  0DDE  3002               	movlw	2
  3974  0DDF  120A  118A  204F  120A  158A  	fcall	_dio_vid_set_pin_direction
  3975  0DE4                     l2468:	
  3976                           
  3977                           ;i2c.c: 21:     SSPCON2 = 0x00;
  3978  0DE4  1683               	bsf	3,5	;RP0=1, select bank1
  3979  0DE5  1303               	bcf	3,6	;RP1=0, select bank1
  3980  0DE6  0191               	clrf	17	;volatile
  3981  0DE7                     l2470:	
  3982                           
  3983                           ;i2c.c: 22:     SSPSTAT = 0x00;
  3984  0DE7  0194               	clrf	20	;volatile
  3985  0DE8                     l2472:	
  3986                           
  3987                           ;i2c.c: 25:     SSPEN = 1;
  3988  0DE8  1283               	bcf	3,5	;RP0=0, select bank0
  3989  0DE9  1303               	bcf	3,6	;RP1=0, select bank0
  3990  0DEA  1694               	bsf	20,5	;volatile
  3991  0DEB                     l2474:	
  3992                           
  3993                           ;i2c.c: 28:     SSPM3 = 1;
  3994  0DEB  1594               	bsf	20,3	;volatile
  3995  0DEC                     l2476:	
  3996                           
  3997                           ;i2c.c: 29:     SSPM2 = 0;
  3998  0DEC  1114               	bcf	20,2	;volatile
  3999  0DED                     l2478:	
  4000                           
  4001                           ;i2c.c: 30:     SSPM1 = 0;
  4002  0DED  1094               	bcf	20,1	;volatile
  4003  0DEE                     l2480:	
  4004                           
  4005                           ;i2c.c: 31:     SSPM0 = 0;
  4006  0DEE  1014               	bcf	20,0	;volatile
  4007  0DEF                     l2482:	
  4008                           
  4009                           ;i2c.c: 34:     SSPADD = ((8000000 / 4) / 9600) - 1;
  4010  0DEF  30CF               	movlw	207
  4011  0DF0  1683               	bsf	3,5	;RP0=1, select bank1
  4012  0DF1  1303               	bcf	3,6	;RP1=0, select bank1
  4013  0DF2  0093               	movwf	19	;volatile
  4014  0DF3                     l249:	
  4015  0DF3  0008               	return
  4016  0DF4                     __end_of_i2c_vid_master_init:	
  4017                           
  4018                           	psect	text20
  4019  0FA7                     __ptext20:	
  4020 ;; *************** function _display_init *****************
  4021 ;; Defined at:
  4022 ;;		line 22 in file "display.c"
  4023 ;; Parameters:    Size  Location     Type
  4024 ;;		None
  4025 ;; Auto vars:     Size  Location     Type
  4026 ;;		None
  4027 ;; Return value:  Size  Location     Type
  4028 ;;                  1    wreg      void 
  4029 ;; Registers used:
  4030 ;;		wreg, fsr0l, fsr0h, status,2, status,0, pclath, cstack
  4031 ;; Tracked objects:
  4032 ;;		On entry : 0/0
  4033 ;;		On exit  : 0/0
  4034 ;;		Unchanged: 0/0
  4035 ;; Data sizes:     COMMON   BANK0   BANK1   BANK3   BANK2
  4036 ;;      Params:         0       0       0       0       0
  4037 ;;      Locals:         0       0       0       0       0
  4038 ;;      Temps:          0       1       0       0       0
  4039 ;;      Totals:         0       1       0       0       0
  4040 ;;Total ram usage:        1 bytes
  4041 ;; Hardware stack levels used:    1
  4042 ;; Hardware stack levels required when called:    7
  4043 ;; This function calls:
  4044 ;;		_counter_u8_get_counter
  4045 ;;		_counter_vid_init
  4046 ;;		_dio_vid_set_pin_direction
  4047 ;;		_dio_vid_set_pin_value
  4048 ;;		_dio_vid_set_port_value
  4049 ;;		_ssd_vid_init
  4050 ;;		_ssd_vid_set_state
  4051 ;;		_ssd_vid_set_symbol
  4052 ;; This function is called by:
  4053 ;;		_main
  4054 ;; This function uses a non-reentrant model
  4055 ;;
  4056                           
  4057                           
  4058                           ;psect for function _display_init
  4059  0FA7                     _display_init:	
  4060  0FA7                     l2460:	
  4061                           ;incstack = 0
  4062                           ; Regs used in _display_init: [wreg-fsr0h+status,2+status,0+pclath+cstack]
  4063                           
  4064                           
  4065                           ;display.c: 23:     counter_vid_init();
  4066  0FA7  120A  158A  2759  120A  158A  	fcall	_counter_vid_init
  4067  0FAC                     l2462:	
  4068                           
  4069                           ;display.c: 25:     ssd_vid_set_state(1);
  4070  0FAC  3001               	movlw	1
  4071  0FAD  120A  158A  2456  120A  158A  	fcall	_ssd_vid_set_state
  4072  0FB2                     l2464:	
  4073                           
  4074                           ;display.c: 26:     ssd_vid_set_symbol(counter_u8_get_counter());
  4075  0FB2  120A  158A  244E  120A  158A  	fcall	_counter_u8_get_counter
  4076  0FB7  120A  158A  2493  120A  158A  	fcall	_ssd_vid_set_symbol
  4077                           
  4078                           ;display.c: 27:     dio_vid_set_port_value(B, 0x00);
  4079  0FBC  1283               	bcf	3,5	;RP0=0, select bank0
  4080  0FBD  1303               	bcf	3,6	;RP1=0, select bank0
  4081  0FBE  01D7               	clrf	dio_vid_set_port_value@value
  4082  0FBF  3001               	movlw	1
  4083  0FC0  120A  158A  25F4  120A  158A  	fcall	_dio_vid_set_port_value
  4084                           
  4085                           ;display.c: 29:     ssd_vid_init();
  4086  0FC5  120A  158A  2552  120A  158A  	fcall	_ssd_vid_init
  4087                           
  4088                           ;display.c: 31:     dio_vid_set_pin_direction(B, 3, 0x00);
  4089  0FCA  3003               	movlw	3
  4090  0FCB  1283               	bcf	3,5	;RP0=0, select bank0
  4091  0FCC  1303               	bcf	3,6	;RP1=0, select bank0
  4092  0FCD  00DD               	movwf	??_display_init
  4093  0FCE  085D               	movf	??_display_init,w
  4094  0FCF  00D4               	movwf	dio_vid_set_pin_direction@index
  4095  0FD0  01D5               	clrf	dio_vid_set_pin_direction@direction
  4096  0FD1  3001               	movlw	1
  4097  0FD2  120A  118A  204F  120A  158A  	fcall	_dio_vid_set_pin_direction
  4098                           
  4099                           ;display.c: 32:     dio_vid_set_pin_direction(B, 4, 0x00);
  4100  0FD7  3004               	movlw	4
  4101  0FD8  1283               	bcf	3,5	;RP0=0, select bank0
  4102  0FD9  1303               	bcf	3,6	;RP1=0, select bank0
  4103  0FDA  00DD               	movwf	??_display_init
  4104  0FDB  085D               	movf	??_display_init,w
  4105  0FDC  00D4               	movwf	dio_vid_set_pin_direction@index
  4106  0FDD  01D5               	clrf	dio_vid_set_pin_direction@direction
  4107  0FDE  3001               	movlw	1
  4108  0FDF  120A  118A  204F  120A  158A  	fcall	_dio_vid_set_pin_direction
  4109                           
  4110                           ;display.c: 33:     dio_vid_set_pin_direction(B, 5, 0x00);
  4111  0FE4  3005               	movlw	5
  4112  0FE5  1283               	bcf	3,5	;RP0=0, select bank0
  4113  0FE6  1303               	bcf	3,6	;RP1=0, select bank0
  4114  0FE7  00DD               	movwf	??_display_init
  4115  0FE8  085D               	movf	??_display_init,w
  4116  0FE9  00D4               	movwf	dio_vid_set_pin_direction@index
  4117  0FEA  01D5               	clrf	dio_vid_set_pin_direction@direction
  4118  0FEB  3001               	movlw	1
  4119  0FEC  120A  118A  204F  120A  158A  	fcall	_dio_vid_set_pin_direction
  4120                           
  4121                           ;display.c: 34:     dio_vid_set_pin_value(B, 5, 0x01);
  4122  0FF1  3005               	movlw	5
  4123  0FF2  1283               	bcf	3,5	;RP0=0, select bank0
  4124  0FF3  1303               	bcf	3,6	;RP1=0, select bank0
  4125  0FF4  00DD               	movwf	??_display_init
  4126  0FF5  085D               	movf	??_display_init,w
  4127  0FF6  00D4               	movwf	dio_vid_set_pin_value@index
  4128  0FF7  01D5               	clrf	dio_vid_set_pin_value@value
  4129  0FF8  0AD5               	incf	dio_vid_set_pin_value@value,f
  4130  0FF9  3001               	movlw	1
  4131  0FFA  120A  118A  2144  120A  158A  	fcall	_dio_vid_set_pin_value
  4132  0FFF                     l168:	
  4133  0FFF  0008               	return
  4134  1000                     __end_of_display_init:	
  4135                           
  4136                           	psect	text21
  4137  0C93                     __ptext21:	
  4138 ;; *************** function _ssd_vid_set_symbol *****************
  4139 ;; Defined at:
  4140 ;;		line 57 in file "ssd.c"
  4141 ;; Parameters:    Size  Location     Type
  4142 ;;  symbol          1    wreg     unsigned char 
  4143 ;; Auto vars:     Size  Location     Type
  4144 ;;  symbol          1    8[BANK0 ] unsigned char 
  4145 ;; Return value:  Size  Location     Type
  4146 ;;                  1    wreg      void 
  4147 ;; Registers used:
  4148 ;;		wreg
  4149 ;; Tracked objects:
  4150 ;;		On entry : 0/0
  4151 ;;		On exit  : 0/0
  4152 ;;		Unchanged: 0/0
  4153 ;; Data sizes:     COMMON   BANK0   BANK1   BANK3   BANK2
  4154 ;;      Params:         0       0       0       0       0
  4155 ;;      Locals:         0       1       0       0       0
  4156 ;;      Temps:          0       2       0       0       0
  4157 ;;      Totals:         0       3       0       0       0
  4158 ;;Total ram usage:        3 bytes
  4159 ;; Hardware stack levels used:    1
  4160 ;; Hardware stack levels required when called:    3
  4161 ;; This function calls:
  4162 ;;		Nothing
  4163 ;; This function is called by:
  4164 ;;		_counter_vid_update
  4165 ;;		_display_init
  4166 ;;		_display_vid_update
  4167 ;; This function uses a non-reentrant model
  4168 ;;
  4169                           
  4170                           
  4171                           ;psect for function _ssd_vid_set_symbol
  4172  0C93                     _ssd_vid_set_symbol:	
  4173                           
  4174                           ;incstack = 0
  4175                           ; Regs used in _ssd_vid_set_symbol: [wreg]
  4176                           ;ssd_vid_set_symbol@symbol stored from wreg
  4177  0C93  1283               	bcf	3,5	;RP0=0, select bank0
  4178  0C94  1303               	bcf	3,6	;RP1=0, select bank0
  4179  0C95  00D6               	movwf	ssd_vid_set_symbol@symbol
  4180  0C96                     l2072:	
  4181                           
  4182                           ;ssd.c: 58:     ssdSymbol = symbol;
  4183  0C96  0856               	movf	ssd_vid_set_symbol@symbol,w
  4184  0C97  00D4               	movwf	??_ssd_vid_set_symbol
  4185  0C98  01D5               	clrf	??_ssd_vid_set_symbol+1
  4186  0C99  0854               	movf	??_ssd_vid_set_symbol,w
  4187  0C9A  00C7               	movwf	_ssdSymbol
  4188  0C9B  0855               	movf	??_ssd_vid_set_symbol+1,w
  4189  0C9C  00C8               	movwf	_ssdSymbol+1
  4190  0C9D                     l393:	
  4191  0C9D  0008               	return
  4192  0C9E                     __end_of_ssd_vid_set_symbol:	
  4193                           
  4194                           	psect	text22
  4195  0C56                     __ptext22:	
  4196 ;; *************** function _ssd_vid_set_state *****************
  4197 ;; Defined at:
  4198 ;;		line 65 in file "ssd.c"
  4199 ;; Parameters:    Size  Location     Type
  4200 ;;  state           1    wreg     unsigned char 
  4201 ;; Auto vars:     Size  Location     Type
  4202 ;;  state           1    7[BANK0 ] unsigned char 
  4203 ;; Return value:  Size  Location     Type
  4204 ;;                  1    wreg      void 
  4205 ;; Registers used:
  4206 ;;		wreg
  4207 ;; Tracked objects:
  4208 ;;		On entry : 0/0
  4209 ;;		On exit  : 0/0
  4210 ;;		Unchanged: 0/0
  4211 ;; Data sizes:     COMMON   BANK0   BANK1   BANK3   BANK2
  4212 ;;      Params:         0       0       0       0       0
  4213 ;;      Locals:         0       1       0       0       0
  4214 ;;      Temps:          0       1       0       0       0
  4215 ;;      Totals:         0       2       0       0       0
  4216 ;;Total ram usage:        2 bytes
  4217 ;; Hardware stack levels used:    1
  4218 ;; Hardware stack levels required when called:    3
  4219 ;; This function calls:
  4220 ;;		Nothing
  4221 ;; This function is called by:
  4222 ;;		_display_init
  4223 ;;		_display_vid_update
  4224 ;; This function uses a non-reentrant model
  4225 ;;
  4226                           
  4227                           
  4228                           ;psect for function _ssd_vid_set_state
  4229  0C56                     _ssd_vid_set_state:	
  4230                           
  4231                           ;incstack = 0
  4232                           ; Regs used in _ssd_vid_set_state: [wreg]
  4233                           ;ssd_vid_set_state@state stored from wreg
  4234  0C56  1283               	bcf	3,5	;RP0=0, select bank0
  4235  0C57  1303               	bcf	3,6	;RP1=0, select bank0
  4236  0C58  00D5               	movwf	ssd_vid_set_state@state
  4237  0C59                     l2174:	
  4238                           
  4239                           ;ssd.c: 66:     ssdState = state;
  4240  0C59  0855               	movf	ssd_vid_set_state@state,w
  4241  0C5A  00D4               	movwf	??_ssd_vid_set_state
  4242  0C5B  0854               	movf	??_ssd_vid_set_state,w
  4243  0C5C  00E5               	movwf	_ssdState
  4244  0C5D                     l399:	
  4245  0C5D  0008               	return
  4246  0C5E                     __end_of_ssd_vid_set_state:	
  4247                           
  4248                           	psect	text23
  4249  0D52                     __ptext23:	
  4250 ;; *************** function _ssd_vid_init *****************
  4251 ;; Defined at:
  4252 ;;		line 24 in file "ssd.c"
  4253 ;; Parameters:    Size  Location     Type
  4254 ;;		None
  4255 ;; Auto vars:     Size  Location     Type
  4256 ;;		None
  4257 ;; Return value:  Size  Location     Type
  4258 ;;                  1    wreg      void 
  4259 ;; Registers used:
  4260 ;;		wreg, fsr0l, fsr0h, status,2, status,0, pclath, cstack
  4261 ;; Tracked objects:
  4262 ;;		On entry : 0/0
  4263 ;;		On exit  : 0/0
  4264 ;;		Unchanged: 0/0
  4265 ;; Data sizes:     COMMON   BANK0   BANK1   BANK3   BANK2
  4266 ;;      Params:         0       0       0       0       0
  4267 ;;      Locals:         0       0       0       0       0
  4268 ;;      Temps:          0       1       0       0       0
  4269 ;;      Totals:         0       1       0       0       0
  4270 ;;Total ram usage:        1 bytes
  4271 ;; Hardware stack levels used:    1
  4272 ;; Hardware stack levels required when called:    4
  4273 ;; This function calls:
  4274 ;;		_dio_vid_set_pin_direction
  4275 ;;		_dio_vid_set_port_direction
  4276 ;; This function is called by:
  4277 ;;		_display_init
  4278 ;; This function uses a non-reentrant model
  4279 ;;
  4280                           
  4281                           
  4282                           ;psect for function _ssd_vid_init
  4283  0D52                     _ssd_vid_init:	
  4284  0D52                     l2386:	
  4285                           ;incstack = 0
  4286                           ; Regs used in _ssd_vid_init: [wreg-fsr0h+status,2+status,0+pclath+cstack]
  4287                           
  4288                           
  4289                           ;ssd.c: 25:     dio_vid_set_port_direction(D, 0);
  4290  0D52  1283               	bcf	3,5	;RP0=0, select bank0
  4291  0D53  1303               	bcf	3,6	;RP1=0, select bank0
  4292  0D54  01D4               	clrf	dio_vid_set_port_direction@direction
  4293  0D55  3003               	movlw	3
  4294  0D56  120A  158A  2656  120A  158A  	fcall	_dio_vid_set_port_direction
  4295                           
  4296                           ;ssd.c: 26:     dio_vid_set_pin_direction(A, 2, 0);
  4297  0D5B  3002               	movlw	2
  4298  0D5C  1283               	bcf	3,5	;RP0=0, select bank0
  4299  0D5D  1303               	bcf	3,6	;RP1=0, select bank0
  4300  0D5E  00D9               	movwf	??_ssd_vid_init
  4301  0D5F  0859               	movf	??_ssd_vid_init,w
  4302  0D60  00D4               	movwf	dio_vid_set_pin_direction@index
  4303  0D61  01D5               	clrf	dio_vid_set_pin_direction@direction
  4304  0D62  3000               	movlw	0
  4305  0D63  120A  118A  204F  120A  158A  	fcall	_dio_vid_set_pin_direction
  4306                           
  4307                           ;ssd.c: 27:     dio_vid_set_pin_direction(A, 3, 0);
  4308  0D68  3003               	movlw	3
  4309  0D69  1283               	bcf	3,5	;RP0=0, select bank0
  4310  0D6A  1303               	bcf	3,6	;RP1=0, select bank0
  4311  0D6B  00D9               	movwf	??_ssd_vid_init
  4312  0D6C  0859               	movf	??_ssd_vid_init,w
  4313  0D6D  00D4               	movwf	dio_vid_set_pin_direction@index
  4314  0D6E  01D5               	clrf	dio_vid_set_pin_direction@direction
  4315  0D6F  3000               	movlw	0
  4316  0D70  120A  118A  204F  120A  158A  	fcall	_dio_vid_set_pin_direction
  4317  0D75                     l381:	
  4318  0D75  0008               	return
  4319  0D76                     __end_of_ssd_vid_init:	
  4320                           
  4321                           	psect	text24
  4322  0E56                     __ptext24:	
  4323 ;; *************** function _dio_vid_set_port_direction *****************
  4324 ;; Defined at:
  4325 ;;		line 12 in file "dio.c"
  4326 ;; Parameters:    Size  Location     Type
  4327 ;;  portNumber      1    wreg     unsigned char 
  4328 ;;  direction       1    6[BANK0 ] unsigned char 
  4329 ;; Auto vars:     Size  Location     Type
  4330 ;;  portNumber      1    9[BANK0 ] unsigned char 
  4331 ;; Return value:  Size  Location     Type
  4332 ;;                  1    wreg      void 
  4333 ;; Registers used:
  4334 ;;		wreg, fsr0l, fsr0h, status,2, status,0
  4335 ;; Tracked objects:
  4336 ;;		On entry : 0/0
  4337 ;;		On exit  : 0/0
  4338 ;;		Unchanged: 0/0
  4339 ;; Data sizes:     COMMON   BANK0   BANK1   BANK3   BANK2
  4340 ;;      Params:         0       1       0       0       0
  4341 ;;      Locals:         0       1       0       0       0
  4342 ;;      Temps:          0       2       0       0       0
  4343 ;;      Totals:         0       4       0       0       0
  4344 ;;Total ram usage:        4 bytes
  4345 ;; Hardware stack levels used:    1
  4346 ;; Hardware stack levels required when called:    3
  4347 ;; This function calls:
  4348 ;;		Nothing
  4349 ;; This function is called by:
  4350 ;;		_ssd_vid_init
  4351 ;; This function uses a non-reentrant model
  4352 ;;
  4353                           
  4354                           
  4355                           ;psect for function _dio_vid_set_port_direction
  4356  0E56                     _dio_vid_set_port_direction:	
  4357                           
  4358                           ;incstack = 0
  4359                           ; Regs used in _dio_vid_set_port_direction: [wreg-fsr0h+status,2+status,0]
  4360                           ;dio_vid_set_port_direction@portNumber stored from wreg
  4361  0E56  1283               	bcf	3,5	;RP0=0, select bank0
  4362  0E57  1303               	bcf	3,6	;RP1=0, select bank0
  4363  0E58  00D7               	movwf	dio_vid_set_port_direction@portNumber
  4364  0E59                     l2078:	
  4365                           
  4366                           ;dio.c: 13:  switch (portNumber) {
  4367  0E59  2E73               	goto	l2092
  4368  0E5A                     l2080:	
  4369                           
  4370                           ;dio.c: 15:   TRISA = direction;
  4371  0E5A  0854               	movf	dio_vid_set_port_direction@direction,w
  4372  0E5B  1683               	bsf	3,5	;RP0=1, select bank1
  4373  0E5C  1303               	bcf	3,6	;RP1=0, select bank1
  4374  0E5D  0085               	movwf	5	;volatile
  4375                           
  4376                           ;dio.c: 16:   break;
  4377  0E5E  2E8C               	goto	l68
  4378  0E5F                     l2082:	
  4379                           
  4380                           ;dio.c: 18:   TRISB = direction;
  4381  0E5F  0854               	movf	dio_vid_set_port_direction@direction,w
  4382  0E60  1683               	bsf	3,5	;RP0=1, select bank1
  4383  0E61  1303               	bcf	3,6	;RP1=0, select bank1
  4384  0E62  0086               	movwf	6	;volatile
  4385                           
  4386                           ;dio.c: 19:   break;
  4387  0E63  2E8C               	goto	l68
  4388  0E64                     l2084:	
  4389                           
  4390                           ;dio.c: 21:   TRISC = direction;
  4391  0E64  0854               	movf	dio_vid_set_port_direction@direction,w
  4392  0E65  1683               	bsf	3,5	;RP0=1, select bank1
  4393  0E66  1303               	bcf	3,6	;RP1=0, select bank1
  4394  0E67  0087               	movwf	7	;volatile
  4395                           
  4396                           ;dio.c: 22:   break;
  4397  0E68  2E8C               	goto	l68
  4398  0E69                     l2086:	
  4399                           
  4400                           ;dio.c: 24:   TRISD = direction;
  4401  0E69  0854               	movf	dio_vid_set_port_direction@direction,w
  4402  0E6A  1683               	bsf	3,5	;RP0=1, select bank1
  4403  0E6B  1303               	bcf	3,6	;RP1=0, select bank1
  4404  0E6C  0088               	movwf	8	;volatile
  4405                           
  4406                           ;dio.c: 25:   break;
  4407  0E6D  2E8C               	goto	l68
  4408  0E6E                     l2088:	
  4409                           
  4410                           ;dio.c: 27:   TRISE = direction;
  4411  0E6E  0854               	movf	dio_vid_set_port_direction@direction,w
  4412  0E6F  1683               	bsf	3,5	;RP0=1, select bank1
  4413  0E70  1303               	bcf	3,6	;RP1=0, select bank1
  4414  0E71  0089               	movwf	9	;volatile
  4415                           
  4416                           ;dio.c: 28:   break;
  4417  0E72  2E8C               	goto	l68
  4418  0E73                     l2092:	
  4419  0E73  0857               	movf	dio_vid_set_port_direction@portNumber,w
  4420  0E74  00D5               	movwf	??_dio_vid_set_port_direction
  4421  0E75  01D6               	clrf	??_dio_vid_set_port_direction+1
  4422                           
  4423                           ; Switch on 2 bytes has been partitioned into a top level switch of size 1, and 1 sub-sw
      +                          itches
  4424                           ; Switch size 1, requested type "simple"
  4425                           ; Number of cases is 1, Range of values is 0 to 0
  4426                           ; switch strategies available:
  4427                           ; Name         Instructions Cycles
  4428                           ; simple_byte            4     3 (average)
  4429                           ; direct_byte           11     8 (fixed)
  4430                           ; jumptable            260     6 (fixed)
  4431                           ;	Chosen strategy is simple_byte
  4432  0E76  0856               	movf	??_dio_vid_set_port_direction+1,w
  4433  0E77  3A00               	xorlw	0	; case 0
  4434  0E78  1903               	skipnz
  4435  0E79  2E7B               	goto	l2808
  4436  0E7A  2E8C               	goto	l68
  4437  0E7B                     l2808:	
  4438                           
  4439                           ; Switch size 1, requested type "simple"
  4440                           ; Number of cases is 5, Range of values is 0 to 4
  4441                           ; switch strategies available:
  4442                           ; Name         Instructions Cycles
  4443                           ; simple_byte           16     9 (average)
  4444                           ; direct_byte           23     8 (fixed)
  4445                           ; jumptable            260     6 (fixed)
  4446                           ;	Chosen strategy is simple_byte
  4447  0E7B  0855               	movf	??_dio_vid_set_port_direction,w
  4448  0E7C  3A00               	xorlw	0	; case 0
  4449  0E7D  1903               	skipnz
  4450  0E7E  2E5A               	goto	l2080
  4451  0E7F  3A01               	xorlw	1	; case 1
  4452  0E80  1903               	skipnz
  4453  0E81  2E5F               	goto	l2082
  4454  0E82  3A03               	xorlw	3	; case 2
  4455  0E83  1903               	skipnz
  4456  0E84  2E64               	goto	l2084
  4457  0E85  3A01               	xorlw	1	; case 3
  4458  0E86  1903               	skipnz
  4459  0E87  2E69               	goto	l2086
  4460  0E88  3A07               	xorlw	7	; case 4
  4461  0E89  1903               	skipnz
  4462  0E8A  2E6E               	goto	l2088
  4463  0E8B  2E8C               	goto	l68
  4464  0E8C                     l68:	
  4465  0E8C  0008               	return
  4466  0E8D                     __end_of_dio_vid_set_port_direction:	
  4467                           
  4468                           	psect	text25
  4469  0DF4                     __ptext25:	
  4470 ;; *************** function _dio_vid_set_port_value *****************
  4471 ;; Defined at:
  4472 ;;		line 33 in file "dio.c"
  4473 ;; Parameters:    Size  Location     Type
  4474 ;;  portNumber      1    wreg     unsigned char 
  4475 ;;  value           1    9[BANK0 ] unsigned char 
  4476 ;; Auto vars:     Size  Location     Type
  4477 ;;  portNumber      1   12[BANK0 ] unsigned char 
  4478 ;; Return value:  Size  Location     Type
  4479 ;;                  1    wreg      void 
  4480 ;; Registers used:
  4481 ;;		wreg, fsr0l, fsr0h, status,2, status,0
  4482 ;; Tracked objects:
  4483 ;;		On entry : 0/0
  4484 ;;		On exit  : 0/0
  4485 ;;		Unchanged: 0/0
  4486 ;; Data sizes:     COMMON   BANK0   BANK1   BANK3   BANK2
  4487 ;;      Params:         0       1       0       0       0
  4488 ;;      Locals:         0       1       0       0       0
  4489 ;;      Temps:          0       2       0       0       0
  4490 ;;      Totals:         0       4       0       0       0
  4491 ;;Total ram usage:        4 bytes
  4492 ;; Hardware stack levels used:    1
  4493 ;; Hardware stack levels required when called:    3
  4494 ;; This function calls:
  4495 ;;		Nothing
  4496 ;; This function is called by:
  4497 ;;		_display_init
  4498 ;;		_ssd_vid_update
  4499 ;; This function uses a non-reentrant model
  4500 ;;
  4501                           
  4502                           
  4503                           ;psect for function _dio_vid_set_port_value
  4504  0DF4                     _dio_vid_set_port_value:	
  4505                           
  4506                           ;incstack = 0
  4507                           ; Regs used in _dio_vid_set_port_value: [wreg-fsr0h+status,2+status,0]
  4508                           ;dio_vid_set_port_value@portNumber stored from wreg
  4509  0DF4  1283               	bcf	3,5	;RP0=0, select bank0
  4510  0DF5  1303               	bcf	3,6	;RP1=0, select bank0
  4511  0DF6  00DA               	movwf	dio_vid_set_port_value@portNumber
  4512  0DF7                     l2100:	
  4513                           
  4514                           ;dio.c: 34:  switch (portNumber) {
  4515  0DF7  2E07               	goto	l2114
  4516  0DF8                     l2102:	
  4517                           
  4518                           ;dio.c: 36:   PORTA = value;
  4519  0DF8  0857               	movf	dio_vid_set_port_value@value,w
  4520  0DF9  0085               	movwf	5	;volatile
  4521                           
  4522                           ;dio.c: 37:   break;
  4523  0DFA  2E20               	goto	l78
  4524  0DFB                     l2104:	
  4525                           
  4526                           ;dio.c: 39:   PORTB = value;
  4527  0DFB  0857               	movf	dio_vid_set_port_value@value,w
  4528  0DFC  0086               	movwf	6	;volatile
  4529                           
  4530                           ;dio.c: 40:   break;
  4531  0DFD  2E20               	goto	l78
  4532  0DFE                     l2106:	
  4533                           
  4534                           ;dio.c: 42:   PORTC = value;
  4535  0DFE  0857               	movf	dio_vid_set_port_value@value,w
  4536  0DFF  0087               	movwf	7	;volatile
  4537                           
  4538                           ;dio.c: 43:   break;
  4539  0E00  2E20               	goto	l78
  4540  0E01                     l2108:	
  4541                           
  4542                           ;dio.c: 45:   PORTD = value;
  4543  0E01  0857               	movf	dio_vid_set_port_value@value,w
  4544  0E02  0088               	movwf	8	;volatile
  4545                           
  4546                           ;dio.c: 46:   break;
  4547  0E03  2E20               	goto	l78
  4548  0E04                     l2110:	
  4549                           
  4550                           ;dio.c: 48:   PORTE = value;
  4551  0E04  0857               	movf	dio_vid_set_port_value@value,w
  4552  0E05  0089               	movwf	9	;volatile
  4553                           
  4554                           ;dio.c: 49:   break;
  4555  0E06  2E20               	goto	l78
  4556  0E07                     l2114:	
  4557  0E07  085A               	movf	dio_vid_set_port_value@portNumber,w
  4558  0E08  00D8               	movwf	??_dio_vid_set_port_value
  4559  0E09  01D9               	clrf	??_dio_vid_set_port_value+1
  4560                           
  4561                           ; Switch on 2 bytes has been partitioned into a top level switch of size 1, and 1 sub-sw
      +                          itches
  4562                           ; Switch size 1, requested type "simple"
  4563                           ; Number of cases is 1, Range of values is 0 to 0
  4564                           ; switch strategies available:
  4565                           ; Name         Instructions Cycles
  4566                           ; simple_byte            4     3 (average)
  4567                           ; direct_byte           11     8 (fixed)
  4568                           ; jumptable            260     6 (fixed)
  4569                           ;	Chosen strategy is simple_byte
  4570  0E0A  0859               	movf	??_dio_vid_set_port_value+1,w
  4571  0E0B  3A00               	xorlw	0	; case 0
  4572  0E0C  1903               	skipnz
  4573  0E0D  2E0F               	goto	l2810
  4574  0E0E  2E20               	goto	l78
  4575  0E0F                     l2810:	
  4576                           
  4577                           ; Switch size 1, requested type "simple"
  4578                           ; Number of cases is 5, Range of values is 0 to 4
  4579                           ; switch strategies available:
  4580                           ; Name         Instructions Cycles
  4581                           ; simple_byte           16     9 (average)
  4582                           ; direct_byte           23     8 (fixed)
  4583                           ; jumptable            260     6 (fixed)
  4584                           ;	Chosen strategy is simple_byte
  4585  0E0F  0858               	movf	??_dio_vid_set_port_value,w
  4586  0E10  3A00               	xorlw	0	; case 0
  4587  0E11  1903               	skipnz
  4588  0E12  2DF8               	goto	l2102
  4589  0E13  3A01               	xorlw	1	; case 1
  4590  0E14  1903               	skipnz
  4591  0E15  2DFB               	goto	l2104
  4592  0E16  3A03               	xorlw	3	; case 2
  4593  0E17  1903               	skipnz
  4594  0E18  2DFE               	goto	l2106
  4595  0E19  3A01               	xorlw	1	; case 3
  4596  0E1A  1903               	skipnz
  4597  0E1B  2E01               	goto	l2108
  4598  0E1C  3A07               	xorlw	7	; case 4
  4599  0E1D  1903               	skipnz
  4600  0E1E  2E04               	goto	l2110
  4601  0E1F  2E20               	goto	l78
  4602  0E20                     l78:	
  4603  0E20  0008               	return
  4604  0E21                     __end_of_dio_vid_set_port_value:	
  4605                           
  4606                           	psect	text26
  4607  0144                     __ptext26:	
  4608 ;; *************** function _dio_vid_set_pin_value *****************
  4609 ;; Defined at:
  4610 ;;		line 80 in file "dio.c"
  4611 ;; Parameters:    Size  Location     Type
  4612 ;;  portNumber      1    wreg     unsigned char 
  4613 ;;  index           1    6[BANK0 ] unsigned char 
  4614 ;;  value           1    7[BANK0 ] unsigned char 
  4615 ;; Auto vars:     Size  Location     Type
  4616 ;;  portNumber      1   10[BANK0 ] unsigned char 
  4617 ;; Return value:  Size  Location     Type
  4618 ;;                  1    wreg      void 
  4619 ;; Registers used:
  4620 ;;		wreg, fsr0l, fsr0h, status,2, status,0
  4621 ;; Tracked objects:
  4622 ;;		On entry : 0/0
  4623 ;;		On exit  : 0/0
  4624 ;;		Unchanged: 0/0
  4625 ;; Data sizes:     COMMON   BANK0   BANK1   BANK3   BANK2
  4626 ;;      Params:         0       2       0       0       0
  4627 ;;      Locals:         0       1       0       0       0
  4628 ;;      Temps:          0       2       0       0       0
  4629 ;;      Totals:         0       5       0       0       0
  4630 ;;Total ram usage:        5 bytes
  4631 ;; Hardware stack levels used:    1
  4632 ;; Hardware stack levels required when called:    3
  4633 ;; This function calls:
  4634 ;;		Nothing
  4635 ;; This function is called by:
  4636 ;;		_display_init
  4637 ;;		_ssd_vid_update
  4638 ;; This function uses a non-reentrant model
  4639 ;;
  4640                           
  4641                           
  4642                           ;psect for function _dio_vid_set_pin_value
  4643  0144                     _dio_vid_set_pin_value:	
  4644                           
  4645                           ;incstack = 0
  4646                           ; Regs used in _dio_vid_set_pin_value: [wreg-fsr0h+status,2+status,0]
  4647                           ;dio_vid_set_pin_value@portNumber stored from wreg
  4648  0144  1283               	bcf	3,5	;RP0=0, select bank0
  4649  0145  1303               	bcf	3,6	;RP1=0, select bank0
  4650  0146  00D8               	movwf	dio_vid_set_pin_value@portNumber
  4651  0147                     l2122:	
  4652                           
  4653                           ;dio.c: 81:  switch (portNumber) {
  4654  0147  2A0B               	goto	l2166
  4655  0148                     l2124:	
  4656                           
  4657                           ;dio.c: 83:   if (value == 1)
  4658  0148  0355               	decf	dio_vid_set_pin_value@value,w
  4659  0149  1D03               	btfss	3,2
  4660  014A  294C               	goto	u1431
  4661  014B  294D               	goto	u1430
  4662  014C                     u1431:	
  4663  014C  295B               	goto	l2128
  4664  014D                     u1430:	
  4665  014D                     l2126:	
  4666                           
  4667                           ;dio.c: 84:    PORTA|=(1<<index);
  4668  014D  3001               	movlw	1
  4669  014E  00D6               	movwf	??_dio_vid_set_pin_value
  4670  014F  0A54               	incf	dio_vid_set_pin_value@index,w
  4671  0150  2953               	goto	u1444
  4672  0151                     u1445:	
  4673  0151  1003               	clrc
  4674  0152  0DD6               	rlf	??_dio_vid_set_pin_value,f
  4675  0153                     u1444:	
  4676  0153  3EFF               	addlw	-1
  4677  0154  1D03               	skipz
  4678  0155  2951               	goto	u1445
  4679  0156  0856               	movf	??_dio_vid_set_pin_value,w
  4680  0157  00D7               	movwf	??_dio_vid_set_pin_value+1
  4681  0158  0857               	movf	??_dio_vid_set_pin_value+1,w
  4682  0159  0485               	iorwf	5,f	;volatile
  4683  015A  2A24               	goto	l116
  4684  015B                     l2128:	
  4685  015B  0855               	movf	dio_vid_set_pin_value@value,w
  4686  015C  1D03               	btfss	3,2
  4687  015D  295F               	goto	u1451
  4688  015E  2960               	goto	u1450
  4689  015F                     u1451:	
  4690  015F  2A24               	goto	l116
  4691  0160                     u1450:	
  4692  0160                     l2130:	
  4693                           
  4694                           ;dio.c: 86:    PORTA&=~(1<<index);
  4695  0160  3001               	movlw	1
  4696  0161  00D6               	movwf	??_dio_vid_set_pin_value
  4697  0162  0A54               	incf	dio_vid_set_pin_value@index,w
  4698  0163  2966               	goto	u1464
  4699  0164                     u1465:	
  4700  0164  1003               	clrc
  4701  0165  0DD6               	rlf	??_dio_vid_set_pin_value,f
  4702  0166                     u1464:	
  4703  0166  3EFF               	addlw	-1
  4704  0167  1D03               	skipz
  4705  0168  2964               	goto	u1465
  4706  0169  0856               	movf	??_dio_vid_set_pin_value,w
  4707  016A  3AFF               	xorlw	255
  4708  016B  00D7               	movwf	??_dio_vid_set_pin_value+1
  4709  016C  0857               	movf	??_dio_vid_set_pin_value+1,w
  4710  016D  0585               	andwf	5,f	;volatile
  4711  016E  2A24               	goto	l116
  4712  016F                     l2132:	
  4713                           
  4714                           ;dio.c: 89:   if (value == 1)
  4715  016F  0355               	decf	dio_vid_set_pin_value@value,w
  4716  0170  1D03               	btfss	3,2
  4717  0171  2973               	goto	u1471
  4718  0172  2974               	goto	u1470
  4719  0173                     u1471:	
  4720  0173  2982               	goto	l2136
  4721  0174                     u1470:	
  4722  0174                     l2134:	
  4723                           
  4724                           ;dio.c: 90:    PORTB|=(1<<index);
  4725  0174  3001               	movlw	1
  4726  0175  00D6               	movwf	??_dio_vid_set_pin_value
  4727  0176  0A54               	incf	dio_vid_set_pin_value@index,w
  4728  0177  297A               	goto	u1484
  4729  0178                     u1485:	
  4730  0178  1003               	clrc
  4731  0179  0DD6               	rlf	??_dio_vid_set_pin_value,f
  4732  017A                     u1484:	
  4733  017A  3EFF               	addlw	-1
  4734  017B  1D03               	skipz
  4735  017C  2978               	goto	u1485
  4736  017D  0856               	movf	??_dio_vid_set_pin_value,w
  4737  017E  00D7               	movwf	??_dio_vid_set_pin_value+1
  4738  017F  0857               	movf	??_dio_vid_set_pin_value+1,w
  4739  0180  0486               	iorwf	6,f	;volatile
  4740  0181  2A24               	goto	l116
  4741  0182                     l2136:	
  4742  0182  0855               	movf	dio_vid_set_pin_value@value,w
  4743  0183  1D03               	btfss	3,2
  4744  0184  2986               	goto	u1491
  4745  0185  2987               	goto	u1490
  4746  0186                     u1491:	
  4747  0186  2A24               	goto	l116
  4748  0187                     u1490:	
  4749  0187                     l2138:	
  4750                           
  4751                           ;dio.c: 92:    PORTB&=~(1<<index);
  4752  0187  3001               	movlw	1
  4753  0188  00D6               	movwf	??_dio_vid_set_pin_value
  4754  0189  0A54               	incf	dio_vid_set_pin_value@index,w
  4755  018A  298D               	goto	u1504
  4756  018B                     u1505:	
  4757  018B  1003               	clrc
  4758  018C  0DD6               	rlf	??_dio_vid_set_pin_value,f
  4759  018D                     u1504:	
  4760  018D  3EFF               	addlw	-1
  4761  018E  1D03               	skipz
  4762  018F  298B               	goto	u1505
  4763  0190  0856               	movf	??_dio_vid_set_pin_value,w
  4764  0191  3AFF               	xorlw	255
  4765  0192  00D7               	movwf	??_dio_vid_set_pin_value+1
  4766  0193  0857               	movf	??_dio_vid_set_pin_value+1,w
  4767  0194  0586               	andwf	6,f	;volatile
  4768  0195  2A24               	goto	l116
  4769  0196                     l2140:	
  4770                           
  4771                           ;dio.c: 95:   if (value == 1)
  4772  0196  0355               	decf	dio_vid_set_pin_value@value,w
  4773  0197  1D03               	btfss	3,2
  4774  0198  299A               	goto	u1511
  4775  0199  299B               	goto	u1510
  4776  019A                     u1511:	
  4777  019A  29A9               	goto	l2144
  4778  019B                     u1510:	
  4779  019B                     l2142:	
  4780                           
  4781                           ;dio.c: 96:    PORTC|=(1<<index);
  4782  019B  3001               	movlw	1
  4783  019C  00D6               	movwf	??_dio_vid_set_pin_value
  4784  019D  0A54               	incf	dio_vid_set_pin_value@index,w
  4785  019E  29A1               	goto	u1524
  4786  019F                     u1525:	
  4787  019F  1003               	clrc
  4788  01A0  0DD6               	rlf	??_dio_vid_set_pin_value,f
  4789  01A1                     u1524:	
  4790  01A1  3EFF               	addlw	-1
  4791  01A2  1D03               	skipz
  4792  01A3  299F               	goto	u1525
  4793  01A4  0856               	movf	??_dio_vid_set_pin_value,w
  4794  01A5  00D7               	movwf	??_dio_vid_set_pin_value+1
  4795  01A6  0857               	movf	??_dio_vid_set_pin_value+1,w
  4796  01A7  0487               	iorwf	7,f	;volatile
  4797  01A8  2A24               	goto	l116
  4798  01A9                     l2144:	
  4799  01A9  0855               	movf	dio_vid_set_pin_value@value,w
  4800  01AA  1D03               	btfss	3,2
  4801  01AB  29AD               	goto	u1531
  4802  01AC  29AE               	goto	u1530
  4803  01AD                     u1531:	
  4804  01AD  2A24               	goto	l116
  4805  01AE                     u1530:	
  4806  01AE                     l2146:	
  4807                           
  4808                           ;dio.c: 98:    PORTC&=~(1<<index);
  4809  01AE  3001               	movlw	1
  4810  01AF  00D6               	movwf	??_dio_vid_set_pin_value
  4811  01B0  0A54               	incf	dio_vid_set_pin_value@index,w
  4812  01B1  29B4               	goto	u1544
  4813  01B2                     u1545:	
  4814  01B2  1003               	clrc
  4815  01B3  0DD6               	rlf	??_dio_vid_set_pin_value,f
  4816  01B4                     u1544:	
  4817  01B4  3EFF               	addlw	-1
  4818  01B5  1D03               	skipz
  4819  01B6  29B2               	goto	u1545
  4820  01B7  0856               	movf	??_dio_vid_set_pin_value,w
  4821  01B8  3AFF               	xorlw	255
  4822  01B9  00D7               	movwf	??_dio_vid_set_pin_value+1
  4823  01BA  0857               	movf	??_dio_vid_set_pin_value+1,w
  4824  01BB  0587               	andwf	7,f	;volatile
  4825  01BC  2A24               	goto	l116
  4826  01BD                     l2148:	
  4827                           
  4828                           ;dio.c: 101:   if (value == 1)
  4829  01BD  0355               	decf	dio_vid_set_pin_value@value,w
  4830  01BE  1D03               	btfss	3,2
  4831  01BF  29C1               	goto	u1551
  4832  01C0  29C2               	goto	u1550
  4833  01C1                     u1551:	
  4834  01C1  29D0               	goto	l2152
  4835  01C2                     u1550:	
  4836  01C2                     l2150:	
  4837                           
  4838                           ;dio.c: 102:    PORTD|=(1<<index);
  4839  01C2  3001               	movlw	1
  4840  01C3  00D6               	movwf	??_dio_vid_set_pin_value
  4841  01C4  0A54               	incf	dio_vid_set_pin_value@index,w
  4842  01C5  29C8               	goto	u1564
  4843  01C6                     u1565:	
  4844  01C6  1003               	clrc
  4845  01C7  0DD6               	rlf	??_dio_vid_set_pin_value,f
  4846  01C8                     u1564:	
  4847  01C8  3EFF               	addlw	-1
  4848  01C9  1D03               	skipz
  4849  01CA  29C6               	goto	u1565
  4850  01CB  0856               	movf	??_dio_vid_set_pin_value,w
  4851  01CC  00D7               	movwf	??_dio_vid_set_pin_value+1
  4852  01CD  0857               	movf	??_dio_vid_set_pin_value+1,w
  4853  01CE  0488               	iorwf	8,f	;volatile
  4854  01CF  2A24               	goto	l116
  4855  01D0                     l2152:	
  4856  01D0  0855               	movf	dio_vid_set_pin_value@value,w
  4857  01D1  1D03               	btfss	3,2
  4858  01D2  29D4               	goto	u1571
  4859  01D3  29D5               	goto	u1570
  4860  01D4                     u1571:	
  4861  01D4  2A24               	goto	l116
  4862  01D5                     u1570:	
  4863  01D5                     l2154:	
  4864                           
  4865                           ;dio.c: 104:    PORTD&=~(1<<index);
  4866  01D5  3001               	movlw	1
  4867  01D6  00D6               	movwf	??_dio_vid_set_pin_value
  4868  01D7  0A54               	incf	dio_vid_set_pin_value@index,w
  4869  01D8  29DB               	goto	u1584
  4870  01D9                     u1585:	
  4871  01D9  1003               	clrc
  4872  01DA  0DD6               	rlf	??_dio_vid_set_pin_value,f
  4873  01DB                     u1584:	
  4874  01DB  3EFF               	addlw	-1
  4875  01DC  1D03               	skipz
  4876  01DD  29D9               	goto	u1585
  4877  01DE  0856               	movf	??_dio_vid_set_pin_value,w
  4878  01DF  3AFF               	xorlw	255
  4879  01E0  00D7               	movwf	??_dio_vid_set_pin_value+1
  4880  01E1  0857               	movf	??_dio_vid_set_pin_value+1,w
  4881  01E2  0588               	andwf	8,f	;volatile
  4882  01E3  2A24               	goto	l116
  4883  01E4                     l2156:	
  4884                           
  4885                           ;dio.c: 107:   if (value == 1)
  4886  01E4  0355               	decf	dio_vid_set_pin_value@value,w
  4887  01E5  1D03               	btfss	3,2
  4888  01E6  29E8               	goto	u1591
  4889  01E7  29E9               	goto	u1590
  4890  01E8                     u1591:	
  4891  01E8  29F7               	goto	l2160
  4892  01E9                     u1590:	
  4893  01E9                     l2158:	
  4894                           
  4895                           ;dio.c: 108:    PORTE|=(1<<index);
  4896  01E9  3001               	movlw	1
  4897  01EA  00D6               	movwf	??_dio_vid_set_pin_value
  4898  01EB  0A54               	incf	dio_vid_set_pin_value@index,w
  4899  01EC  29EF               	goto	u1604
  4900  01ED                     u1605:	
  4901  01ED  1003               	clrc
  4902  01EE  0DD6               	rlf	??_dio_vid_set_pin_value,f
  4903  01EF                     u1604:	
  4904  01EF  3EFF               	addlw	-1
  4905  01F0  1D03               	skipz
  4906  01F1  29ED               	goto	u1605
  4907  01F2  0856               	movf	??_dio_vid_set_pin_value,w
  4908  01F3  00D7               	movwf	??_dio_vid_set_pin_value+1
  4909  01F4  0857               	movf	??_dio_vid_set_pin_value+1,w
  4910  01F5  0489               	iorwf	9,f	;volatile
  4911  01F6  2A24               	goto	l116
  4912  01F7                     l2160:	
  4913  01F7  0855               	movf	dio_vid_set_pin_value@value,w
  4914  01F8  1D03               	btfss	3,2
  4915  01F9  29FB               	goto	u1611
  4916  01FA  29FC               	goto	u1610
  4917  01FB                     u1611:	
  4918  01FB  2A24               	goto	l116
  4919  01FC                     u1610:	
  4920  01FC                     l2162:	
  4921                           
  4922                           ;dio.c: 110:    PORTE&=~(1<<index);
  4923  01FC  3001               	movlw	1
  4924  01FD  00D6               	movwf	??_dio_vid_set_pin_value
  4925  01FE  0A54               	incf	dio_vid_set_pin_value@index,w
  4926  01FF  2A02               	goto	u1624
  4927  0200                     u1625:	
  4928  0200  1003               	clrc
  4929  0201  0DD6               	rlf	??_dio_vid_set_pin_value,f
  4930  0202                     u1624:	
  4931  0202  3EFF               	addlw	-1
  4932  0203  1D03               	skipz
  4933  0204  2A00               	goto	u1625
  4934  0205  0856               	movf	??_dio_vid_set_pin_value,w
  4935  0206  3AFF               	xorlw	255
  4936  0207  00D7               	movwf	??_dio_vid_set_pin_value+1
  4937  0208  0857               	movf	??_dio_vid_set_pin_value+1,w
  4938  0209  0589               	andwf	9,f	;volatile
  4939  020A  2A24               	goto	l116
  4940  020B                     l2166:	
  4941  020B  0858               	movf	dio_vid_set_pin_value@portNumber,w
  4942  020C  00D6               	movwf	??_dio_vid_set_pin_value
  4943  020D  01D7               	clrf	??_dio_vid_set_pin_value+1
  4944                           
  4945                           ; Switch on 2 bytes has been partitioned into a top level switch of size 1, and 1 sub-sw
      +                          itches
  4946                           ; Switch size 1, requested type "simple"
  4947                           ; Number of cases is 1, Range of values is 0 to 0
  4948                           ; switch strategies available:
  4949                           ; Name         Instructions Cycles
  4950                           ; simple_byte            4     3 (average)
  4951                           ; direct_byte           11     8 (fixed)
  4952                           ; jumptable            260     6 (fixed)
  4953                           ;	Chosen strategy is simple_byte
  4954  020E  0857               	movf	??_dio_vid_set_pin_value+1,w
  4955  020F  3A00               	xorlw	0	; case 0
  4956  0210  1903               	skipnz
  4957  0211  2A13               	goto	l2812
  4958  0212  2A24               	goto	l116
  4959  0213                     l2812:	
  4960                           
  4961                           ; Switch size 1, requested type "simple"
  4962                           ; Number of cases is 5, Range of values is 0 to 4
  4963                           ; switch strategies available:
  4964                           ; Name         Instructions Cycles
  4965                           ; simple_byte           16     9 (average)
  4966                           ; direct_byte           23     8 (fixed)
  4967                           ; jumptable            260     6 (fixed)
  4968                           ;	Chosen strategy is simple_byte
  4969  0213  0856               	movf	??_dio_vid_set_pin_value,w
  4970  0214  3A00               	xorlw	0	; case 0
  4971  0215  1903               	skipnz
  4972  0216  2948               	goto	l2124
  4973  0217  3A01               	xorlw	1	; case 1
  4974  0218  1903               	skipnz
  4975  0219  296F               	goto	l2132
  4976  021A  3A03               	xorlw	3	; case 2
  4977  021B  1903               	skipnz
  4978  021C  2996               	goto	l2140
  4979  021D  3A01               	xorlw	1	; case 3
  4980  021E  1903               	skipnz
  4981  021F  29BD               	goto	l2148
  4982  0220  3A07               	xorlw	7	; case 4
  4983  0221  1903               	skipnz
  4984  0222  29E4               	goto	l2156
  4985  0223  2A24               	goto	l116
  4986  0224                     l116:	
  4987  0224  0008               	return
  4988  0225                     __end_of_dio_vid_set_pin_value:	
  4989                           
  4990                           	psect	text27
  4991  0F59                     __ptext27:	
  4992 ;; *************** function _counter_vid_init *****************
  4993 ;; Defined at:
  4994 ;;		line 26 in file "counter.c"
  4995 ;; Parameters:    Size  Location     Type
  4996 ;;		None
  4997 ;; Auto vars:     Size  Location     Type
  4998 ;;		None
  4999 ;; Return value:  Size  Location     Type
  5000 ;;                  1    wreg      void 
  5001 ;; Registers used:
  5002 ;;		wreg, fsr0l, fsr0h, status,2, status,0, pclath, cstack
  5003 ;; Tracked objects:
  5004 ;;		On entry : 0/0
  5005 ;;		On exit  : 0/0
  5006 ;;		Unchanged: 0/0
  5007 ;; Data sizes:     COMMON   BANK0   BANK1   BANK3   BANK2
  5008 ;;      Params:         0       0       0       0       0
  5009 ;;      Locals:         0       0       0       0       0
  5010 ;;      Temps:          0       2       0       0       0
  5011 ;;      Totals:         0       2       0       0       0
  5012 ;;Total ram usage:        2 bytes
  5013 ;; Hardware stack levels used:    1
  5014 ;; Hardware stack levels required when called:    6
  5015 ;; This function calls:
  5016 ;;		___awmod
  5017 ;;		_dio_vid_set_pin_direction
  5018 ;;		_eeprom_external_vid_read
  5019 ;; This function is called by:
  5020 ;;		_display_init
  5021 ;; This function uses a non-reentrant model
  5022 ;;
  5023                           
  5024                           
  5025                           ;psect for function _counter_vid_init
  5026  0F59                     _counter_vid_init:	
  5027  0F59                     l2336:	
  5028                           ;incstack = 0
  5029                           ; Regs used in _counter_vid_init: [wreg-fsr0h+status,2+status,0+pclath+cstack]
  5030                           
  5031                           
  5032                           ;counter.c: 27:     dio_vid_set_pin_direction(B, 2, 0x01);
  5033  0F59  3002               	movlw	2
  5034  0F5A  1283               	bcf	3,5	;RP0=0, select bank0
  5035  0F5B  1303               	bcf	3,6	;RP1=0, select bank0
  5036  0F5C  00DB               	movwf	??_counter_vid_init
  5037  0F5D  085B               	movf	??_counter_vid_init,w
  5038  0F5E  00D4               	movwf	dio_vid_set_pin_direction@index
  5039  0F5F  01D5               	clrf	dio_vid_set_pin_direction@direction
  5040  0F60  0AD5               	incf	dio_vid_set_pin_direction@direction,f
  5041  0F61  3001               	movlw	1
  5042  0F62  120A  118A  204F  120A  158A  	fcall	_dio_vid_set_pin_direction
  5043                           
  5044                           ;counter.c: 28:     dio_vid_set_pin_direction(B, 1, 0x01);
  5045  0F67  1283               	bcf	3,5	;RP0=0, select bank0
  5046  0F68  1303               	bcf	3,6	;RP1=0, select bank0
  5047  0F69  01D4               	clrf	dio_vid_set_pin_direction@index
  5048  0F6A  0AD4               	incf	dio_vid_set_pin_direction@index,f
  5049  0F6B  01D5               	clrf	dio_vid_set_pin_direction@direction
  5050  0F6C  0AD5               	incf	dio_vid_set_pin_direction@direction,f
  5051  0F6D  3001               	movlw	1
  5052  0F6E  120A  118A  204F  120A  158A  	fcall	_dio_vid_set_pin_direction
  5053  0F73                     l2338:	
  5054                           
  5055                           ;counter.c: 29:     counter = eeprom_external_vid_read(0);
  5056  0F73  3000               	movlw	0
  5057  0F74  120A  158A  270F  120A  158A  	fcall	_eeprom_external_vid_read
  5058  0F79  1283               	bcf	3,5	;RP0=0, select bank0
  5059  0F7A  1303               	bcf	3,6	;RP1=0, select bank0
  5060  0F7B  00DB               	movwf	??_counter_vid_init
  5061  0F7C  085B               	movf	??_counter_vid_init,w
  5062  0F7D  00E6               	movwf	_counter
  5063  0F7E                     l2340:	
  5064                           
  5065                           ;counter.c: 30:     if (counter < 35 || counter > 75 || counter % 5 != 0)
  5066  0F7E  3023               	movlw	35
  5067  0F7F  0266               	subwf	_counter,w
  5068  0F80  1C03               	skipc
  5069  0F81  2F83               	goto	u1871
  5070  0F82  2F84               	goto	u1870
  5071  0F83                     u1871:	
  5072  0F83  2FA2               	goto	l2346
  5073  0F84                     u1870:	
  5074  0F84                     l2342:	
  5075  0F84  304C               	movlw	76
  5076  0F85  0266               	subwf	_counter,w
  5077  0F86  1803               	skipnc
  5078  0F87  2F89               	goto	u1881
  5079  0F88  2F8A               	goto	u1880
  5080  0F89                     u1881:	
  5081  0F89  2FA2               	goto	l2346
  5082  0F8A                     u1880:	
  5083  0F8A                     l2344:	
  5084  0F8A  3005               	movlw	5
  5085  0F8B  00D4               	movwf	___awmod@divisor
  5086  0F8C  3000               	movlw	0
  5087  0F8D  00D5               	movwf	___awmod@divisor+1
  5088  0F8E  0866               	movf	_counter,w
  5089  0F8F  00DB               	movwf	??_counter_vid_init
  5090  0F90  01DC               	clrf	??_counter_vid_init+1
  5091  0F91  085B               	movf	??_counter_vid_init,w
  5092  0F92  00D6               	movwf	___awmod@dividend
  5093  0F93  085C               	movf	??_counter_vid_init+1,w
  5094  0F94  00D7               	movwf	___awmod@dividend+1
  5095  0F95  120A  118A  26AE  120A  158A  	fcall	___awmod
  5096  0F9A  1283               	bcf	3,5	;RP0=0, select bank0
  5097  0F9B  1303               	bcf	3,6	;RP1=0, select bank0
  5098  0F9C  0854               	movf	?___awmod,w
  5099  0F9D  0455               	iorwf	?___awmod+1,w
  5100  0F9E  1903               	btfsc	3,2
  5101  0F9F  2FA1               	goto	u1891
  5102  0FA0  2FA2               	goto	u1890
  5103  0FA1                     u1891:	
  5104  0FA1  2FA6               	goto	l26
  5105  0FA2                     u1890:	
  5106  0FA2                     l2346:	
  5107                           
  5108                           ;counter.c: 31:         counter = 60;
  5109  0FA2  303C               	movlw	60
  5110  0FA3  00DB               	movwf	??_counter_vid_init
  5111  0FA4  085B               	movf	??_counter_vid_init,w
  5112  0FA5  00E6               	movwf	_counter
  5113  0FA6                     l26:	
  5114  0FA6  0008               	return
  5115  0FA7                     __end_of_counter_vid_init:	
  5116                           
  5117                           	psect	text28
  5118  0F0F                     __ptext28:	
  5119 ;; *************** function _eeprom_external_vid_read *****************
  5120 ;; Defined at:
  5121 ;;		line 20 in file "eeprom_external.c"
  5122 ;; Parameters:    Size  Location     Type
  5123 ;;  address         1    wreg     unsigned char 
  5124 ;; Auto vars:     Size  Location     Type
  5125 ;;  address         1    9[BANK0 ] unsigned char 
  5126 ;;  data            1   10[BANK0 ] unsigned char 
  5127 ;; Return value:  Size  Location     Type
  5128 ;;                  1    wreg      unsigned char 
  5129 ;; Registers used:
  5130 ;;		wreg, status,2, status,0, pclath, cstack
  5131 ;; Tracked objects:
  5132 ;;		On entry : 0/0
  5133 ;;		On exit  : 0/0
  5134 ;;		Unchanged: 0/0
  5135 ;; Data sizes:     COMMON   BANK0   BANK1   BANK3   BANK2
  5136 ;;      Params:         0       0       0       0       0
  5137 ;;      Locals:         0       2       0       0       0
  5138 ;;      Temps:          0       1       0       0       0
  5139 ;;      Totals:         0       3       0       0       0
  5140 ;;Total ram usage:        3 bytes
  5141 ;; Hardware stack levels used:    1
  5142 ;; Hardware stack levels required when called:    5
  5143 ;; This function calls:
  5144 ;;		_i2c_u8_master_read_byte
  5145 ;;		_i2c_u8_master_write_byte
  5146 ;;		_i2c_u8_master_write_slave_address_with_read_req
  5147 ;;		_i2c_u8_master_write_slave_address_with_write_req
  5148 ;;		_i2c_vid_nack
  5149 ;;		_i2c_vid_restart
  5150 ;;		_i2c_vid_start
  5151 ;;		_i2c_vid_stop
  5152 ;; This function is called by:
  5153 ;;		_counter_vid_init
  5154 ;; This function uses a non-reentrant model
  5155 ;;
  5156                           
  5157                           
  5158                           ;psect for function _eeprom_external_vid_read
  5159  0F0F                     _eeprom_external_vid_read:	
  5160                           
  5161                           ;incstack = 0
  5162                           ; Regs used in _eeprom_external_vid_read: [wreg+status,2+status,0+pclath+cstack]
  5163                           ;eeprom_external_vid_read@address stored from wreg
  5164  0F0F  1283               	bcf	3,5	;RP0=0, select bank0
  5165  0F10  1303               	bcf	3,6	;RP1=0, select bank0
  5166  0F11  00D7               	movwf	eeprom_external_vid_read@address
  5167  0F12                     l2046:	
  5168                           
  5169                           ;eeprom_external.c: 21:     u8 data;;eeprom_external.c: 22:     i2c_vid_start();
  5170  0F12  120A  158A  2477  120A  158A  	fcall	_i2c_vid_start
  5171                           
  5172                           ;eeprom_external.c: 23:     while(i2c_u8_master_write_slave_address_with_write_req(0x50)
      +                          )
  5173  0F17  2F1D               	goto	l205
  5174  0F18                     l2048:	
  5175                           
  5176                           ;eeprom_external.c: 24:     i2c_vid_restart();
  5177  0F18  120A  158A  246E  120A  158A  	fcall	_i2c_vid_restart
  5178  0F1D                     l205:	
  5179                           
  5180                           ;eeprom_external.c: 23:     while(i2c_u8_master_write_slave_address_with_write_req(0x50)
      +                          )
  5181  0F1D  3050               	movlw	80
  5182  0F1E  120A  158A  251F  120A  158A  	fcall	_i2c_u8_master_write_slave_address_with_write_req
  5183  0F23  3A00               	xorlw	0
  5184  0F24  1D03               	skipz
  5185  0F25  2F27               	goto	u1401
  5186  0F26  2F28               	goto	u1400
  5187  0F27                     u1401:	
  5188  0F27  2F18               	goto	l2048
  5189  0F28                     u1400:	
  5190  0F28                     l2050:	
  5191                           
  5192                           ;eeprom_external.c: 25:     i2c_u8_master_write_byte(address >> 8);
  5193  0F28  3000               	movlw	0
  5194  0F29  120A  158A  24B7  120A  158A  	fcall	_i2c_u8_master_write_byte
  5195                           
  5196                           ;eeprom_external.c: 26:     i2c_u8_master_write_byte((u8) address);
  5197  0F2E  1283               	bcf	3,5	;RP0=0, select bank0
  5198  0F2F  1303               	bcf	3,6	;RP1=0, select bank0
  5199  0F30  0857               	movf	eeprom_external_vid_read@address,w
  5200  0F31  120A  158A  24B7  120A  158A  	fcall	_i2c_u8_master_write_byte
  5201                           
  5202                           ;eeprom_external.c: 27:     i2c_vid_restart();
  5203  0F36  120A  158A  246E  120A  158A  	fcall	_i2c_vid_restart
  5204                           
  5205                           ;eeprom_external.c: 28:     i2c_u8_master_write_slave_address_with_read_req(0x50);
  5206  0F3B  3050               	movlw	80
  5207  0F3C  120A  158A  24C9  120A  158A  	fcall	_i2c_u8_master_write_slave_address_with_read_req
  5208                           
  5209                           ;eeprom_external.c: 29:     data = i2c_u8_master_read_byte();
  5210  0F41  120A  158A  24F1  120A  158A  	fcall	_i2c_u8_master_read_byte
  5211  0F46  1283               	bcf	3,5	;RP0=0, select bank0
  5212  0F47  1303               	bcf	3,6	;RP1=0, select bank0
  5213  0F48  00D6               	movwf	??_eeprom_external_vid_read
  5214  0F49  0856               	movf	??_eeprom_external_vid_read,w
  5215  0F4A  00D8               	movwf	eeprom_external_vid_read@data
  5216                           
  5217                           ;eeprom_external.c: 30:     i2c_vid_nack();
  5218  0F4B  120A  158A  249E  120A  158A  	fcall	_i2c_vid_nack
  5219                           
  5220                           ;eeprom_external.c: 31:     i2c_vid_stop();
  5221  0F50  120A  158A  2480  120A  158A  	fcall	_i2c_vid_stop
  5222  0F55                     l2052:	
  5223                           
  5224                           ;eeprom_external.c: 32:     return data;
  5225  0F55  1283               	bcf	3,5	;RP0=0, select bank0
  5226  0F56  1303               	bcf	3,6	;RP1=0, select bank0
  5227  0F57  0858               	movf	eeprom_external_vid_read@data,w
  5228  0F58                     l208:	
  5229  0F58  0008               	return
  5230  0F59                     __end_of_eeprom_external_vid_read:	
  5231                           
  5232                           	psect	text29
  5233  0C80                     __ptext29:	
  5234 ;; *************** function _i2c_vid_stop *****************
  5235 ;; Defined at:
  5236 ;;		line 43 in file "i2c.c"
  5237 ;; Parameters:    Size  Location     Type
  5238 ;;		None
  5239 ;; Auto vars:     Size  Location     Type
  5240 ;;		None
  5241 ;; Return value:  Size  Location     Type
  5242 ;;                  1    wreg      void 
  5243 ;; Registers used:
  5244 ;;		wreg, status,2, status,0, pclath, cstack
  5245 ;; Tracked objects:
  5246 ;;		On entry : 0/0
  5247 ;;		On exit  : 0/0
  5248 ;;		Unchanged: 0/0
  5249 ;; Data sizes:     COMMON   BANK0   BANK1   BANK3   BANK2
  5250 ;;      Params:         0       0       0       0       0
  5251 ;;      Locals:         0       0       0       0       0
  5252 ;;      Temps:          0       0       0       0       0
  5253 ;;      Totals:         0       0       0       0       0
  5254 ;;Total ram usage:        0 bytes
  5255 ;; Hardware stack levels used:    1
  5256 ;; Hardware stack levels required when called:    4
  5257 ;; This function calls:
  5258 ;;		_i2c_vid_wait
  5259 ;; This function is called by:
  5260 ;;		_eeprom_external_vid_write
  5261 ;;		_eeprom_external_vid_read
  5262 ;; This function uses a non-reentrant model
  5263 ;;
  5264                           
  5265                           
  5266                           ;psect for function _i2c_vid_stop
  5267  0C80                     _i2c_vid_stop:	
  5268  0C80                     l1970:	
  5269                           ;incstack = 0
  5270                           ; Regs used in _i2c_vid_stop: [wreg+status,2+status,0+pclath+cstack]
  5271                           
  5272                           
  5273                           ;i2c.c: 44:     i2c_vid_wait();
  5274  0C80  120A  158A  24AA  120A  158A  	fcall	_i2c_vid_wait
  5275  0C85                     l1972:	
  5276                           
  5277                           ;i2c.c: 46:     PEN = 1;
  5278  0C85  1683               	bsf	3,5	;RP0=1, select bank1
  5279  0C86  1303               	bcf	3,6	;RP1=0, select bank1
  5280  0C87  1511               	bsf	17,2	;volatile
  5281  0C88                     l255:	
  5282  0C88  0008               	return
  5283  0C89                     __end_of_i2c_vid_stop:	
  5284                           
  5285                           	psect	text30
  5286  0C77                     __ptext30:	
  5287 ;; *************** function _i2c_vid_start *****************
  5288 ;; Defined at:
  5289 ;;		line 37 in file "i2c.c"
  5290 ;; Parameters:    Size  Location     Type
  5291 ;;		None
  5292 ;; Auto vars:     Size  Location     Type
  5293 ;;		None
  5294 ;; Return value:  Size  Location     Type
  5295 ;;                  1    wreg      void 
  5296 ;; Registers used:
  5297 ;;		wreg, status,2, status,0, pclath, cstack
  5298 ;; Tracked objects:
  5299 ;;		On entry : 0/0
  5300 ;;		On exit  : 0/0
  5301 ;;		Unchanged: 0/0
  5302 ;; Data sizes:     COMMON   BANK0   BANK1   BANK3   BANK2
  5303 ;;      Params:         0       0       0       0       0
  5304 ;;      Locals:         0       0       0       0       0
  5305 ;;      Temps:          0       0       0       0       0
  5306 ;;      Totals:         0       0       0       0       0
  5307 ;;Total ram usage:        0 bytes
  5308 ;; Hardware stack levels used:    1
  5309 ;; Hardware stack levels required when called:    4
  5310 ;; This function calls:
  5311 ;;		_i2c_vid_wait
  5312 ;; This function is called by:
  5313 ;;		_eeprom_external_vid_write
  5314 ;;		_eeprom_external_vid_read
  5315 ;; This function uses a non-reentrant model
  5316 ;;
  5317                           
  5318                           
  5319                           ;psect for function _i2c_vid_start
  5320  0C77                     _i2c_vid_start:	
  5321  0C77                     l1950:	
  5322                           ;incstack = 0
  5323                           ; Regs used in _i2c_vid_start: [wreg+status,2+status,0+pclath+cstack]
  5324                           
  5325                           
  5326                           ;i2c.c: 38:     i2c_vid_wait();
  5327  0C77  120A  158A  24AA  120A  158A  	fcall	_i2c_vid_wait
  5328  0C7C                     l1952:	
  5329                           
  5330                           ;i2c.c: 40:     SEN = 1;
  5331  0C7C  1683               	bsf	3,5	;RP0=1, select bank1
  5332  0C7D  1303               	bcf	3,6	;RP1=0, select bank1
  5333  0C7E  1411               	bsf	17,0	;volatile
  5334  0C7F                     l252:	
  5335  0C7F  0008               	return
  5336  0C80                     __end_of_i2c_vid_start:	
  5337                           
  5338                           	psect	text31
  5339  0C6E                     __ptext31:	
  5340 ;; *************** function _i2c_vid_restart *****************
  5341 ;; Defined at:
  5342 ;;		line 49 in file "i2c.c"
  5343 ;; Parameters:    Size  Location     Type
  5344 ;;		None
  5345 ;; Auto vars:     Size  Location     Type
  5346 ;;		None
  5347 ;; Return value:  Size  Location     Type
  5348 ;;                  1    wreg      void 
  5349 ;; Registers used:
  5350 ;;		wreg, status,2, status,0, pclath, cstack
  5351 ;; Tracked objects:
  5352 ;;		On entry : 0/0
  5353 ;;		On exit  : 0/0
  5354 ;;		Unchanged: 0/0
  5355 ;; Data sizes:     COMMON   BANK0   BANK1   BANK3   BANK2
  5356 ;;      Params:         0       0       0       0       0
  5357 ;;      Locals:         0       0       0       0       0
  5358 ;;      Temps:          0       0       0       0       0
  5359 ;;      Totals:         0       0       0       0       0
  5360 ;;Total ram usage:        0 bytes
  5361 ;; Hardware stack levels used:    1
  5362 ;; Hardware stack levels required when called:    4
  5363 ;; This function calls:
  5364 ;;		_i2c_vid_wait
  5365 ;; This function is called by:
  5366 ;;		_eeprom_external_vid_write
  5367 ;;		_eeprom_external_vid_read
  5368 ;; This function uses a non-reentrant model
  5369 ;;
  5370                           
  5371                           
  5372                           ;psect for function _i2c_vid_restart
  5373  0C6E                     _i2c_vid_restart:	
  5374  0C6E                     l1954:	
  5375                           ;incstack = 0
  5376                           ; Regs used in _i2c_vid_restart: [wreg+status,2+status,0+pclath+cstack]
  5377                           
  5378                           
  5379                           ;i2c.c: 50:     i2c_vid_wait();
  5380  0C6E  120A  158A  24AA  120A  158A  	fcall	_i2c_vid_wait
  5381  0C73                     l1956:	
  5382                           
  5383                           ;i2c.c: 52:     RSEN = 1;
  5384  0C73  1683               	bsf	3,5	;RP0=1, select bank1
  5385  0C74  1303               	bcf	3,6	;RP1=0, select bank1
  5386  0C75  1491               	bsf	17,1	;volatile
  5387  0C76                     l258:	
  5388  0C76  0008               	return
  5389  0C77                     __end_of_i2c_vid_restart:	
  5390                           
  5391                           	psect	text32
  5392  0C9E                     __ptext32:	
  5393 ;; *************** function _i2c_vid_nack *****************
  5394 ;; Defined at:
  5395 ;;		line 65 in file "i2c.c"
  5396 ;; Parameters:    Size  Location     Type
  5397 ;;		None
  5398 ;; Auto vars:     Size  Location     Type
  5399 ;;		None
  5400 ;; Return value:  Size  Location     Type
  5401 ;;                  1    wreg      void 
  5402 ;; Registers used:
  5403 ;;		wreg, status,2, status,0, pclath, cstack
  5404 ;; Tracked objects:
  5405 ;;		On entry : 0/0
  5406 ;;		On exit  : 0/0
  5407 ;;		Unchanged: 0/0
  5408 ;; Data sizes:     COMMON   BANK0   BANK1   BANK3   BANK2
  5409 ;;      Params:         0       0       0       0       0
  5410 ;;      Locals:         0       0       0       0       0
  5411 ;;      Temps:          0       0       0       0       0
  5412 ;;      Totals:         0       0       0       0       0
  5413 ;;Total ram usage:        0 bytes
  5414 ;; Hardware stack levels used:    1
  5415 ;; Hardware stack levels required when called:    4
  5416 ;; This function calls:
  5417 ;;		_i2c_vid_wait
  5418 ;; This function is called by:
  5419 ;;		_eeprom_external_vid_read
  5420 ;; This function uses a non-reentrant model
  5421 ;;
  5422                           
  5423                           
  5424                           ;psect for function _i2c_vid_nack
  5425  0C9E                     _i2c_vid_nack:	
  5426  0C9E                     l1988:	
  5427                           ;incstack = 0
  5428                           ; Regs used in _i2c_vid_nack: [wreg+status,2+status,0+pclath+cstack]
  5429                           
  5430                           
  5431                           ;i2c.c: 66:     ACKDT = 1;
  5432  0C9E  1683               	bsf	3,5	;RP0=1, select bank1
  5433  0C9F  1303               	bcf	3,6	;RP1=0, select bank1
  5434  0CA0  1691               	bsf	17,5	;volatile
  5435  0CA1                     l1990:	
  5436                           
  5437                           ;i2c.c: 67:     i2c_vid_wait();
  5438  0CA1  120A  158A  24AA  120A  158A  	fcall	_i2c_vid_wait
  5439  0CA6                     l1992:	
  5440                           
  5441                           ;i2c.c: 68:     ACKEN = 1;
  5442  0CA6  1683               	bsf	3,5	;RP0=1, select bank1
  5443  0CA7  1303               	bcf	3,6	;RP1=0, select bank1
  5444  0CA8  1611               	bsf	17,4	;volatile
  5445  0CA9                     l270:	
  5446  0CA9  0008               	return
  5447  0CAA                     __end_of_i2c_vid_nack:	
  5448                           
  5449                           	psect	text33
  5450  0D1F                     __ptext33:	
  5451 ;; *************** function _i2c_u8_master_write_slave_address_with_write_req *****************
  5452 ;; Defined at:
  5453 ;;		line 71 in file "i2c.c"
  5454 ;; Parameters:    Size  Location     Type
  5455 ;;  address         1    wreg     unsigned char 
  5456 ;; Auto vars:     Size  Location     Type
  5457 ;;  address         1    7[BANK0 ] unsigned char 
  5458 ;; Return value:  Size  Location     Type
  5459 ;;                  1    wreg      unsigned char 
  5460 ;; Registers used:
  5461 ;;		wreg, status,2, status,0, pclath, cstack
  5462 ;; Tracked objects:
  5463 ;;		On entry : 0/0
  5464 ;;		On exit  : 0/0
  5465 ;;		Unchanged: 0/0
  5466 ;; Data sizes:     COMMON   BANK0   BANK1   BANK3   BANK2
  5467 ;;      Params:         0       0       0       0       0
  5468 ;;      Locals:         0       1       0       0       0
  5469 ;;      Temps:          0       1       0       0       0
  5470 ;;      Totals:         0       2       0       0       0
  5471 ;;Total ram usage:        2 bytes
  5472 ;; Hardware stack levels used:    1
  5473 ;; Hardware stack levels required when called:    4
  5474 ;; This function calls:
  5475 ;;		_i2c_vid_wait
  5476 ;; This function is called by:
  5477 ;;		_eeprom_external_vid_write
  5478 ;;		_eeprom_external_vid_read
  5479 ;; This function uses a non-reentrant model
  5480 ;;
  5481                           
  5482                           
  5483                           ;psect for function _i2c_u8_master_write_slave_address_with_write_req
  5484  0D1F                     _i2c_u8_master_write_slave_address_with_write_req:	
  5485                           
  5486                           ;incstack = 0
  5487                           ; Regs used in _i2c_u8_master_write_slave_address_with_write_req: [wreg+status,2+status,
      +                          0+pclath+cstack]
  5488                           ;i2c_u8_master_write_slave_address_with_write_req@address stored from wreg
  5489  0D1F  1283               	bcf	3,5	;RP0=0, select bank0
  5490  0D20  1303               	bcf	3,6	;RP1=0, select bank0
  5491  0D21  00D5               	movwf	i2c_u8_master_write_slave_address_with_write_req@address
  5492  0D22                     l1958:	
  5493                           
  5494                           ;i2c.c: 72:     i2c_vid_wait();
  5495  0D22  120A  158A  24AA  120A  158A  	fcall	_i2c_vid_wait
  5496  0D27                     l1960:	
  5497                           
  5498                           ;i2c.c: 74:     SSPBUF = (address << 1);
  5499  0D27  1283               	bcf	3,5	;RP0=0, select bank0
  5500  0D28  1303               	bcf	3,6	;RP1=0, select bank0
  5501  0D29  0855               	movf	i2c_u8_master_write_slave_address_with_write_req@address,w
  5502  0D2A  00D4               	movwf	??_i2c_u8_master_write_slave_address_with_write_req
  5503  0D2B  0754               	addwf	??_i2c_u8_master_write_slave_address_with_write_req,w
  5504  0D2C  0093               	movwf	19	;volatile
  5505  0D2D                     l273:	
  5506                           ;i2c.c: 76:     while(!SSPIF);
  5507                           
  5508  0D2D  1D8C               	btfss	12,3	;volatile
  5509  0D2E  2D30               	goto	u1161
  5510  0D2F  2D31               	goto	u1160
  5511  0D30                     u1161:	
  5512  0D30  2D2D               	goto	l273
  5513  0D31                     u1160:	
  5514  0D31                     l275:	
  5515                           
  5516                           ;i2c.c: 78:     SSPIF = 0;
  5517  0D31  118C               	bcf	12,3	;volatile
  5518  0D32                     l1962:	
  5519                           
  5520                           ;i2c.c: 79:     return ACKSTAT;
  5521  0D32  3000               	movlw	0
  5522  0D33  1683               	bsf	3,5	;RP0=1, select bank1
  5523  0D34  1303               	bcf	3,6	;RP1=0, select bank1
  5524  0D35  1B11               	btfsc	17,6	;volatile
  5525  0D36  3001               	movlw	1
  5526  0D37                     l276:	
  5527  0D37  0008               	return
  5528  0D38                     __end_of_i2c_u8_master_write_slave_address_with_write_req:	
  5529                           
  5530                           	psect	text34
  5531  0CC9                     __ptext34:	
  5532 ;; *************** function _i2c_u8_master_write_slave_address_with_read_req *****************
  5533 ;; Defined at:
  5534 ;;		line 82 in file "i2c.c"
  5535 ;; Parameters:    Size  Location     Type
  5536 ;;  address         1    wreg     unsigned char 
  5537 ;; Auto vars:     Size  Location     Type
  5538 ;;  address         1    6[BANK0 ] unsigned char 
  5539 ;; Return value:  Size  Location     Type
  5540 ;;                  1    wreg      unsigned char 
  5541 ;; Registers used:
  5542 ;;		wreg, status,2, status,0, pclath, cstack
  5543 ;; Tracked objects:
  5544 ;;		On entry : 0/0
  5545 ;;		On exit  : 0/0
  5546 ;;		Unchanged: 0/0
  5547 ;; Data sizes:     COMMON   BANK0   BANK1   BANK3   BANK2
  5548 ;;      Params:         0       0       0       0       0
  5549 ;;      Locals:         0       1       0       0       0
  5550 ;;      Temps:          0       0       0       0       0
  5551 ;;      Totals:         0       1       0       0       0
  5552 ;;Total ram usage:        1 bytes
  5553 ;; Hardware stack levels used:    1
  5554 ;; Hardware stack levels required when called:    4
  5555 ;; This function calls:
  5556 ;;		_i2c_vid_wait
  5557 ;; This function is called by:
  5558 ;;		_eeprom_external_vid_read
  5559 ;; This function uses a non-reentrant model
  5560 ;;
  5561                           
  5562                           
  5563                           ;psect for function _i2c_u8_master_write_slave_address_with_read_req
  5564  0CC9                     _i2c_u8_master_write_slave_address_with_read_req:	
  5565                           
  5566                           ;incstack = 0
  5567                           ; Regs used in _i2c_u8_master_write_slave_address_with_read_req: [wreg+status,2+status,0
      +                          +pclath+cstack]
  5568                           ;i2c_u8_master_write_slave_address_with_read_req@address stored from wreg
  5569  0CC9  1283               	bcf	3,5	;RP0=0, select bank0
  5570  0CCA  1303               	bcf	3,6	;RP1=0, select bank0
  5571  0CCB  00D4               	movwf	i2c_u8_master_write_slave_address_with_read_req@address
  5572  0CCC                     l1974:	
  5573                           
  5574                           ;i2c.c: 83:     i2c_vid_wait();
  5575  0CCC  120A  158A  24AA  120A  158A  	fcall	_i2c_vid_wait
  5576  0CD1                     l1976:	
  5577                           
  5578                           ;i2c.c: 85:     SSPBUF = ( (address << 1) | 1);
  5579  0CD1  1403               	setc
  5580  0CD2  1283               	bcf	3,5	;RP0=0, select bank0
  5581  0CD3  1303               	bcf	3,6	;RP1=0, select bank0
  5582  0CD4  0D54               	rlf	i2c_u8_master_write_slave_address_with_read_req@address,w
  5583  0CD5  0093               	movwf	19	;volatile
  5584  0CD6                     l279:	
  5585                           ;i2c.c: 87:     while(!SSPIF);
  5586                           
  5587  0CD6  1D8C               	btfss	12,3	;volatile
  5588  0CD7  2CD9               	goto	u1181
  5589  0CD8  2CDA               	goto	u1180
  5590  0CD9                     u1181:	
  5591  0CD9  2CD6               	goto	l279
  5592  0CDA                     u1180:	
  5593  0CDA                     l281:	
  5594                           
  5595                           ;i2c.c: 89:     SSPIF = 0;
  5596  0CDA  118C               	bcf	12,3	;volatile
  5597  0CDB                     l282:	
  5598                           ;i2c.c: 90:     return ACKSTAT;;	Return value of _i2c_u8_master_write_slave_address_with
      +                          _read_req is never used
  5599                           
  5600  0CDB  0008               	return
  5601  0CDC                     __end_of_i2c_u8_master_write_slave_address_with_read_req:	
  5602                           
  5603                           	psect	text35
  5604  0CB7                     __ptext35:	
  5605 ;; *************** function _i2c_u8_master_write_byte *****************
  5606 ;; Defined at:
  5607 ;;		line 93 in file "i2c.c"
  5608 ;; Parameters:    Size  Location     Type
  5609 ;;  data            1    wreg     unsigned char 
  5610 ;; Auto vars:     Size  Location     Type
  5611 ;;  data            1    6[BANK0 ] unsigned char 
  5612 ;; Return value:  Size  Location     Type
  5613 ;;                  1    wreg      unsigned char 
  5614 ;; Registers used:
  5615 ;;		wreg, status,2, status,0, pclath, cstack
  5616 ;; Tracked objects:
  5617 ;;		On entry : 0/0
  5618 ;;		On exit  : 0/0
  5619 ;;		Unchanged: 0/0
  5620 ;; Data sizes:     COMMON   BANK0   BANK1   BANK3   BANK2
  5621 ;;      Params:         0       0       0       0       0
  5622 ;;      Locals:         0       1       0       0       0
  5623 ;;      Temps:          0       0       0       0       0
  5624 ;;      Totals:         0       1       0       0       0
  5625 ;;Total ram usage:        1 bytes
  5626 ;; Hardware stack levels used:    1
  5627 ;; Hardware stack levels required when called:    4
  5628 ;; This function calls:
  5629 ;;		_i2c_vid_wait
  5630 ;; This function is called by:
  5631 ;;		_eeprom_external_vid_write
  5632 ;;		_eeprom_external_vid_read
  5633 ;; This function uses a non-reentrant model
  5634 ;;
  5635                           
  5636                           
  5637                           ;psect for function _i2c_u8_master_write_byte
  5638  0CB7                     _i2c_u8_master_write_byte:	
  5639                           
  5640                           ;incstack = 0
  5641                           ; Regs used in _i2c_u8_master_write_byte: [wreg+status,2+status,0+pclath+cstack]
  5642                           ;i2c_u8_master_write_byte@data stored from wreg
  5643  0CB7  1283               	bcf	3,5	;RP0=0, select bank0
  5644  0CB8  1303               	bcf	3,6	;RP1=0, select bank0
  5645  0CB9  00D4               	movwf	i2c_u8_master_write_byte@data
  5646  0CBA                     l1966:	
  5647                           
  5648                           ;i2c.c: 94:     i2c_vid_wait();
  5649  0CBA  120A  158A  24AA  120A  158A  	fcall	_i2c_vid_wait
  5650  0CBF                     l1968:	
  5651                           
  5652                           ;i2c.c: 95:     SSPBUF = data;
  5653  0CBF  1283               	bcf	3,5	;RP0=0, select bank0
  5654  0CC0  1303               	bcf	3,6	;RP1=0, select bank0
  5655  0CC1  0854               	movf	i2c_u8_master_write_byte@data,w
  5656  0CC2  0093               	movwf	19	;volatile
  5657  0CC3                     l285:	
  5658                           ;i2c.c: 97:     while(!SSPIF);
  5659                           
  5660  0CC3  1D8C               	btfss	12,3	;volatile
  5661  0CC4  2CC6               	goto	u1171
  5662  0CC5  2CC7               	goto	u1170
  5663  0CC6                     u1171:	
  5664  0CC6  2CC3               	goto	l285
  5665  0CC7                     u1170:	
  5666  0CC7                     l287:	
  5667                           
  5668                           ;i2c.c: 99:     SSPIF = 0;
  5669  0CC7  118C               	bcf	12,3	;volatile
  5670  0CC8                     l288:	
  5671                           ;i2c.c: 100:     return ACKSTAT;;	Return value of _i2c_u8_master_write_byte is never use
      +                          d
  5672                           
  5673  0CC8  0008               	return
  5674  0CC9                     __end_of_i2c_u8_master_write_byte:	
  5675                           
  5676                           	psect	text36
  5677  0CF1                     __ptext36:	
  5678 ;; *************** function _i2c_u8_master_read_byte *****************
  5679 ;; Defined at:
  5680 ;;		line 103 in file "i2c.c"
  5681 ;; Parameters:    Size  Location     Type
  5682 ;;		None
  5683 ;; Auto vars:     Size  Location     Type
  5684 ;;		None
  5685 ;; Return value:  Size  Location     Type
  5686 ;;                  1    wreg      unsigned char 
  5687 ;; Registers used:
  5688 ;;		wreg, status,2, status,0, pclath, cstack
  5689 ;; Tracked objects:
  5690 ;;		On entry : 0/0
  5691 ;;		On exit  : 0/0
  5692 ;;		Unchanged: 0/0
  5693 ;; Data sizes:     COMMON   BANK0   BANK1   BANK3   BANK2
  5694 ;;      Params:         0       0       0       0       0
  5695 ;;      Locals:         0       0       0       0       0
  5696 ;;      Temps:          0       0       0       0       0
  5697 ;;      Totals:         0       0       0       0       0
  5698 ;;Total ram usage:        0 bytes
  5699 ;; Hardware stack levels used:    1
  5700 ;; Hardware stack levels required when called:    4
  5701 ;; This function calls:
  5702 ;;		_i2c_vid_wait
  5703 ;; This function is called by:
  5704 ;;		_eeprom_external_vid_read
  5705 ;; This function uses a non-reentrant model
  5706 ;;
  5707                           
  5708                           
  5709                           ;psect for function _i2c_u8_master_read_byte
  5710  0CF1                     _i2c_u8_master_read_byte:	
  5711  0CF1                     l1978:	
  5712                           ;incstack = 0
  5713                           ; Regs used in _i2c_u8_master_read_byte: [wreg+status,2+status,0+pclath+cstack]
  5714                           
  5715                           
  5716                           ;i2c.c: 104:     i2c_vid_wait();
  5717  0CF1  120A  158A  24AA  120A  158A  	fcall	_i2c_vid_wait
  5718  0CF6                     l1980:	
  5719                           
  5720                           ;i2c.c: 106:     RCEN = 1;
  5721  0CF6  1683               	bsf	3,5	;RP0=1, select bank1
  5722  0CF7  1303               	bcf	3,6	;RP1=0, select bank1
  5723  0CF8  1591               	bsf	17,3	;volatile
  5724  0CF9                     l291:	
  5725                           ;i2c.c: 108:     while(!SSPIF);
  5726                           
  5727  0CF9  1283               	bcf	3,5	;RP0=0, select bank0
  5728  0CFA  1D8C               	btfss	12,3	;volatile
  5729  0CFB  2CFD               	goto	u1191
  5730  0CFC  2CFE               	goto	u1190
  5731  0CFD                     u1191:	
  5732  0CFD  2CF9               	goto	l291
  5733  0CFE                     u1190:	
  5734  0CFE                     l293:	
  5735                           
  5736                           ;i2c.c: 110:     SSPIF = 0;
  5737  0CFE  118C               	bcf	12,3	;volatile
  5738  0CFF                     l1982:	
  5739                           
  5740                           ;i2c.c: 111:     i2c_vid_wait();
  5741  0CFF  120A  158A  24AA  120A  158A  	fcall	_i2c_vid_wait
  5742  0D04                     l1984:	
  5743                           
  5744                           ;i2c.c: 112:     return SSPBUF;
  5745  0D04  1283               	bcf	3,5	;RP0=0, select bank0
  5746  0D05  1303               	bcf	3,6	;RP1=0, select bank0
  5747  0D06  0813               	movf	19,w	;volatile
  5748  0D07                     l294:	
  5749  0D07  0008               	return
  5750  0D08                     __end_of_i2c_u8_master_read_byte:	
  5751                           
  5752                           	psect	text37
  5753  0CAA                     __ptext37:	
  5754 ;; *************** function _i2c_vid_wait *****************
  5755 ;; Defined at:
  5756 ;;		line 55 in file "i2c.c"
  5757 ;; Parameters:    Size  Location     Type
  5758 ;;		None
  5759 ;; Auto vars:     Size  Location     Type
  5760 ;;		None
  5761 ;; Return value:  Size  Location     Type
  5762 ;;                  1    wreg      void 
  5763 ;; Registers used:
  5764 ;;		wreg, status,2
  5765 ;; Tracked objects:
  5766 ;;		On entry : 0/0
  5767 ;;		On exit  : 0/0
  5768 ;;		Unchanged: 0/0
  5769 ;; Data sizes:     COMMON   BANK0   BANK1   BANK3   BANK2
  5770 ;;      Params:         0       0       0       0       0
  5771 ;;      Locals:         0       0       0       0       0
  5772 ;;      Temps:          0       0       0       0       0
  5773 ;;      Totals:         0       0       0       0       0
  5774 ;;Total ram usage:        0 bytes
  5775 ;; Hardware stack levels used:    1
  5776 ;; Hardware stack levels required when called:    3
  5777 ;; This function calls:
  5778 ;;		Nothing
  5779 ;; This function is called by:
  5780 ;;		_i2c_vid_start
  5781 ;;		_i2c_vid_stop
  5782 ;;		_i2c_vid_restart
  5783 ;;		_i2c_vid_nack
  5784 ;;		_i2c_u8_master_write_slave_address_with_write_req
  5785 ;;		_i2c_u8_master_write_slave_address_with_read_req
  5786 ;;		_i2c_u8_master_write_byte
  5787 ;;		_i2c_u8_master_read_byte
  5788 ;;		_i2c_vid_ack
  5789 ;; This function uses a non-reentrant model
  5790 ;;
  5791                           
  5792                           
  5793                           ;psect for function _i2c_vid_wait
  5794  0CAA                     _i2c_vid_wait:	
  5795  0CAA                     l1900:	
  5796                           ;incstack = 0
  5797                           ; Regs used in _i2c_vid_wait: [wreg+status,2]
  5798                           
  5799  0CAA                     l261:	
  5800                           ;i2c.c: 56:     while ((SSPSTAT & 0x04) || (SSPCON2 & 0x1F));
  5801                           
  5802  0CAA  1683               	bsf	3,5	;RP0=1, select bank1
  5803  0CAB  1303               	bcf	3,6	;RP1=0, select bank1
  5804  0CAC  1914               	btfsc	20,2	;volatile
  5805  0CAD  2CAF               	goto	u1141
  5806  0CAE  2CB0               	goto	u1140
  5807  0CAF                     u1141:	
  5808  0CAF  2CAA               	goto	l261
  5809  0CB0                     u1140:	
  5810  0CB0                     l1902:	
  5811  0CB0  0811               	movf	17,w	;volatile
  5812  0CB1  391F               	andlw	31
  5813  0CB2  1D03               	btfss	3,2
  5814  0CB3  2CB5               	goto	u1151
  5815  0CB4  2CB6               	goto	u1150
  5816  0CB5                     u1151:	
  5817  0CB5  2CAA               	goto	l261
  5818  0CB6                     u1150:	
  5819  0CB6                     l264:	
  5820  0CB6  0008               	return
  5821  0CB7                     __end_of_i2c_vid_wait:	
  5822                           
  5823                           	psect	text38
  5824  004F                     __ptext38:	
  5825 ;; *************** function _dio_vid_set_pin_direction *****************
  5826 ;; Defined at:
  5827 ;;		line 116 in file "dio.c"
  5828 ;; Parameters:    Size  Location     Type
  5829 ;;  portNumber      1    wreg     unsigned char 
  5830 ;;  index           1    6[BANK0 ] unsigned char 
  5831 ;;  direction       1    7[BANK0 ] unsigned char 
  5832 ;; Auto vars:     Size  Location     Type
  5833 ;;  portNumber      1   10[BANK0 ] unsigned char 
  5834 ;; Return value:  Size  Location     Type
  5835 ;;                  1    wreg      void 
  5836 ;; Registers used:
  5837 ;;		wreg, fsr0l, fsr0h, status,2, status,0
  5838 ;; Tracked objects:
  5839 ;;		On entry : 0/0
  5840 ;;		On exit  : 0/0
  5841 ;;		Unchanged: 0/0
  5842 ;; Data sizes:     COMMON   BANK0   BANK1   BANK3   BANK2
  5843 ;;      Params:         0       2       0       0       0
  5844 ;;      Locals:         0       1       0       0       0
  5845 ;;      Temps:          0       2       0       0       0
  5846 ;;      Totals:         0       5       0       0       0
  5847 ;;Total ram usage:        5 bytes
  5848 ;; Hardware stack levels used:    1
  5849 ;; Hardware stack levels required when called:    3
  5850 ;; This function calls:
  5851 ;;		Nothing
  5852 ;; This function is called by:
  5853 ;;		_counter_vid_init
  5854 ;;		_display_init
  5855 ;;		_i2c_vid_master_init
  5856 ;;		_ssd_vid_init
  5857 ;; This function uses a non-reentrant model
  5858 ;;
  5859                           
  5860                           
  5861                           ;psect for function _dio_vid_set_pin_direction
  5862  004F                     _dio_vid_set_pin_direction:	
  5863                           
  5864                           ;incstack = 0
  5865                           ; Regs used in _dio_vid_set_pin_direction: [wreg-fsr0h+status,2+status,0]
  5866                           ;dio_vid_set_pin_direction@portNumber stored from wreg
  5867  004F  1283               	bcf	3,5	;RP0=0, select bank0
  5868  0050  1303               	bcf	3,6	;RP1=0, select bank0
  5869  0051  00D8               	movwf	dio_vid_set_pin_direction@portNumber
  5870  0052                     l1994:	
  5871                           
  5872                           ;dio.c: 117:  switch (portNumber) {
  5873  0052  292A               	goto	l2038
  5874  0053                     l1996:	
  5875                           
  5876                           ;dio.c: 119:   if (direction == 1)
  5877  0053  0355               	decf	dio_vid_set_pin_direction@direction,w
  5878  0054  1D03               	btfss	3,2
  5879  0055  2857               	goto	u1201
  5880  0056  2858               	goto	u1200
  5881  0057                     u1201:	
  5882  0057  2868               	goto	l2000
  5883  0058                     u1200:	
  5884  0058                     l1998:	
  5885                           
  5886                           ;dio.c: 120:    TRISA|=(1<<index);
  5887  0058  3001               	movlw	1
  5888  0059  00D6               	movwf	??_dio_vid_set_pin_direction
  5889  005A  0A54               	incf	dio_vid_set_pin_direction@index,w
  5890  005B  285E               	goto	u1214
  5891  005C                     u1215:	
  5892  005C  1003               	clrc
  5893  005D  0DD6               	rlf	??_dio_vid_set_pin_direction,f
  5894  005E                     u1214:	
  5895  005E  3EFF               	addlw	-1
  5896  005F  1D03               	skipz
  5897  0060  285C               	goto	u1215
  5898  0061  0856               	movf	??_dio_vid_set_pin_direction,w
  5899  0062  00D7               	movwf	??_dio_vid_set_pin_direction+1
  5900  0063  0857               	movf	??_dio_vid_set_pin_direction+1,w
  5901  0064  1683               	bsf	3,5	;RP0=1, select bank1
  5902  0065  1303               	bcf	3,6	;RP1=0, select bank1
  5903  0066  0485               	iorwf	5,f	;volatile
  5904  0067  2943               	goto	l141
  5905  0068                     l2000:	
  5906  0068  0855               	movf	dio_vid_set_pin_direction@direction,w
  5907  0069  1D03               	btfss	3,2
  5908  006A  286C               	goto	u1221
  5909  006B  286D               	goto	u1220
  5910  006C                     u1221:	
  5911  006C  2943               	goto	l141
  5912  006D                     u1220:	
  5913  006D                     l2002:	
  5914                           
  5915                           ;dio.c: 122:    TRISA&=~(1<<index);
  5916  006D  3001               	movlw	1
  5917  006E  00D6               	movwf	??_dio_vid_set_pin_direction
  5918  006F  0A54               	incf	dio_vid_set_pin_direction@index,w
  5919  0070  2873               	goto	u1234
  5920  0071                     u1235:	
  5921  0071  1003               	clrc
  5922  0072  0DD6               	rlf	??_dio_vid_set_pin_direction,f
  5923  0073                     u1234:	
  5924  0073  3EFF               	addlw	-1
  5925  0074  1D03               	skipz
  5926  0075  2871               	goto	u1235
  5927  0076  0856               	movf	??_dio_vid_set_pin_direction,w
  5928  0077  3AFF               	xorlw	255
  5929  0078  00D7               	movwf	??_dio_vid_set_pin_direction+1
  5930  0079  0857               	movf	??_dio_vid_set_pin_direction+1,w
  5931  007A  1683               	bsf	3,5	;RP0=1, select bank1
  5932  007B  1303               	bcf	3,6	;RP1=0, select bank1
  5933  007C  0585               	andwf	5,f	;volatile
  5934  007D  2943               	goto	l141
  5935  007E                     l2004:	
  5936                           
  5937                           ;dio.c: 125:   if (direction == 1)
  5938  007E  0355               	decf	dio_vid_set_pin_direction@direction,w
  5939  007F  1D03               	btfss	3,2
  5940  0080  2882               	goto	u1241
  5941  0081  2883               	goto	u1240
  5942  0082                     u1241:	
  5943  0082  2893               	goto	l2008
  5944  0083                     u1240:	
  5945  0083                     l2006:	
  5946                           
  5947                           ;dio.c: 126:    TRISB|=(1<<index);
  5948  0083  3001               	movlw	1
  5949  0084  00D6               	movwf	??_dio_vid_set_pin_direction
  5950  0085  0A54               	incf	dio_vid_set_pin_direction@index,w
  5951  0086  2889               	goto	u1254
  5952  0087                     u1255:	
  5953  0087  1003               	clrc
  5954  0088  0DD6               	rlf	??_dio_vid_set_pin_direction,f
  5955  0089                     u1254:	
  5956  0089  3EFF               	addlw	-1
  5957  008A  1D03               	skipz
  5958  008B  2887               	goto	u1255
  5959  008C  0856               	movf	??_dio_vid_set_pin_direction,w
  5960  008D  00D7               	movwf	??_dio_vid_set_pin_direction+1
  5961  008E  0857               	movf	??_dio_vid_set_pin_direction+1,w
  5962  008F  1683               	bsf	3,5	;RP0=1, select bank1
  5963  0090  1303               	bcf	3,6	;RP1=0, select bank1
  5964  0091  0486               	iorwf	6,f	;volatile
  5965  0092  2943               	goto	l141
  5966  0093                     l2008:	
  5967  0093  0855               	movf	dio_vid_set_pin_direction@direction,w
  5968  0094  1D03               	btfss	3,2
  5969  0095  2897               	goto	u1261
  5970  0096  2898               	goto	u1260
  5971  0097                     u1261:	
  5972  0097  2943               	goto	l141
  5973  0098                     u1260:	
  5974  0098                     l2010:	
  5975                           
  5976                           ;dio.c: 128:    TRISB&=~(1<<index);
  5977  0098  3001               	movlw	1
  5978  0099  00D6               	movwf	??_dio_vid_set_pin_direction
  5979  009A  0A54               	incf	dio_vid_set_pin_direction@index,w
  5980  009B  289E               	goto	u1274
  5981  009C                     u1275:	
  5982  009C  1003               	clrc
  5983  009D  0DD6               	rlf	??_dio_vid_set_pin_direction,f
  5984  009E                     u1274:	
  5985  009E  3EFF               	addlw	-1
  5986  009F  1D03               	skipz
  5987  00A0  289C               	goto	u1275
  5988  00A1  0856               	movf	??_dio_vid_set_pin_direction,w
  5989  00A2  3AFF               	xorlw	255
  5990  00A3  00D7               	movwf	??_dio_vid_set_pin_direction+1
  5991  00A4  0857               	movf	??_dio_vid_set_pin_direction+1,w
  5992  00A5  1683               	bsf	3,5	;RP0=1, select bank1
  5993  00A6  1303               	bcf	3,6	;RP1=0, select bank1
  5994  00A7  0586               	andwf	6,f	;volatile
  5995  00A8  2943               	goto	l141
  5996  00A9                     l2012:	
  5997                           
  5998                           ;dio.c: 131:   if (direction == 1)
  5999  00A9  0355               	decf	dio_vid_set_pin_direction@direction,w
  6000  00AA  1D03               	btfss	3,2
  6001  00AB  28AD               	goto	u1281
  6002  00AC  28AE               	goto	u1280
  6003  00AD                     u1281:	
  6004  00AD  28BE               	goto	l2016
  6005  00AE                     u1280:	
  6006  00AE                     l2014:	
  6007                           
  6008                           ;dio.c: 132:    TRISC|=(1<<index);
  6009  00AE  3001               	movlw	1
  6010  00AF  00D6               	movwf	??_dio_vid_set_pin_direction
  6011  00B0  0A54               	incf	dio_vid_set_pin_direction@index,w
  6012  00B1  28B4               	goto	u1294
  6013  00B2                     u1295:	
  6014  00B2  1003               	clrc
  6015  00B3  0DD6               	rlf	??_dio_vid_set_pin_direction,f
  6016  00B4                     u1294:	
  6017  00B4  3EFF               	addlw	-1
  6018  00B5  1D03               	skipz
  6019  00B6  28B2               	goto	u1295
  6020  00B7  0856               	movf	??_dio_vid_set_pin_direction,w
  6021  00B8  00D7               	movwf	??_dio_vid_set_pin_direction+1
  6022  00B9  0857               	movf	??_dio_vid_set_pin_direction+1,w
  6023  00BA  1683               	bsf	3,5	;RP0=1, select bank1
  6024  00BB  1303               	bcf	3,6	;RP1=0, select bank1
  6025  00BC  0487               	iorwf	7,f	;volatile
  6026  00BD  2943               	goto	l141
  6027  00BE                     l2016:	
  6028  00BE  0855               	movf	dio_vid_set_pin_direction@direction,w
  6029  00BF  1D03               	btfss	3,2
  6030  00C0  28C2               	goto	u1301
  6031  00C1  28C3               	goto	u1300
  6032  00C2                     u1301:	
  6033  00C2  2943               	goto	l141
  6034  00C3                     u1300:	
  6035  00C3                     l2018:	
  6036                           
  6037                           ;dio.c: 134:    TRISC&=~(1<<index);
  6038  00C3  3001               	movlw	1
  6039  00C4  00D6               	movwf	??_dio_vid_set_pin_direction
  6040  00C5  0A54               	incf	dio_vid_set_pin_direction@index,w
  6041  00C6  28C9               	goto	u1314
  6042  00C7                     u1315:	
  6043  00C7  1003               	clrc
  6044  00C8  0DD6               	rlf	??_dio_vid_set_pin_direction,f
  6045  00C9                     u1314:	
  6046  00C9  3EFF               	addlw	-1
  6047  00CA  1D03               	skipz
  6048  00CB  28C7               	goto	u1315
  6049  00CC  0856               	movf	??_dio_vid_set_pin_direction,w
  6050  00CD  3AFF               	xorlw	255
  6051  00CE  00D7               	movwf	??_dio_vid_set_pin_direction+1
  6052  00CF  0857               	movf	??_dio_vid_set_pin_direction+1,w
  6053  00D0  1683               	bsf	3,5	;RP0=1, select bank1
  6054  00D1  1303               	bcf	3,6	;RP1=0, select bank1
  6055  00D2  0587               	andwf	7,f	;volatile
  6056  00D3  2943               	goto	l141
  6057  00D4                     l2020:	
  6058                           
  6059                           ;dio.c: 137:   if (direction == 1)
  6060  00D4  0355               	decf	dio_vid_set_pin_direction@direction,w
  6061  00D5  1D03               	btfss	3,2
  6062  00D6  28D8               	goto	u1321
  6063  00D7  28D9               	goto	u1320
  6064  00D8                     u1321:	
  6065  00D8  28E9               	goto	l2024
  6066  00D9                     u1320:	
  6067  00D9                     l2022:	
  6068                           
  6069                           ;dio.c: 138:    TRISD|=(1<<index);
  6070  00D9  3001               	movlw	1
  6071  00DA  00D6               	movwf	??_dio_vid_set_pin_direction
  6072  00DB  0A54               	incf	dio_vid_set_pin_direction@index,w
  6073  00DC  28DF               	goto	u1334
  6074  00DD                     u1335:	
  6075  00DD  1003               	clrc
  6076  00DE  0DD6               	rlf	??_dio_vid_set_pin_direction,f
  6077  00DF                     u1334:	
  6078  00DF  3EFF               	addlw	-1
  6079  00E0  1D03               	skipz
  6080  00E1  28DD               	goto	u1335
  6081  00E2  0856               	movf	??_dio_vid_set_pin_direction,w
  6082  00E3  00D7               	movwf	??_dio_vid_set_pin_direction+1
  6083  00E4  0857               	movf	??_dio_vid_set_pin_direction+1,w
  6084  00E5  1683               	bsf	3,5	;RP0=1, select bank1
  6085  00E6  1303               	bcf	3,6	;RP1=0, select bank1
  6086  00E7  0488               	iorwf	8,f	;volatile
  6087  00E8  2943               	goto	l141
  6088  00E9                     l2024:	
  6089  00E9  0855               	movf	dio_vid_set_pin_direction@direction,w
  6090  00EA  1D03               	btfss	3,2
  6091  00EB  28ED               	goto	u1341
  6092  00EC  28EE               	goto	u1340
  6093  00ED                     u1341:	
  6094  00ED  2943               	goto	l141
  6095  00EE                     u1340:	
  6096  00EE                     l2026:	
  6097                           
  6098                           ;dio.c: 140:    TRISD&=~(1<<index);
  6099  00EE  3001               	movlw	1
  6100  00EF  00D6               	movwf	??_dio_vid_set_pin_direction
  6101  00F0  0A54               	incf	dio_vid_set_pin_direction@index,w
  6102  00F1  28F4               	goto	u1354
  6103  00F2                     u1355:	
  6104  00F2  1003               	clrc
  6105  00F3  0DD6               	rlf	??_dio_vid_set_pin_direction,f
  6106  00F4                     u1354:	
  6107  00F4  3EFF               	addlw	-1
  6108  00F5  1D03               	skipz
  6109  00F6  28F2               	goto	u1355
  6110  00F7  0856               	movf	??_dio_vid_set_pin_direction,w
  6111  00F8  3AFF               	xorlw	255
  6112  00F9  00D7               	movwf	??_dio_vid_set_pin_direction+1
  6113  00FA  0857               	movf	??_dio_vid_set_pin_direction+1,w
  6114  00FB  1683               	bsf	3,5	;RP0=1, select bank1
  6115  00FC  1303               	bcf	3,6	;RP1=0, select bank1
  6116  00FD  0588               	andwf	8,f	;volatile
  6117  00FE  2943               	goto	l141
  6118  00FF                     l2028:	
  6119                           
  6120                           ;dio.c: 143:   if (direction == 1)
  6121  00FF  0355               	decf	dio_vid_set_pin_direction@direction,w
  6122  0100  1D03               	btfss	3,2
  6123  0101  2903               	goto	u1361
  6124  0102  2904               	goto	u1360
  6125  0103                     u1361:	
  6126  0103  2914               	goto	l2032
  6127  0104                     u1360:	
  6128  0104                     l2030:	
  6129                           
  6130                           ;dio.c: 144:    TRISE|=(1<<index);
  6131  0104  3001               	movlw	1
  6132  0105  00D6               	movwf	??_dio_vid_set_pin_direction
  6133  0106  0A54               	incf	dio_vid_set_pin_direction@index,w
  6134  0107  290A               	goto	u1374
  6135  0108                     u1375:	
  6136  0108  1003               	clrc
  6137  0109  0DD6               	rlf	??_dio_vid_set_pin_direction,f
  6138  010A                     u1374:	
  6139  010A  3EFF               	addlw	-1
  6140  010B  1D03               	skipz
  6141  010C  2908               	goto	u1375
  6142  010D  0856               	movf	??_dio_vid_set_pin_direction,w
  6143  010E  00D7               	movwf	??_dio_vid_set_pin_direction+1
  6144  010F  0857               	movf	??_dio_vid_set_pin_direction+1,w
  6145  0110  1683               	bsf	3,5	;RP0=1, select bank1
  6146  0111  1303               	bcf	3,6	;RP1=0, select bank1
  6147  0112  0489               	iorwf	9,f	;volatile
  6148  0113  2943               	goto	l141
  6149  0114                     l2032:	
  6150  0114  0855               	movf	dio_vid_set_pin_direction@direction,w
  6151  0115  1D03               	btfss	3,2
  6152  0116  2918               	goto	u1381
  6153  0117  2919               	goto	u1380
  6154  0118                     u1381:	
  6155  0118  2943               	goto	l141
  6156  0119                     u1380:	
  6157  0119                     l2034:	
  6158                           
  6159                           ;dio.c: 146:    TRISE&=~(1<<index);
  6160  0119  3001               	movlw	1
  6161  011A  00D6               	movwf	??_dio_vid_set_pin_direction
  6162  011B  0A54               	incf	dio_vid_set_pin_direction@index,w
  6163  011C  291F               	goto	u1394
  6164  011D                     u1395:	
  6165  011D  1003               	clrc
  6166  011E  0DD6               	rlf	??_dio_vid_set_pin_direction,f
  6167  011F                     u1394:	
  6168  011F  3EFF               	addlw	-1
  6169  0120  1D03               	skipz
  6170  0121  291D               	goto	u1395
  6171  0122  0856               	movf	??_dio_vid_set_pin_direction,w
  6172  0123  3AFF               	xorlw	255
  6173  0124  00D7               	movwf	??_dio_vid_set_pin_direction+1
  6174  0125  0857               	movf	??_dio_vid_set_pin_direction+1,w
  6175  0126  1683               	bsf	3,5	;RP0=1, select bank1
  6176  0127  1303               	bcf	3,6	;RP1=0, select bank1
  6177  0128  0589               	andwf	9,f	;volatile
  6178  0129  2943               	goto	l141
  6179  012A                     l2038:	
  6180  012A  0858               	movf	dio_vid_set_pin_direction@portNumber,w
  6181  012B  00D6               	movwf	??_dio_vid_set_pin_direction
  6182  012C  01D7               	clrf	??_dio_vid_set_pin_direction+1
  6183                           
  6184                           ; Switch on 2 bytes has been partitioned into a top level switch of size 1, and 1 sub-sw
      +                          itches
  6185                           ; Switch size 1, requested type "simple"
  6186                           ; Number of cases is 1, Range of values is 0 to 0
  6187                           ; switch strategies available:
  6188                           ; Name         Instructions Cycles
  6189                           ; simple_byte            4     3 (average)
  6190                           ; direct_byte           11     8 (fixed)
  6191                           ; jumptable            260     6 (fixed)
  6192                           ;	Chosen strategy is simple_byte
  6193  012D  0857               	movf	??_dio_vid_set_pin_direction+1,w
  6194  012E  3A00               	xorlw	0	; case 0
  6195  012F  1903               	skipnz
  6196  0130  2932               	goto	l2814
  6197  0131  2943               	goto	l141
  6198  0132                     l2814:	
  6199                           
  6200                           ; Switch size 1, requested type "simple"
  6201                           ; Number of cases is 5, Range of values is 0 to 4
  6202                           ; switch strategies available:
  6203                           ; Name         Instructions Cycles
  6204                           ; simple_byte           16     9 (average)
  6205                           ; direct_byte           23     8 (fixed)
  6206                           ; jumptable            260     6 (fixed)
  6207                           ;	Chosen strategy is simple_byte
  6208  0132  0856               	movf	??_dio_vid_set_pin_direction,w
  6209  0133  3A00               	xorlw	0	; case 0
  6210  0134  1903               	skipnz
  6211  0135  2853               	goto	l1996
  6212  0136  3A01               	xorlw	1	; case 1
  6213  0137  1903               	skipnz
  6214  0138  287E               	goto	l2004
  6215  0139  3A03               	xorlw	3	; case 2
  6216  013A  1903               	skipnz
  6217  013B  28A9               	goto	l2012
  6218  013C  3A01               	xorlw	1	; case 3
  6219  013D  1903               	skipnz
  6220  013E  28D4               	goto	l2020
  6221  013F  3A07               	xorlw	7	; case 4
  6222  0140  1903               	skipnz
  6223  0141  28FF               	goto	l2028
  6224  0142  2943               	goto	l141
  6225  0143                     l141:	
  6226  0143  0008               	return
  6227  0144                     __end_of_dio_vid_set_pin_direction:	
  6228                           
  6229                           	psect	text39
  6230  06AE                     __ptext39:	
  6231 ;; *************** function ___awmod *****************
  6232 ;; Defined at:
  6233 ;;		line 5 in file "C:\Program Files (x86)\Microchip\xc8\v2.10\pic\sources\c90\common\awmod.c"
  6234 ;; Parameters:    Size  Location     Type
  6235 ;;  divisor         2    6[BANK0 ] int 
  6236 ;;  dividend        2    8[BANK0 ] int 
  6237 ;; Auto vars:     Size  Location     Type
  6238 ;;  sign            1   12[BANK0 ] unsigned char 
  6239 ;;  counter         1   11[BANK0 ] unsigned char 
  6240 ;; Return value:  Size  Location     Type
  6241 ;;                  2    6[BANK0 ] int 
  6242 ;; Registers used:
  6243 ;;		wreg, status,2, status,0
  6244 ;; Tracked objects:
  6245 ;;		On entry : 0/0
  6246 ;;		On exit  : 0/0
  6247 ;;		Unchanged: 0/0
  6248 ;; Data sizes:     COMMON   BANK0   BANK1   BANK3   BANK2
  6249 ;;      Params:         0       4       0       0       0
  6250 ;;      Locals:         0       2       0       0       0
  6251 ;;      Temps:          0       1       0       0       0
  6252 ;;      Totals:         0       7       0       0       0
  6253 ;;Total ram usage:        7 bytes
  6254 ;; Hardware stack levels used:    1
  6255 ;; Hardware stack levels required when called:    3
  6256 ;; This function calls:
  6257 ;;		Nothing
  6258 ;; This function is called by:
  6259 ;;		_counter_vid_init
  6260 ;; This function uses a non-reentrant model
  6261 ;;
  6262                           
  6263                           
  6264                           ;psect for function ___awmod
  6265  06AE                     ___awmod:	
  6266  06AE                     l2250:	
  6267                           ;incstack = 0
  6268                           ; Regs used in ___awmod: [wreg+status,2+status,0]
  6269                           
  6270  06AE  1283               	bcf	3,5	;RP0=0, select bank0
  6271  06AF  1303               	bcf	3,6	;RP1=0, select bank0
  6272  06B0  01DA               	clrf	___awmod@sign
  6273  06B1                     l2252:	
  6274  06B1  1FD7               	btfss	___awmod@dividend+1,7
  6275  06B2  2EB4               	goto	u1651
  6276  06B3  2EB5               	goto	u1650
  6277  06B4                     u1651:	
  6278  06B4  2EBC               	goto	l2258
  6279  06B5                     u1650:	
  6280  06B5                     l2254:	
  6281  06B5  09D6               	comf	___awmod@dividend,f
  6282  06B6  09D7               	comf	___awmod@dividend+1,f
  6283  06B7  0AD6               	incf	___awmod@dividend,f
  6284  06B8  1903               	skipnz
  6285  06B9  0AD7               	incf	___awmod@dividend+1,f
  6286  06BA                     l2256:	
  6287  06BA  01DA               	clrf	___awmod@sign
  6288  06BB  0ADA               	incf	___awmod@sign,f
  6289  06BC                     l2258:	
  6290  06BC  1FD5               	btfss	___awmod@divisor+1,7
  6291  06BD  2EBF               	goto	u1661
  6292  06BE  2EC0               	goto	u1660
  6293  06BF                     u1661:	
  6294  06BF  2EC5               	goto	l2262
  6295  06C0                     u1660:	
  6296  06C0                     l2260:	
  6297  06C0  09D4               	comf	___awmod@divisor,f
  6298  06C1  09D5               	comf	___awmod@divisor+1,f
  6299  06C2  0AD4               	incf	___awmod@divisor,f
  6300  06C3  1903               	skipnz
  6301  06C4  0AD5               	incf	___awmod@divisor+1,f
  6302  06C5                     l2262:	
  6303  06C5  0854               	movf	___awmod@divisor,w
  6304  06C6  0455               	iorwf	___awmod@divisor+1,w
  6305  06C7  1903               	btfsc	3,2
  6306  06C8  2ECA               	goto	u1671
  6307  06C9  2ECB               	goto	u1670
  6308  06CA                     u1671:	
  6309  06CA  2EFA               	goto	l2280
  6310  06CB                     u1670:	
  6311  06CB                     l2264:	
  6312  06CB  01D9               	clrf	___awmod@counter
  6313  06CC  0AD9               	incf	___awmod@counter,f
  6314  06CD  2ED9               	goto	l2270
  6315  06CE                     l2266:	
  6316  06CE  3001               	movlw	1
  6317  06CF                     u1685:	
  6318  06CF  1003               	clrc
  6319  06D0  0DD4               	rlf	___awmod@divisor,f
  6320  06D1  0DD5               	rlf	___awmod@divisor+1,f
  6321  06D2  3EFF               	addlw	-1
  6322  06D3  1D03               	skipz
  6323  06D4  2ECF               	goto	u1685
  6324  06D5                     l2268:	
  6325  06D5  3001               	movlw	1
  6326  06D6  00D8               	movwf	??___awmod
  6327  06D7  0858               	movf	??___awmod,w
  6328  06D8  07D9               	addwf	___awmod@counter,f
  6329  06D9                     l2270:	
  6330  06D9  1FD5               	btfss	___awmod@divisor+1,7
  6331  06DA  2EDC               	goto	u1691
  6332  06DB  2EDD               	goto	u1690
  6333  06DC                     u1691:	
  6334  06DC  2ECE               	goto	l2266
  6335  06DD                     u1690:	
  6336  06DD                     l2272:	
  6337  06DD  0855               	movf	___awmod@divisor+1,w
  6338  06DE  0257               	subwf	___awmod@dividend+1,w
  6339  06DF  1D03               	skipz
  6340  06E0  2EE3               	goto	u1705
  6341  06E1  0854               	movf	___awmod@divisor,w
  6342  06E2  0256               	subwf	___awmod@dividend,w
  6343  06E3                     u1705:	
  6344  06E3  1C03               	skipc
  6345  06E4  2EE6               	goto	u1701
  6346  06E5  2EE7               	goto	u1700
  6347  06E6                     u1701:	
  6348  06E6  2EED               	goto	l2276
  6349  06E7                     u1700:	
  6350  06E7                     l2274:	
  6351  06E7  0854               	movf	___awmod@divisor,w
  6352  06E8  02D6               	subwf	___awmod@dividend,f
  6353  06E9  0855               	movf	___awmod@divisor+1,w
  6354  06EA  1C03               	skipc
  6355  06EB  03D7               	decf	___awmod@dividend+1,f
  6356  06EC  02D7               	subwf	___awmod@dividend+1,f
  6357  06ED                     l2276:	
  6358  06ED  3001               	movlw	1
  6359  06EE                     u1715:	
  6360  06EE  1003               	clrc
  6361  06EF  0CD5               	rrf	___awmod@divisor+1,f
  6362  06F0  0CD4               	rrf	___awmod@divisor,f
  6363  06F1  3EFF               	addlw	-1
  6364  06F2  1D03               	skipz
  6365  06F3  2EEE               	goto	u1715
  6366  06F4                     l2278:	
  6367  06F4  3001               	movlw	1
  6368  06F5  02D9               	subwf	___awmod@counter,f
  6369  06F6  1D03               	btfss	3,2
  6370  06F7  2EF9               	goto	u1721
  6371  06F8  2EFA               	goto	u1720
  6372  06F9                     u1721:	
  6373  06F9  2EDD               	goto	l2272
  6374  06FA                     u1720:	
  6375  06FA                     l2280:	
  6376  06FA  085A               	movf	___awmod@sign,w
  6377  06FB  1903               	btfsc	3,2
  6378  06FC  2EFE               	goto	u1731
  6379  06FD  2EFF               	goto	u1730
  6380  06FE                     u1731:	
  6381  06FE  2F04               	goto	l2284
  6382  06FF                     u1730:	
  6383  06FF                     l2282:	
  6384  06FF  09D6               	comf	___awmod@dividend,f
  6385  0700  09D7               	comf	___awmod@dividend+1,f
  6386  0701  0AD6               	incf	___awmod@dividend,f
  6387  0702  1903               	skipnz
  6388  0703  0AD7               	incf	___awmod@dividend+1,f
  6389  0704                     l2284:	
  6390  0704  0857               	movf	___awmod@dividend+1,w
  6391  0705  00D5               	movwf	?___awmod+1
  6392  0706  0856               	movf	___awmod@dividend,w
  6393  0707  00D4               	movwf	?___awmod
  6394  0708                     l728:	
  6395  0708  0008               	return
  6396  0709                     __end_of___awmod:	
  6397                           
  6398                           	psect	text40
  6399  0C4E                     __ptext40:	
  6400 ;; *************** function _counter_u8_get_counter *****************
  6401 ;; Defined at:
  6402 ;;		line 60 in file "counter.c"
  6403 ;; Parameters:    Size  Location     Type
  6404 ;;		None
  6405 ;; Auto vars:     Size  Location     Type
  6406 ;;		None
  6407 ;; Return value:  Size  Location     Type
  6408 ;;                  1    wreg      unsigned char 
  6409 ;; Registers used:
  6410 ;;		wreg
  6411 ;; Tracked objects:
  6412 ;;		On entry : 0/0
  6413 ;;		On exit  : 0/0
  6414 ;;		Unchanged: 0/0
  6415 ;; Data sizes:     COMMON   BANK0   BANK1   BANK3   BANK2
  6416 ;;      Params:         0       0       0       0       0
  6417 ;;      Locals:         0       0       0       0       0
  6418 ;;      Temps:          0       0       0       0       0
  6419 ;;      Totals:         0       0       0       0       0
  6420 ;;Total ram usage:        0 bytes
  6421 ;; Hardware stack levels used:    1
  6422 ;; Hardware stack levels required when called:    3
  6423 ;; This function calls:
  6424 ;;		Nothing
  6425 ;; This function is called by:
  6426 ;;		_display_init
  6427 ;;		_display_vid_update
  6428 ;; This function uses a non-reentrant model
  6429 ;;
  6430                           
  6431                           
  6432                           ;psect for function _counter_u8_get_counter
  6433  0C4E                     _counter_u8_get_counter:	
  6434  0C4E                     l2074:	
  6435                           ;incstack = 0
  6436                           ; Regs used in _counter_u8_get_counter: [wreg]
  6437                           
  6438                           
  6439                           ;counter.c: 61:     return counter;
  6440  0C4E  1283               	bcf	3,5	;RP0=0, select bank0
  6441  0C4F  1303               	bcf	3,6	;RP1=0, select bank0
  6442  0C50  0866               	movf	_counter,w
  6443  0C51                     l38:	
  6444  0C51  0008               	return
  6445  0C52                     __end_of_counter_u8_get_counter:	
  6446                           
  6447                           	psect	text41
  6448  0763                     __ptext41:	
  6449 ;; *************** function _timer_isr *****************
  6450 ;; Defined at:
  6451 ;;		line 21 in file "timer.c"
  6452 ;; Parameters:    Size  Location     Type
  6453 ;;		None
  6454 ;; Auto vars:     Size  Location     Type
  6455 ;;		None
  6456 ;; Return value:  Size  Location     Type
  6457 ;;                  1    wreg      void 
  6458 ;; Registers used:
  6459 ;;		wreg, fsr0l, fsr0h, status,2, status,0, pclath, cstack
  6460 ;; Tracked objects:
  6461 ;;		On entry : 0/0
  6462 ;;		On exit  : 0/0
  6463 ;;		Unchanged: 0/0
  6464 ;; Data sizes:     COMMON   BANK0   BANK1   BANK3   BANK2
  6465 ;;      Params:         0       0       0       0       0
  6466 ;;      Locals:         0       0       0       0       0
  6467 ;;      Temps:          0       6       0       0       0
  6468 ;;      Totals:         0       6       0       0       0
  6469 ;;Total ram usage:        6 bytes
  6470 ;; Hardware stack levels used:    1
  6471 ;; Hardware stack levels required when called:    2
  6472 ;; This function calls:
  6473 ;;		Absolute function
  6474 ;;		_sch_update
  6475 ;; This function is called by:
  6476 ;;		Interrupt level 1
  6477 ;; This function uses a non-reentrant model
  6478 ;;
  6479                           
  6480                           
  6481                           ;psect for function _timer_isr
  6482  0763                     _timer_isr:	
  6483  0763                     i1l2566:	
  6484                           
  6485                           ;timer.c: 22:     if (TMR0IF == 1) {
  6486  0763  1D0B               	btfss	11,2	;volatile
  6487  0764  2F66               	goto	u220_21
  6488  0765  2F67               	goto	u220_20
  6489  0766                     u220_21:	
  6490  0766  2F6E               	goto	i1l2572
  6491  0767                     u220_20:	
  6492  0767                     i1l2568:	
  6493                           
  6494                           ;timer.c: 23:         TMR0IF = 0;
  6495  0767  110B               	bcf	11,2	;volatile
  6496  0768                     i1l2570:	
  6497                           
  6498                           ;timer.c: 24:         timer0_isr();
  6499  0768  087C               	movf	_timer0_isr,w
  6500  0769  120A  118A  2046  120A  118A  	fcall	i1fptable
  6501  076E                     i1l2572:	
  6502                           
  6503                           ;timer.c: 26:     if (((PIR1>>TMR1IF)&1) == 1) {
  6504  076E  1283               	bcf	3,5	;RP0=0, select bank0
  6505  076F  1303               	bcf	3,6	;RP1=0, select bank0
  6506  0770  080C               	movf	12,w	;volatile
  6507  0771  00CE               	movwf	??_timer_isr
  6508  0772  3000               	movlw	0
  6509  0773  180C               	btfsc	12,0	;volatile
  6510  0774  3001               	movlw	1
  6511  0775  3E01               	addlw	1
  6512  0776  2F79               	goto	u221_24
  6513  0777                     u221_25:	
  6514  0777  1003               	clrc
  6515  0778  0CCE               	rrf	??_timer_isr,f
  6516  0779                     u221_24:	
  6517  0779  3EFF               	addlw	-1
  6518  077A  1D03               	skipz
  6519  077B  2F77               	goto	u221_25
  6520  077C  1C4E               	btfss	??_timer_isr,0
  6521  077D  2F7F               	goto	u222_21
  6522  077E  2F80               	goto	u222_20
  6523  077F                     u222_21:	
  6524  077F  2F91               	goto	i1l451
  6525  0780                     u222_20:	
  6526  0780                     i1l2574:	
  6527                           
  6528                           ;timer.c: 28:         timer1_isr();
  6529  0780  3001               	movlw	1
  6530  0781  00CE               	movwf	??_timer_isr
  6531  0782  3000               	movlw	0
  6532  0783  180C               	btfsc	12,0	;volatile
  6533  0784  3001               	movlw	1
  6534  0785  3E01               	addlw	1
  6535  0786  2F89               	goto	u223_24
  6536  0787                     u223_25:	
  6537  0787  1003               	clrc
  6538  0788  0DCE               	rlf	??_timer_isr,f
  6539  0789                     u223_24:	
  6540  0789  3EFF               	addlw	-1
  6541  078A  1D03               	skipz
  6542  078B  2F87               	goto	u223_25
  6543  078C  084E               	movf	??_timer_isr,w
  6544  078D  3AFF               	xorlw	255
  6545  078E  00CF               	movwf	??_timer_isr+1
  6546  078F  084F               	movf	??_timer_isr+1,w
  6547  0790  058C               	andwf	12,f	;volatile
  6548  0791                     i1l451:	
  6549                           ;timer.c: 29:     }
  6550                           
  6551                           
  6552                           ;timer.c: 30:     if (((PIR1>>TMR2IF)&1) == 1) {
  6553  0791  080C               	movf	12,w	;volatile
  6554  0792  00CE               	movwf	??_timer_isr
  6555  0793  3000               	movlw	0
  6556  0794  188C               	btfsc	12,1	;volatile
  6557  0795  3001               	movlw	1
  6558  0796  3E01               	addlw	1
  6559  0797  2F9A               	goto	u224_24
  6560  0798                     u224_25:	
  6561  0798  1003               	clrc
  6562  0799  0CCE               	rrf	??_timer_isr,f
  6563  079A                     u224_24:	
  6564  079A  3EFF               	addlw	-1
  6565  079B  1D03               	skipz
  6566  079C  2F98               	goto	u224_25
  6567  079D  1C4E               	btfss	??_timer_isr,0
  6568  079E  2FA0               	goto	u225_21
  6569  079F  2FA1               	goto	u225_20
  6570  07A0                     u225_21:	
  6571  07A0  2FB2               	goto	i1l453
  6572  07A1                     u225_20:	
  6573  07A1                     i1l2576:	
  6574                           
  6575                           ;timer.c: 32:         timer2_isr();
  6576  07A1  3001               	movlw	1
  6577  07A2  00CE               	movwf	??_timer_isr
  6578  07A3  3000               	movlw	0
  6579  07A4  188C               	btfsc	12,1	;volatile
  6580  07A5  3001               	movlw	1
  6581  07A6  3E01               	addlw	1
  6582  07A7  2FAA               	goto	u226_24
  6583  07A8                     u226_25:	
  6584  07A8  1003               	clrc
  6585  07A9  0DCE               	rlf	??_timer_isr,f
  6586  07AA                     u226_24:	
  6587  07AA  3EFF               	addlw	-1
  6588  07AB  1D03               	skipz
  6589  07AC  2FA8               	goto	u226_25
  6590  07AD  084E               	movf	??_timer_isr,w
  6591  07AE  3AFF               	xorlw	255
  6592  07AF  00CF               	movwf	??_timer_isr+1
  6593  07B0  084F               	movf	??_timer_isr+1,w
  6594  07B1  058C               	andwf	12,f	;volatile
  6595  07B2                     i1l453:	
  6596  07B2  0853               	movf	??_timer_isr+5,w
  6597  07B3  00FF               	movwf	btemp+1
  6598  07B4  0852               	movf	??_timer_isr+4,w
  6599  07B5  008A               	movwf	10
  6600  07B6  0851               	movf	??_timer_isr+3,w
  6601  07B7  0084               	movwf	4
  6602  07B8  0E50               	swapf	(??_timer_isr+2)^0,w
  6603  07B9  0083               	movwf	3
  6604  07BA  0EFE               	swapf	btemp,f
  6605  07BB  0E7E               	swapf	btemp,w
  6606  07BC  0009               	retfie
  6607  07BD                     __end_of_timer_isr:	
  6608                           
  6609                           	psect	intentry
  6610  0004                     __pintentry:	
  6611                           ;incstack = 0
  6612                           ; Regs used in _timer_isr: [wreg-fsr0h+status,2+status,0+pclath+cstack]
  6613                           
  6614  0004                     interrupt_function:	
  6615  007E                     saved_w	set	btemp
  6616  0004  00FE               	movwf	btemp
  6617  0005  0E03               	swapf	3,w
  6618  0006  1283               	bcf	3,5	;RP0=0, select bank0
  6619  0007  1303               	bcf	3,6	;RP1=0, select bank0
  6620  0008  00D0               	movwf	??_timer_isr+2
  6621  0009  0804               	movf	4,w
  6622  000A  00D1               	movwf	??_timer_isr+3
  6623  000B  080A               	movf	10,w
  6624  000C  00D2               	movwf	??_timer_isr+4
  6625  000D  087F               	movf	btemp+1,w
  6626  000E  00D3               	movwf	??_timer_isr+5
  6627  000F  120A  118A  2F63   	ljmp	_timer_isr
  6628                           
  6629                           	psect	text42
  6630  0225                     __ptext42:	
  6631 ;; *************** function _sch_update *****************
  6632 ;; Defined at:
  6633 ;;		line 29 in file "scheduler.c"
  6634 ;; Parameters:    Size  Location     Type
  6635 ;;		None
  6636 ;; Auto vars:     Size  Location     Type
  6637 ;;  index           1   10[COMMON] unsigned char 
  6638 ;; Return value:  Size  Location     Type
  6639 ;;                  1    wreg      void 
  6640 ;; Registers used:
  6641 ;;		wreg, fsr0l, fsr0h, status,2, status,0, pclath, cstack
  6642 ;; Tracked objects:
  6643 ;;		On entry : 0/0
  6644 ;;		On exit  : 0/0
  6645 ;;		Unchanged: 0/0
  6646 ;; Data sizes:     COMMON   BANK0   BANK1   BANK3   BANK2
  6647 ;;      Params:         0       0       0       0       0
  6648 ;;      Locals:         1       0       0       0       0
  6649 ;;      Temps:          6       0       0       0       0
  6650 ;;      Totals:         7       0       0       0       0
  6651 ;;Total ram usage:        7 bytes
  6652 ;; Hardware stack levels used:    1
  6653 ;; Hardware stack levels required when called:    1
  6654 ;; This function calls:
  6655 ;;		i1___bmul
  6656 ;; This function is called by:
  6657 ;;		_sch_vid_init
  6658 ;;		_timer_isr
  6659 ;; This function uses a non-reentrant model
  6660 ;;
  6661                           
  6662                           
  6663                           ;psect for function _sch_update
  6664  0225                     _sch_update:	
  6665  0225                     i1l2536:	
  6666                           ;incstack = 0
  6667                           ; Regs used in _sch_update: [wreg-fsr0h+status,2+status,0+pclath+cstack]
  6668                           
  6669                           
  6670                           ;scheduler.c: 30:     u8 index;;scheduler.c: 31:     for (index = 0; index < 3; index++)
      +                           {
  6671  0225  01FA               	clrf	sch_update@index
  6672  0226                     i1l2542:	
  6673                           
  6674                           ;scheduler.c: 33:         if (sch_tasks[index].taskFunction) {
  6675  0226  300D               	movlw	13
  6676  0227  00F4               	movwf	??_sch_update
  6677  0228  0874               	movf	??_sch_update,w
  6678  0229  00F0               	movwf	i1___bmul@multiplicand
  6679  022A  087A               	movf	sch_update@index,w
  6680  022B  120A  158A  24DC  120A  118A  	fcall	i1___bmul
  6681  0230  3E20               	addlw	(low (_sch_tasks| 0))& (0+255)
  6682  0231  0084               	movwf	4
  6683  0232  1383               	bcf	3,7	;select IRP bank0
  6684  0233  0800               	movf	0,w
  6685  0234  1903               	btfsc	3,2
  6686  0235  2A37               	goto	u216_21
  6687  0236  2A38               	goto	u216_20
  6688  0237                     u216_21:	
  6689  0237  2AE9               	goto	i1l2552
  6690  0238                     u216_20:	
  6691  0238                     i1l2544:	
  6692                           
  6693                           ;scheduler.c: 34:             if (sch_tasks[index].delay == 0) {
  6694  0238  300D               	movlw	13
  6695  0239  00F4               	movwf	??_sch_update
  6696  023A  0874               	movf	??_sch_update,w
  6697  023B  00F0               	movwf	i1___bmul@multiplicand
  6698  023C  087A               	movf	sch_update@index,w
  6699  023D  120A  158A  24DC  120A  118A  	fcall	i1___bmul
  6700  0242  3E21               	addlw	(low ((_sch_tasks| 0+1)))& (0+255)
  6701  0243  0084               	movwf	4
  6702  0244  1383               	bcf	3,7	;select IRP bank0
  6703  0245  0800               	movf	0,w
  6704  0246  00F5               	movwf	??_sch_update+1
  6705  0247  0A84               	incf	4,f
  6706  0248  0800               	movf	0,w
  6707  0249  00F6               	movwf	??_sch_update+2
  6708  024A  0A84               	incf	4,f
  6709  024B  0800               	movf	0,w
  6710  024C  00F7               	movwf	??_sch_update+3
  6711  024D  0A84               	incf	4,f
  6712  024E  0800               	movf	0,w
  6713  024F  00F8               	movwf	??_sch_update+4
  6714  0250  0878               	movf	??_sch_update+4,w
  6715  0251  0477               	iorwf	??_sch_update+3,w
  6716  0252  0476               	iorwf	??_sch_update+2,w
  6717  0253  0475               	iorwf	??_sch_update+1,w
  6718  0254  1D03               	skipz
  6719  0255  2A57               	goto	u217_21
  6720  0256  2A58               	goto	u217_20
  6721  0257                     u217_21:	
  6722  0257  2AC9               	goto	i1l2550
  6723  0258                     u217_20:	
  6724  0258                     i1l2546:	
  6725                           
  6726                           ;scheduler.c: 36:                 sch_tasks[index].runMe += 1;
  6727  0258  300D               	movlw	13
  6728  0259  00F4               	movwf	??_sch_update
  6729  025A  0874               	movf	??_sch_update,w
  6730  025B  00F0               	movwf	i1___bmul@multiplicand
  6731  025C  087A               	movf	sch_update@index,w
  6732  025D  120A  158A  24DC  120A  118A  	fcall	i1___bmul
  6733  0262  3E29               	addlw	(low ((_sch_tasks| 0+9)))& (0+255)
  6734  0263  0084               	movwf	4
  6735  0264  3001               	movlw	1
  6736  0265  1383               	bcf	3,7	;select IRP bank0
  6737  0266  0780               	addwf	0,f
  6738  0267  0A84               	incf	4,f
  6739  0268  3000               	movlw	0
  6740  0269  1803               	skipnc
  6741  026A  3E01               	addlw	1
  6742  026B  1D03               	skipz
  6743  026C  0780               	addwf	0,f
  6744  026D  0A84               	incf	4,f
  6745  026E  3000               	movlw	0
  6746  026F  1803               	skipnc
  6747  0270  3E01               	addlw	1
  6748  0271  1D03               	skipz
  6749  0272  0780               	addwf	0,f
  6750  0273  0A84               	incf	4,f
  6751  0274  3000               	movlw	0
  6752  0275  1803               	skipnc
  6753  0276  3E01               	addlw	1
  6754  0277  0780               	addwf	0,f
  6755                           
  6756                           ;scheduler.c: 37:                 if (sch_tasks[index].period) {
  6757  0278  300D               	movlw	13
  6758  0279  00F4               	movwf	??_sch_update
  6759  027A  0874               	movf	??_sch_update,w
  6760  027B  00F0               	movwf	i1___bmul@multiplicand
  6761  027C  087A               	movf	sch_update@index,w
  6762  027D  120A  158A  24DC  120A  118A  	fcall	i1___bmul
  6763  0282  3E25               	addlw	(low ((_sch_tasks| 0+5)))& (0+255)
  6764  0283  0084               	movwf	4
  6765  0284  1383               	bcf	3,7	;select IRP bank0
  6766  0285  0800               	movf	0,w
  6767  0286  00F5               	movwf	??_sch_update+1
  6768  0287  0A84               	incf	4,f
  6769  0288  0800               	movf	0,w
  6770  0289  00F6               	movwf	??_sch_update+2
  6771  028A  0A84               	incf	4,f
  6772  028B  0800               	movf	0,w
  6773  028C  00F7               	movwf	??_sch_update+3
  6774  028D  0A84               	incf	4,f
  6775  028E  0800               	movf	0,w
  6776  028F  00F8               	movwf	??_sch_update+4
  6777  0290  0878               	movf	??_sch_update+4,w
  6778  0291  0477               	iorwf	??_sch_update+3,w
  6779  0292  0476               	iorwf	??_sch_update+2,w
  6780  0293  0475               	iorwf	??_sch_update+1,w
  6781  0294  1903               	skipnz
  6782  0295  2A97               	goto	u218_21
  6783  0296  2A98               	goto	u218_20
  6784  0297                     u218_21:	
  6785  0297  2AE9               	goto	i1l2552
  6786  0298                     u218_20:	
  6787  0298                     i1l2548:	
  6788                           
  6789                           ;scheduler.c: 39:                     sch_tasks[index].delay = sch_tasks[index].period;
  6790  0298  300D               	movlw	13
  6791  0299  00F4               	movwf	??_sch_update
  6792  029A  0874               	movf	??_sch_update,w
  6793  029B  00F0               	movwf	i1___bmul@multiplicand
  6794  029C  087A               	movf	sch_update@index,w
  6795  029D  120A  158A  24DC  120A  118A  	fcall	i1___bmul
  6796  02A2  3E25               	addlw	(low ((_sch_tasks| 0+5)))& (0+255)
  6797  02A3  0084               	movwf	4
  6798  02A4  1383               	bcf	3,7	;select IRP bank0
  6799  02A5  0800               	movf	0,w
  6800  02A6  00F5               	movwf	??_sch_update+1
  6801  02A7  0A84               	incf	4,f
  6802  02A8  0800               	movf	0,w
  6803  02A9  00F6               	movwf	??_sch_update+2
  6804  02AA  0A84               	incf	4,f
  6805  02AB  0800               	movf	0,w
  6806  02AC  00F7               	movwf	??_sch_update+3
  6807  02AD  0A84               	incf	4,f
  6808  02AE  0800               	movf	0,w
  6809  02AF  00F8               	movwf	??_sch_update+4
  6810  02B0  300D               	movlw	13
  6811  02B1  00F9               	movwf	??_sch_update+5
  6812  02B2  0879               	movf	??_sch_update+5,w
  6813  02B3  00F0               	movwf	i1___bmul@multiplicand
  6814  02B4  087A               	movf	sch_update@index,w
  6815  02B5  120A  158A  24DC  120A  118A  	fcall	i1___bmul
  6816  02BA  3E21               	addlw	(low ((_sch_tasks| 0+1)))& (0+255)
  6817  02BB  0084               	movwf	4
  6818  02BC  0875               	movf	??_sch_update+1,w
  6819  02BD  1383               	bcf	3,7	;select IRP bank0
  6820  02BE  0080               	movwf	0
  6821  02BF  0A84               	incf	4,f
  6822  02C0  0876               	movf	??_sch_update+2,w
  6823  02C1  0080               	movwf	0
  6824  02C2  0A84               	incf	4,f
  6825  02C3  0877               	movf	??_sch_update+3,w
  6826  02C4  0080               	movwf	0
  6827  02C5  0A84               	incf	4,f
  6828  02C6  0878               	movf	??_sch_update+4,w
  6829  02C7  0080               	movwf	0
  6830  02C8  2AE9               	goto	i1l2552
  6831  02C9                     i1l2550:	
  6832                           
  6833                           ;scheduler.c: 43:                 sch_tasks[index].delay -= 1;
  6834  02C9  300D               	movlw	13
  6835  02CA  00F4               	movwf	??_sch_update
  6836  02CB  0874               	movf	??_sch_update,w
  6837  02CC  00F0               	movwf	i1___bmul@multiplicand
  6838  02CD  087A               	movf	sch_update@index,w
  6839  02CE  120A  158A  24DC  120A  118A  	fcall	i1___bmul
  6840  02D3  3E21               	addlw	(low ((_sch_tasks| 0+1)))& (0+255)
  6841  02D4  0084               	movwf	4
  6842  02D5  3001               	movlw	1
  6843  02D6  1383               	bcf	3,7	;select IRP bank0
  6844  02D7  0280               	subwf	0,f
  6845  02D8  0A84               	incf	4,f
  6846  02D9  3000               	movlw	0
  6847  02DA  1C03               	skipc
  6848  02DB  3001               	movlw	1
  6849  02DC  0280               	subwf	0,f
  6850  02DD  0A84               	incf	4,f
  6851  02DE  3000               	movlw	0
  6852  02DF  1C03               	skipc
  6853  02E0  3001               	movlw	1
  6854  02E1  0280               	subwf	0,f
  6855  02E2  0A84               	incf	4,f
  6856  02E3  3000               	movlw	0
  6857  02E4  1C03               	skipc
  6858  02E5  3001               	movlw	1
  6859  02E6  0280               	subwf	0,f
  6860  02E7  3003               	movlw	3
  6861  02E8  0284               	subwf	4,f
  6862  02E9                     i1l2552:	
  6863                           
  6864                           ;scheduler.c: 46:     }
  6865  02E9  3001               	movlw	1
  6866  02EA  00F4               	movwf	??_sch_update
  6867  02EB  0874               	movf	??_sch_update,w
  6868  02EC  07FA               	addwf	sch_update@index,f
  6869  02ED                     i1l2554:	
  6870  02ED  3003               	movlw	3
  6871  02EE  027A               	subwf	sch_update@index,w
  6872  02EF  1C03               	skipc
  6873  02F0  2AF2               	goto	u219_21
  6874  02F1  2AF3               	goto	u219_20
  6875  02F2                     u219_21:	
  6876  02F2  2A26               	goto	i1l2542
  6877  02F3                     u219_20:	
  6878  02F3                     i1l342:	
  6879  02F3  0008               	return
  6880  02F4                     __end_of_sch_update:	
  6881                           
  6882                           	psect	text43
  6883  0CDC                     __ptext43:	
  6884 ;; *************** function i1___bmul *****************
  6885 ;; Defined at:
  6886 ;;		line 4 in file "C:\Program Files (x86)\Microchip\xc8\v2.10\pic\sources\c90\common\Umul8.c"
  6887 ;; Parameters:    Size  Location     Type
  6888 ;;  multiplier      1    wreg     unsigned char 
  6889 ;;  multiplicand    1    0[COMMON] unsigned char 
  6890 ;; Auto vars:     Size  Location     Type
  6891 ;;  multiplier      1    2[COMMON] unsigned char 
  6892 ;;  __bmul          1    3[COMMON] unsigned char 
  6893 ;; Return value:  Size  Location     Type
  6894 ;;                  1    wreg      unsigned char 
  6895 ;; Registers used:
  6896 ;;		wreg, status,2, status,0
  6897 ;; Tracked objects:
  6898 ;;		On entry : 0/0
  6899 ;;		On exit  : 0/0
  6900 ;;		Unchanged: 0/0
  6901 ;; Data sizes:     COMMON   BANK0   BANK1   BANK3   BANK2
  6902 ;;      Params:         1       0       0       0       0
  6903 ;;      Locals:         2       0       0       0       0
  6904 ;;      Temps:          1       0       0       0       0
  6905 ;;      Totals:         4       0       0       0       0
  6906 ;;Total ram usage:        4 bytes
  6907 ;; Hardware stack levels used:    1
  6908 ;; This function calls:
  6909 ;;		Nothing
  6910 ;; This function is called by:
  6911 ;;		_sch_update
  6912 ;; This function uses a non-reentrant model
  6913 ;;
  6914                           
  6915                           
  6916                           ;psect for function i1___bmul
  6917  0CDC                     i1___bmul:	
  6918                           
  6919                           ;incstack = 0
  6920                           ; Regs used in i1___bmul: [wreg+status,2+status,0]
  6921                           ;i1___bmul@multiplier stored from wreg
  6922  0CDC  00F2               	movwf	i1___bmul@multiplier
  6923  0CDD                     i1l2446:	
  6924  0CDD  01F3               	clrf	i1___bmul@product
  6925  0CDE                     i1l2448:	
  6926  0CDE  1C72               	btfss	i1___bmul@multiplier,0
  6927  0CDF  2CE1               	goto	u207_21
  6928  0CE0  2CE2               	goto	u207_20
  6929  0CE1                     u207_21:	
  6930  0CE1  2CE6               	goto	i1l2452
  6931  0CE2                     u207_20:	
  6932  0CE2                     i1l2450:	
  6933  0CE2  0870               	movf	i1___bmul@multiplicand,w
  6934  0CE3  00F1               	movwf	??i1___bmul
  6935  0CE4  0871               	movf	??i1___bmul,w
  6936  0CE5  07F3               	addwf	i1___bmul@product,f
  6937  0CE6                     i1l2452:	
  6938  0CE6  1003               	clrc
  6939  0CE7  0DF0               	rlf	i1___bmul@multiplicand,f
  6940  0CE8                     i1l2454:	
  6941  0CE8  1003               	clrc
  6942  0CE9  0CF2               	rrf	i1___bmul@multiplier,f
  6943  0CEA  0872               	movf	i1___bmul@multiplier,w
  6944  0CEB  1D03               	btfss	3,2
  6945  0CEC  2CEE               	goto	u208_21
  6946  0CED  2CEF               	goto	u208_20
  6947  0CEE                     u208_21:	
  6948  0CEE  2CDE               	goto	i1l2448
  6949  0CEF                     u208_20:	
  6950  0CEF                     i1l2456:	
  6951  0CEF  0873               	movf	i1___bmul@product,w
  6952  0CF0                     i1l588:	
  6953  0CF0  0008               	return
  6954  0CF1                     __end_ofi1___bmul:	
  6955  0002                     
  6956                           	psect	functab
  6957  0036                     __pfunctab:	
  6958  0036                     __fptable:	
  6959  0036                     fptable:	
  6960  0036  00FF               	movwf	(btemp+1)& (0+127)
  6961  0037  3000               	movlw	high fptable
  6962  0038  008A               	movwf	10
  6963  0039  087F               	movf	(btemp+1)& (0+127),w
  6964  003A  0782               	addwf	2,f
  6965  003B                     fpbase:	
  6966  003B  283B               	goto	fpbase	; Call via a null pointer and you will get stuck here.
  6967  003C                     fp_u0:	
  6968  003C  283C               	ljmp	fp_u0	; unused
  6969  003D                     fp__ssd_vid_update:	
  6970  003D  120A  118A  2BB3   	ljmp	_ssd_vid_update
  6971  0040                     fp__counter_vid_update:	
  6972  0040  120A  118A  2AF4   	ljmp	_counter_vid_update
  6973  0043                     fp__display_vid_update:	
  6974  0043  120A  118A  2F09   	ljmp	_display_vid_update
  6975  0046                     __end_of__fptable:	
  6976  0046                     __i1fptable:	
  6977  0046                     i1fptable:	
  6978  0046  00FF               	movwf	(btemp+1)& (0+127)
  6979  0047  3000               	movlw	high i1fptable
  6980  0048  008A               	movwf	10
  6981  0049  087F               	movf	(btemp+1)& (0+127),w
  6982  004A  0782               	addwf	2,f
  6983  004B                     i1fpbase:	
  6984  004B  284B               	goto	i1fpbase	; Call via a null pointer and you will get stuck here.
  6985  004C                     fp__sch_update:	
  6986  004C  120A  118A  2A25   	ljmp	_sch_update
  6987  004F                     __end_of__i1fptable:	
  6988  007E                     btemp	set	126	;btemp
  6989  007E                     wtemp0	set	126


Data Sizes:
    Strings     0
    Constant    0
    Data        3
    BSS         48
    Persistent  0
    Stack       0

Auto Spaces:
    Space          Size  Autos    Used
    COMMON           14     11      14
    BANK0            80     23      71
    BANK1            80      0       0
    BANK3            96      0       0
    BANK2            96      0       0

Pointer List with Targets:

    timer_vid_set_isr_0@callback_function	PTR FTN()void  size(1) Largest target is 1
		 -> sch_update(), 

    timer2_isr	PTR FTN()void  size(1) Largest target is 1
		 -> Absolute function(), 

    timer1_isr	PTR FTN()void  size(1) Largest target is 1
		 -> Absolute function(), 

    timer0_isr	PTR FTN()void  size(1) Largest target is 1
		 -> Absolute function(), sch_update(), 

    sch_u8_add_task@taskFunction	PTR FTN()void  size(1) Largest target is 1
		 -> ssd_vid_update(), display_vid_update(), counter_vid_update(), 

    S253data$taskFunction	PTR FTN()void  size(1) Largest target is 1
		 -> Absolute function(), ssd_vid_update(), display_vid_update(), counter_vid_update(), 

    sch_tasks.taskFunction	PTR FTN()void  size(1) Largest target is 1
		 -> Absolute function(), ssd_vid_update(), display_vid_update(), counter_vid_update(), 


Critical Paths under _main in COMMON

    None.

Critical Paths under _timer_isr in COMMON

    _timer_isr->_sch_update
    _sch_update->i1___bmul

Critical Paths under _main in BANK0

    _main->_sch_vid_dispatch_tasks
    _sch_vid_init->_sch_vid_delete_task
    _sch_vid_dispatch_tasks->_ssd_vid_update
    _ssd_vid_update->___lwdiv
    _sch_vid_delete_task->___bmul
    _display_vid_update->___lwmod
    _counter_vid_update->_dio_u8_read_pin_value
    _eeprom_external_vid_write->_i2c_u8_master_write_slave_address_with_write_req
    _dio_u8_read_pin_value->_dio_u8_read_port_value
    _sch_u8_add_task->___bmul
    _i2c_vid_master_init->_dio_vid_set_pin_direction
    _display_init->_counter_vid_init
    _ssd_vid_init->_dio_vid_set_pin_direction
    _dio_vid_set_port_value->_ssd_u8_get_code
    _counter_vid_init->___awmod
    _eeprom_external_vid_read->_i2c_u8_master_write_slave_address_with_write_req

Critical Paths under _timer_isr in BANK0

    None.

Critical Paths under _main in BANK1

    None.

Critical Paths under _timer_isr in BANK1

    None.

Critical Paths under _main in BANK3

    None.

Critical Paths under _timer_isr in BANK3

    None.

Critical Paths under _main in BANK2

    None.

Critical Paths under _timer_isr in BANK2

    None.

Call Graph Tables:

 ---------------------------------------------------------------------------------
 (Depth) Function   	        Calls       Base Space   Used Autos Params    Refs
 ---------------------------------------------------------------------------------
 (0) _main                                                 0     0      0   17739
                       _display_init
                _i2c_vid_master_init
                    _sch_u8_add_task
             _sch_vid_dispatch_tasks
                       _sch_vid_init
 ---------------------------------------------------------------------------------
 (1) _sch_vid_init                                         2     2      0     875
                                             12 BANK0      2     2      0
                _sch_vid_delete_task
                   _timer_vid_init_0
                _timer_vid_set_isr_0
 ---------------------------------------------------------------------------------
 (2) _timer_vid_set_isr_0                                  2     2      0      22
                                              6 BANK0      2     2      0
 ---------------------------------------------------------------------------------
 (2) _timer_vid_init_0                                     3     0      3     196
                                              6 BANK0      3     0      3
 ---------------------------------------------------------------------------------
 (1) _sch_vid_dispatch_tasks                               6     6      0    5684
                                             17 BANK0      6     6      0
                   Absolute function *
                             ___bmul
                 _counter_vid_update *
                 _display_vid_update *
                _sch_vid_delete_task
                     _ssd_vid_update *
 ---------------------------------------------------------------------------------
 (2) _ssd_vid_update                                       3     3      0    3200
                                             14 BANK0      3     3      0
                            ___lwdiv
                            ___lwmod
              _dio_u8_read_pin_value
              _dio_vid_set_pin_value
             _dio_vid_set_port_value
                    _ssd_u8_get_code
 ---------------------------------------------------------------------------------
 (3) _ssd_u8_get_code                                      3     3      0      22
                                              6 BANK0      3     3      0
 ---------------------------------------------------------------------------------
 (3) ___lwdiv                                              8     4      4     314
                                              6 BANK0      8     4      4
 ---------------------------------------------------------------------------------
 (2) _sch_vid_delete_task                                  2     2      0     589
                                             10 BANK0      2     2      0
                             ___bmul
 ---------------------------------------------------------------------------------
 (2) _display_vid_update                                   0     0      0     507
                            ___lwmod
             _counter_u8_get_counter
                   _ssd_u8_get_state
                  _ssd_vid_set_state
                 _ssd_vid_set_symbol
 ---------------------------------------------------------------------------------
 (3) _ssd_u8_get_state                                     0     0      0       0
 ---------------------------------------------------------------------------------
 (3) ___lwmod                                              6     2      4     463
                                              6 BANK0      6     2      4
 ---------------------------------------------------------------------------------
 (2) _counter_vid_update                                   2     2      0     753
                                             13 BANK0      2     2      0
              _dio_u8_read_pin_value
           _display_set_setting_mode
          _eeprom_external_vid_write
                 _ssd_vid_set_symbol
 ---------------------------------------------------------------------------------
 (3) _eeprom_external_vid_write                            2     1      1     240
                                              8 BANK0      2     1      1
           _i2c_u8_master_write_byte
_i2c_u8_master_write_slave_address_w
                    _i2c_vid_restart
                      _i2c_vid_start
                       _i2c_vid_stop
 ---------------------------------------------------------------------------------
 (3) _display_set_setting_mode                             2     2      0      22
                                              6 BANK0      2     2      0
 ---------------------------------------------------------------------------------
 (3) _dio_u8_read_pin_value                                4     3      1     469
                                              9 BANK0      4     3      1
             _dio_u8_read_port_value
 ---------------------------------------------------------------------------------
 (4) _dio_u8_read_port_value                               3     3      0      22
                                              6 BANK0      3     3      0
 ---------------------------------------------------------------------------------
 (7) Absolute function(Fake)                               0     0      0       0
 ---------------------------------------------------------------------------------
 (1) _sch_u8_add_task                                     12     4      8    1163
                                             10 BANK0     12     4      8
                             ___bmul
 ---------------------------------------------------------------------------------
 (3) ___bmul                                               4     3      1     479
                                              6 BANK0      4     3      1
 ---------------------------------------------------------------------------------
 (1) _i2c_vid_master_init                                  1     1      0    1830
                                             11 BANK0      1     1      0
          _dio_vid_set_pin_direction
 ---------------------------------------------------------------------------------
 (1) _display_init                                         1     1      0    8187
                                             15 BANK0      1     1      0
             _counter_u8_get_counter
                   _counter_vid_init
          _dio_vid_set_pin_direction
              _dio_vid_set_pin_value
             _dio_vid_set_port_value
                       _ssd_vid_init
                  _ssd_vid_set_state
                 _ssd_vid_set_symbol
 ---------------------------------------------------------------------------------
 (3) _ssd_vid_set_symbol                                   3     3      0      22
                                              6 BANK0      3     3      0
 ---------------------------------------------------------------------------------
 (3) _ssd_vid_set_state                                    2     2      0      22
                                              6 BANK0      2     2      0
 ---------------------------------------------------------------------------------
 (2) _ssd_vid_init                                         1     1      0    2038
                                             11 BANK0      1     1      0
          _dio_vid_set_pin_direction
         _dio_vid_set_port_direction
 ---------------------------------------------------------------------------------
 (3) _dio_vid_set_port_direction                           4     3      1     208
                                              6 BANK0      4     3      1
 ---------------------------------------------------------------------------------
 (3) _dio_vid_set_port_value                               4     3      1     360
                                              9 BANK0      4     3      1
                    _ssd_u8_get_code (ARG)
 ---------------------------------------------------------------------------------
 (3) _dio_vid_set_pin_value                                5     3      2    1526
                                              6 BANK0      5     3      2
 ---------------------------------------------------------------------------------
 (2) _counter_vid_init                                     2     2      0    2389
                                             13 BANK0      2     2      0
                            ___awmod
          _dio_vid_set_pin_direction
           _eeprom_external_vid_read
 ---------------------------------------------------------------------------------
 (3) _eeprom_external_vid_read                             3     3      0     111
                                              8 BANK0      3     3      0
            _i2c_u8_master_read_byte
           _i2c_u8_master_write_byte
_i2c_u8_master_write_slave_address_w
_i2c_u8_master_write_slave_address_w
                       _i2c_vid_nack
                    _i2c_vid_restart
                      _i2c_vid_start
                       _i2c_vid_stop
 ---------------------------------------------------------------------------------
 (4) _i2c_vid_stop                                         0     0      0       0
                       _i2c_vid_wait
 ---------------------------------------------------------------------------------
 (4) _i2c_vid_start                                        0     0      0       0
                       _i2c_vid_wait
 ---------------------------------------------------------------------------------
 (4) _i2c_vid_restart                                      0     0      0       0
                       _i2c_vid_wait
 ---------------------------------------------------------------------------------
 (4) _i2c_vid_nack                                         0     0      0       0
                       _i2c_vid_wait
 ---------------------------------------------------------------------------------
 (4) _i2c_u8_master_write_slave_address_with_write_req     2     2      0      22
                                              6 BANK0      2     2      0
                       _i2c_vid_wait
 ---------------------------------------------------------------------------------
 (4) _i2c_u8_master_write_slave_address_with_read_req      1     1      0      22
                                              6 BANK0      1     1      0
                       _i2c_vid_wait
 ---------------------------------------------------------------------------------
 (4) _i2c_u8_master_write_byte                             1     1      0      22
                                              6 BANK0      1     1      0
                       _i2c_vid_wait
 ---------------------------------------------------------------------------------
 (4) _i2c_u8_master_read_byte                              0     0      0       0
                       _i2c_vid_wait
 ---------------------------------------------------------------------------------
 (5) _i2c_vid_wait                                         0     0      0       0
 ---------------------------------------------------------------------------------
 (2) _dio_vid_set_pin_direction                            5     3      2    1830
                                              6 BANK0      5     3      2
 ---------------------------------------------------------------------------------
 (3) ___awmod                                              7     3      4     448
                                              6 BANK0      7     3      4
 ---------------------------------------------------------------------------------
 (3) _counter_u8_get_counter                               0     0      0       0
 ---------------------------------------------------------------------------------
 Estimated maximum stack depth 7
 ---------------------------------------------------------------------------------
 (Depth) Function   	        Calls       Base Space   Used Autos Params    Refs
 ---------------------------------------------------------------------------------
 (6) _timer_isr                                            6     6      0     401
                                              0 BANK0      6     6      0
                   Absolute function *
                         _sch_update *
 ---------------------------------------------------------------------------------
 (7) _sch_update                                           7     7      0     401
                                              4 COMMON     7     7      0
                           i1___bmul
 ---------------------------------------------------------------------------------
 (8) i1___bmul                                             4     3      1     201
                                              0 COMMON     4     3      1
 ---------------------------------------------------------------------------------
 (7) Absolute function(Fake)                               0     0      0       0
 ---------------------------------------------------------------------------------
 Estimated maximum stack depth 8
 ---------------------------------------------------------------------------------

 Call Graph Graphs:

 _main (ROOT)
   _display_init
     _counter_u8_get_counter
     _counter_vid_init
       ___awmod
       _dio_vid_set_pin_direction
       _eeprom_external_vid_read
         _i2c_u8_master_read_byte
           _i2c_vid_wait
         _i2c_u8_master_write_byte
           _i2c_vid_wait
         _i2c_u8_master_write_slave_address_with_read_req
           _i2c_vid_wait
         _i2c_u8_master_write_slave_address_with_write_req
           _i2c_vid_wait
         _i2c_vid_nack
           _i2c_vid_wait
         _i2c_vid_restart
           _i2c_vid_wait
         _i2c_vid_start
           _i2c_vid_wait
         _i2c_vid_stop
           _i2c_vid_wait
     _dio_vid_set_pin_direction
     _dio_vid_set_pin_value
     _dio_vid_set_port_value
       _ssd_u8_get_code (ARG)
     _ssd_vid_init
       _dio_vid_set_pin_direction
       _dio_vid_set_port_direction
     _ssd_vid_set_state
     _ssd_vid_set_symbol
   _i2c_vid_master_init
     _dio_vid_set_pin_direction
   _sch_u8_add_task
     ___bmul
   _sch_vid_dispatch_tasks
     Absolute function(Fake) *
     ___bmul *
     _counter_vid_update *
       _dio_u8_read_pin_value
         _dio_u8_read_port_value
       _display_set_setting_mode
       _eeprom_external_vid_write
         _i2c_u8_master_write_byte
           _i2c_vid_wait
         _i2c_u8_master_write_slave_address_with_write_req
           _i2c_vid_wait
         _i2c_vid_restart
           _i2c_vid_wait
         _i2c_vid_start
           _i2c_vid_wait
         _i2c_vid_stop
           _i2c_vid_wait
       _ssd_vid_set_symbol
     _display_vid_update *
       ___lwmod
       _counter_u8_get_counter
       _ssd_u8_get_state
       _ssd_vid_set_state
       _ssd_vid_set_symbol
     _sch_vid_delete_task *
       ___bmul
     _ssd_vid_update *
       ___lwdiv
       ___lwmod
       _dio_u8_read_pin_value
         _dio_u8_read_port_value
       _dio_vid_set_pin_value
       _dio_vid_set_port_value
         _ssd_u8_get_code (ARG)
       _ssd_u8_get_code
   _sch_vid_init
     _sch_vid_delete_task
       ___bmul
     _timer_vid_init_0
     _timer_vid_set_isr_0

 _timer_isr (ROOT)
   Absolute function(Fake) *
   _sch_update *
     i1___bmul

 Address spaces:
Name               Size   Autos  Total    Cost      Usage
BANK3               60      0       0       9        0.0%
BITBANK3            60      0       0       8        0.0%
SFR3                 0      0       0       4        0.0%
BITSFR3              0      0       0       4        0.0%
BANK2               60      0       0      11        0.0%
BITBANK2            60      0       0      10        0.0%
SFR2                 0      0       0       5        0.0%
BITSFR2              0      0       0       5        0.0%
BANK1               50      0       0       7        0.0%
BITBANK1            50      0       0       6        0.0%
SFR1                 0      0       0       2        0.0%
BITSFR1              0      0       0       2        0.0%
BANK0               50     17      47       5       88.8%
BITBANK0            50      0       0       4        0.0%
SFR0                 0      0       0       1        0.0%
BITSFR0              0      0       0       1        0.0%
COMMON               E      B       E       1      100.0%
BITCOMMON            E      0       0       0        0.0%
CODE                 0      0       0       0        0.0%
DATA                 0      0      55      12        0.0%
ABS                  0      0      55       3        0.0%
NULL                 0      0       0       0        0.0%
STACK                0      0       0       2        0.0%
EEDATA             100      0       0       0        0.0%


Microchip Technology PIC Macro Assembler V2.10 build 88905656 
Symbol Table                                                                                   Thu Jul 09 14:11:06 2020

                                 ??_sch_vid_dispatch_tasks 005F  
                                                        pc 0002  
                                           ___bmul@product 0056  
                                              __CFG_CP$OFF 0000  
                                                       l26 0FA6  
                                                       l35 03B2  
                                                       l38 0C51  
                                                       l83 0D9E  
                                                       l91 0D51  
                                                       l68 0E8C  
                                                       l78 0E20  
                                                       fsr 0004  
                                   __end_of_ssd_vid_update 0466  
                                timer_vid_init_0@prescaler 0054  
                                                      l202 0E55  
                                                      l116 0224  
                                                      l141 0143  
                                                      l205 0F1D  
                                                      l208 0F58  
                                                      l252 0C7F  
                                                      l180 0C92  
                                                      l404 07FF  
                                                      l261 0CAA  
                                                      l333 0DC7  
                                                      l270 0CA9  
                                                      l255 0C88  
                                                      l351 0582  
                                                      l264 0CB6  
                                                      l168 0FFF  
                                                      l176 0758  
                                                      l281 0CDA  
                                                      l273 0D2D  
                                                      l249 0DF3  
                                                      l177 0762  
                                                      l282 0CDB  
                                                      l258 0C76  
                                                      l362 05E8  
                                                      l291 0CF9  
                                                      l275 0D31  
                                                      l276 0D37  
                                                      l293 0CFE  
                                                      l285 0CC3  
                                                      l381 0D75  
                                                      l294 0D07  
                                                      l358 04F6  
                                                      l470 0600  
                                                      l287 0CC7  
                                                      l279 0CD6  
                                                      l199 0E2F  
                                                      l471 0606  
                                                      l288 0CC8  
                                                      l472 060C  
                                                      l456 0C65  
                                                      l393 0C9D  
                                                      l385 0465  
                                                      l473 0612  
                                                      l474 0618  
                                                      l466 05EE  
                                                      l396 0C55  
                                                      l476 064D  
                                                      l468 05F4  
                                                      l469 05FA  
                                                      l399 0C5D  
                                                      l728 0708  
                                                      l834 0F0E  
                                                      l588 0D1E  
                                                      l844 0EC8  
                                                      _GIE 005F  
                                            ?_display_init 0070  
                                                      _PS0 0408  
                                                      _PS1 0409  
                                                      _PEN 048A  
                                                      _PS2 040A  
                                             __CFG_CPD$OFF 0000  
                                                      _SEN 0488  
                                                      _PSA 040B  
                                                      fsr0 0004  
                                                      indf 0000  
                                   _dio_u8_read_port_value 0D76  
                                             ___awmod@sign 005A  
                                             __CFG_FOSC$HS 0000  
                                             __CFG_LVP$OFF 0000  
                                                     l2000 0068  
                                                     l2010 0098  
                                                     l2002 006D  
                                                     l2020 00D4  
                                                     l2012 00A9  
                                                     l2004 007E  
                                                     l2100 0DF7  
                                                     l2030 0104  
                                                     l2022 00D9  
                                                     l2014 00AE  
                                                     l2006 0083  
                                                     l2110 0E04  
                                                     l2102 0DF8  
                                                     l2032 0114  
                                                     l2024 00E9  
                                                     l2016 00BE  
                                                     l2008 0093  
                                                     l2104 0DFB  
                                                     l2034 0119  
                                                     l2026 00EE  
                                                     l2018 00C3  
                                                     l2050 0F28  
                                                     l2130 0160  
                                                     l2122 0147  
                                                     l2106 0DFE  
                                                     l2114 0E07  
                                                     l2210 07CF  
                                                     l2202 07CB  
                                                     l2028 00FF  
                                                     l2052 0F55  
                                                     l2140 0196  
                                                     l2132 016F  
                                                     l2124 0148  
                                                     l2108 0E01  
                                                     l2300 0EE5  
                                                     l2038 012A  
                                                     l2046 0F12  
                                                     l2150 01C2  
                                                     l2142 019B  
                                                     l2134 0174  
                                                     l2126 014D  
                                                     l2062 0C8C  
                                                     l2070 0E3A  
                                                     l2302 0EF6  
                                                     l2310 0F0A  
                                                     l2222 07D5  
                                                     l2214 07D1  
                                                     l2206 07CD  
                                                     l2048 0F18  
                                                     l2160 01F7  
                                                     l2152 01D0  
                                                     l2144 01A9  
                                                     l2136 0182  
                                                     l2128 015B  
                                                     l2080 0E5A  
                                                     l2072 0C96  
                                                     l2240 0D10  
                                                     l2056 0D3B  
                                                     l2064 0C90  
                                                     l2320 0E9F  
                                                     l2304 0EFC  
                                                     l2400 073A  
                                                     l2074 0C4E  
                                                     l2250 06AE  
                                                     l2162 01FC  
                                                     l2154 01D5  
                                                     l2146 01AE  
                                                     l2138 0187  
                                                     l2082 0E5F  
                                                     l2242 0D14  
                                                     l2058 0D46  
                                                     l2066 0E24  
                                                     l2330 0EBE  
                                                     l2322 0EA3  
                                                     l2314 0E8D  
                                                     l2410 058C  
                                                     l2306 0EFD  
                                                     l2218 07D3  
                                                     l2402 0744  
                                                     l2260 06C0  
                                                     l2252 06B1  
                                                     l2340 0F7E  
                                                     l2156 01E4  
                                                     l2148 01BD  
                                                     l2084 0E64  
                                                     l2092 0E73  
                                                     l2244 0D16  
                                                     l2236 0D0B  
                                                     l2500 04FA  
                                                     l2068 0E2A  
                                                     l2324 0EA7  
                                                     l2316 0E95  
                                                     l2332 0EC4  
                                                     l2308 0F04  
                                                     l2228 07D7  
                                                     l2180 07C0  
                                                     l2404 074B  
                                                     l2420 0644  
                                                     l2412 0C61  
                                                     l2270 06D9  
                                                     l2262 06C5  
                                                     l2254 06B5  
                                                     l2342 0F84  
                                                     l2158 01E9  
                                                     l2166 020B  
                                                     l2086 0E69  
                                                     l2078 0E59  
                                                     l2174 0C59  
                                                     l2246 0D1D  
                                                     l2238 0D0C  
                                                     l2502 04FC  
                                                     l2326 0EB1  
                                                     l2318 0E98  
                                                     l2190 07C5  
                                                     l2182 07C1  
                                                     l2350 0305  
                                                     l2406 0752  
                                                     l2422 064A  
                                                     l2414 05E9  
                                                     l2272 06DD  
                                                     l2264 06CB  
                                                     l2280 06FA  
                                                     l2256 06BA  
                                                     l2344 0F8A  
                                                     l2336 0F59  
                                                     l2088 0E6E  
                                                     l2512 0523  
                                                     l2504 0500  
                                                     l2328 0EB7  
                                                     l2176 0C52  
                                                     l2408 0586  
                                                     l2440 03F9  
                                                     l2432 03B3  
                                                     l2360 0337  
                                                     l2352 030C  
                                                     l2282 06FF  
                                                     l2274 06E7  
                                                     l2266 06CE  
                                                     l2258 06BC  
                                                     l2346 0FA2  
                                                     l2338 0F73  
                                                     l2506 0512  
                                                     l2290 0ECD  
                                                     l2194 07C7  
                                                     l2186 07C3  
                                                     l2442 0408  
                                                     l2434 03BA  
                                                     l2370 0360  
                                                     l2362 033D  
                                                     l2354 0312  
                                                     l2530 04E4  
                                                     l2522 0469  
                                                     l2418 061E  
                                                     l2284 0704  
                                                     l2276 06ED  
                                                     l2268 06D5  
                                                     l1900 0CAA  
                                                     l2460 0FA7  
                                                     l2508 051A  
                                                     l2292 0ED3  
                                                     l2444 0437  
                                                     l2372 0364  
                                                     l2380 038F  
                                                     l2356 0316  
                                                     l2364 0344  
                                                     l2348 02F4  
                                                     l2524 048B  
                                                     l2532 04EA  
                                                     l2516 0466  
                                                     l2278 06F4  
                                                     l1902 0CB0  
                                                     l2462 0FAC  
                                                     l2470 0DE7  
                                                     l2294 0ED6  
                                                     l2198 07C9  
                                                     l2438 03D3  
                                                     l2382 03A0  
                                                     l2374 0378  
                                                     l2366 0353  
                                                     l2358 032A  
                                                     l2390 0712  
                                                     l2534 04F0  
                                                     l2526 049E  
                                                     l2464 0FB2  
                                                     l2480 0DEE  
                                                     l2472 0DE8  
                                                     l1912 0D7C  
                                                     l1904 0D79  
                                                     l2296 0EDD  
                                                     l2288 0EC9  
                                                     l2384 03AF  
                                                     l2376 0385  
                                                     l2368 035A  
                                                     l2392 0717  
                                                     l2528 04C0  
                                                     l2800 0628  
                                                     l2810 0E0F  
                                                     l2386 0D52  
                                                     l2482 0DEF  
                                                     l2474 0DEB  
                                                     l2466 0DC8  
                                                     l1930 0D82  
                                                     l1906 0D7A  
                                                     l2298 0EE1  
                                                     l2378 0389  
                                                     l2394 071A  
                                                     l2802 063F  
                                                     l2490 0DA2  
                                                     l2562 064E  
                                                     l2812 0213  
                                                     l2476 0DEC  
                                                     l2468 0DE4  
                                                     l1940 0D9D  
                                                     l1924 0D80  
                                                     l2804 07DF  
                                                     l2396 071F  
                                                     l2388 0709  
                                                     l2492 0DA8  
                                                     l2484 0D9F  
                                                     l2564 06A5  
                                                     l2814 0132  
                                                     l1950 0C77  
                                                     l2478 0DED  
                                                     l2806 0D8C  
                                                     l1918 0D7E  
                                                     l2398 0725  
                                                     l2494 0DAE  
                                                     l1960 0D27  
                                                     l1952 0C7C  
                                                     l2808 0E7B  
                                                     l2496 0DB4  
                                                     l1962 0D32  
                                                     l1954 0C6E  
                                                     l1970 0C80  
                                                     l1938 0D84  
                                                     l2498 0DBA  
                                                     l1980 0CF6  
                                                     l1956 0C73  
                                                     l1972 0C85  
                                                     l1982 0CFF  
                                                     l1966 0CBA  
                                                     l1974 0CCC  
                                                     l1958 0D22  
                                                     l1990 0CA1  
                                                     l1984 0D04  
                                                     l1968 0CBF  
                                                     l1976 0CD1  
                                                     l1992 0CA6  
                                                     l1994 0052  
                                                     l1978 0CF1  
                                                     l1996 0053  
                                                     l1988 0C9E  
                                                     l1998 0058  
                                                     _T0CS 040D  
                      dio_vid_set_pin_direction@portNumber 0058  
                                                     u1200 0058  
                                                     u2000 071F  
                                                     u1201 0057  
                                                     u2001 071E  
                                                     u2010 073A  
                                                     u2011 0739  
                                                     u1300 00C3  
                                                     u1220 006D  
                                                     u1140 0CB0  
                                                     u2100 0512  
                                                     u2020 0744  
                                                     u1301 00C2  
                                                     u1221 006C  
                                                     u1141 0CAF  
                                                     u2101 0511  
                                                     u2021 0743  
                                                     u1214 005E  
                                                     u1150 0CB6  
                                                     u2110 051A  
                                                     u2030 058C  
                                                     u1215 005C  
                                                     u1151 0CB5  
                                                     u2111 0519  
                                                     u2031 058B  
                                                     u1320 00D9  
                                                     u1240 0083  
                                                     u1160 0D31  
                                                     u1400 0F28  
                                                     u2120 0522  
                                                     u2040 064A  
                                                     u1321 00D8  
                                                     u1241 0082  
                                                     u1161 0D30  
                                                     u1401 0F27  
                                                     u2121 0521  
                                                     u2041 0649  
                                                     u1314 00C9  
                                                     u1234 0073  
                                                     u1170 0CC7  
                                                     u2050 03BA  
                                                     u2130 048B  
                                                     u1315 00C7  
                                                     u1235 0071  
                                                     u1171 0CC6  
                                                     u2051 03B9  
                                                     u2131 048A  
                                                     u1340 00EE  
                                                     u1260 0098  
                                                     u1180 0CDA  
                                                     u1420 0E3A  
                                                     u2060 0408  
                                                     u2140 04E4  
                                                     u1341 00ED  
                                                     u1261 0097  
                                                     u1181 0CD9  
                                                     u1421 0E39  
                                                     u2061 0407  
                                                     u2141 04E3  
                                                     u1334 00DF  
                                                     u1254 0089  
                                                     u1190 0CFE  
                                                     u1510 019B  
                                                     u1430 014D  
                                                     u1414 0D4C  
                                                     u2150 04F6  
                                                     u1335 00DD  
                                                     u1255 0087  
                                                     u1191 0CFD  
                                                     u1511 019A  
                                                     u1431 014C  
                                                     u1415 0D4A  
                                                     u2151 04F5  
                                                     u1360 0104  
                                                     u1280 00AE  
                                                     u1504 018D  
                                                     u1361 0103  
                                                     u1281 00AD  
                                                     u1505 018B  
                                                     u1354 00F4  
                                                     u1274 009E  
                                                     u1610 01FC  
                                                     u1530 01AE  
                                                     u1450 0160  
                                                     u2090 0DB4  
                                                     u1355 00F2  
                                                     u1275 009C  
                                                     u1611 01FB  
                                                     u1531 01AD  
                                                     u1451 015F  
                                                     u2091 0DB3  
                                                     u1700 06E7  
                                                     u1380 0119  
                                                     u1604 01EF  
                                                     u1524 01A1  
                                                     u1444 0153  
                                                     u1701 06E6  
                                                     u1381 0118  
                                                     u1605 01ED  
                                                     u1525 019F  
                                                     u1445 0151  
                                                     u1374 010A  
                                                     u1294 00B4  
                                                     u1550 01C2  
                                                     u1470 0174  
                                                     u1630 0D10  
                                                     u1375 0108  
                                                     u1295 00B2  
                                                     u1551 01C1  
                                                     u1471 0173  
                                                     u1631 0D0F  
                                                     u1720 06FA  
                                                     u1624 0202  
                                                     u1544 01B4  
                                                     u1464 0166  
                                                     u1640 0D1D  
                                                     u1800 0F0A  
                                                     u1721 06F9  
                                                     u1705 06E3  
                                                     u1625 0200  
                                                     u1545 01B2  
                                                     u1465 0164  
                                                     u1641 0D1C  
                                                     u1801 0F09  
                                                     u1730 06FF  
                                                     u1650 06B5  
                                                     u1394 011F  
                                                     u1570 01D5  
                                                     u1490 0187  
                                                     u1810 0E95  
                                                     u1731 06FE  
                                                     u1715 06EE  
                                                     u1651 06B4  
                                                     u1395 011D  
                                                     u1571 01D4  
                                                     u1491 0186  
                                                     u1811 0E94  
                                                     u1660 06C0  
                                                     u1564 01C8  
                                                     u1484 017A  
                                                     u1740 0ED3  
                                                     u1900 0305  
                                                     u1661 06BF  
                                                     u1565 01C6  
                                                     u1485 0178  
                                                     u1741 0ED2  
                                                     u1901 0304  
                                                     u1670 06CB  
                                                     u1590 01E9  
                                                     u1830 0EA7  
                                                     u1910 030C  
                                                     u1671 06CA  
                                                     u1591 01E8  
                                                     u1831 0EA6  
                                                     u1911 030B  
                                                     u1584 01DB  
                                                     u1840 0EB1  
                                                     u1760 0EE5  
                                                     u1920 032A  
                                                     u1585 01D9  
                                                     u1841 0EB0  
                                                     u1825 0E99  
                                                     u1761 0EE4  
                                                     u1921 0329  
                                                     u1690 06DD  
                                                     u1930 0353  
                                                     u1691 06DC  
                                                     u1755 0ED7  
                                                     u1931 0352  
                                                     u1860 0EC4  
                                                     u1780 0EF6  
                                                     u1940 035A  
                                                     u1685 06CF  
                                                     u1861 0EC3  
                                                     u1845 0EAD  
                                                     u1781 0EF5  
                                                     u1941 0359  
                                                     u1925 0326  
                                                     u1870 0F84  
                                                     u1950 0378  
                                                     u1871 0F83  
                                                     u1855 0EB8  
                                                     u1775 0EE6  
                                                     u1951 0377  
                                                     u1880 0F8A  
                                                     u1960 03A0  
                                                     u1881 0F89  
                                                     u1785 0EF2  
                                                     u1961 039F  
                                                     u1890 0FA2  
                                                     u1970 03AF  
                                                     u1891 0FA1  
                                                     u1795 0EFE  
                                                     u1971 03AE  
                                                     u1955 0374  
                                                     _PEIE 005E  
                                                     u1980 0712  
                                                     u1981 0711  
                                                     u1990 0717  
                                                     u1991 0716  
                                                     _RCEN 048B  
                                                     _PIR1 000C  
                                                     _RSEN 0489  
                                             __CFG_WRT$OFF 0000  
                                    ??_sch_vid_delete_task 0058  
                                            fp__sch_update 004C  
                                                     _main 064E  
                                      _timer_vid_set_isr_0 0C5E  
                                                     fp_u0 003C  
                          eeprom_external_vid_read@address 0057  
                                                     btemp 007E  
                                            __CFG_BOREN$ON 0000  
                                                     start 0012  
                                        ___bmul@multiplier 0057  
                                 __size_of_ssd_u8_get_code 0043  
                                            ?_i2c_vid_nack 0070  
                                            ?_i2c_vid_wait 0070  
                                            ?_i2c_vid_stop 0070  
                                          ?_ssd_vid_update 0070  
                                            _i2c_vid_start 0C77  
                         dio_u8_read_port_value@portNumber 0056  
                                           ??_display_init 005D  
                                     ?_timer_vid_set_isr_0 0070  
                                                    ?_main 0070  
                                                    _ACKEN 048C  
                                                    _ACKDT 048D  
                                            __CFG_WDTE$OFF 0000  
                                          __end_of___awmod 0709  
                                        ??_i2c_vid_restart 0054  
                                          __end_of___lwdiv 0F0F  
                                                    i1l342 02F3  
                                          __end_of___lwmod 0EC9  
                                                    i1l451 0791  
                                                    i1l453 07B2  
                                                    i1l588 0CF0  
                                                    _PORTA 0005  
                                                    _PORTB 0006  
                                                    _PORTC 0007  
                                                    _PORTD 0008  
                                                    _PORTE 0009  
                                                    _SSPM0 00A0  
                                                    _SSPM1 00A1  
                                                    _SSPM2 00A2  
                                                    _SSPM3 00A3  
                                                    _TRISA 0085  
                                                    _TRISB 0086  
                                                    _TRISC 0087  
                                                    _TRISD 0088  
                                                    _TRISE 0089  
                                                    _SSPEN 00A5  
                                                    _SSPIF 0063  
                                            __CFG_PWRTE$ON 0000  
                        __size_of_eeprom_external_vid_read 004A  
                                 ??_counter_u8_get_counter 0054  
                                ?_eeprom_external_vid_read 0070  
                                                    fpbase 003B  
                                         __end_ofi1___bmul 0CF1  
                                                    pclath 000A  
                         __end_of_display_set_setting_mode 0C93  
                                                    status 0003  
                                                    wtemp0 007E  
                                         _timer_vid_init_0 05E9  
                                          __initialization 0015  
                                           ??_i2c_vid_nack 0054  
                                           ??_i2c_vid_wait 0054  
                                           ??_i2c_vid_stop 0054  
                                             __end_of_main 06AE  
                          __size_of_sch_vid_dispatch_tasks 0091  
                           __size_of_dio_u8_read_pin_value 001A  
                                           ?_i2c_vid_start 0070  
                            __end_of_dio_u8_read_pin_value 0D52  
                                    ??_timer_vid_set_isr_0 0054  
                                 __size_of_sch_u8_add_task 008C  
                                                   ??_main 0065  
                                 __end_of_ssd_u8_get_state 0C56  
                                __size_of_counter_vid_init 004E  
                                          sch_update@index 007A  
                                                   i1l2450 0CE2  
                                                   i1l2452 0CE6  
                                                   i1l2454 0CE8  
                                                   i1l2446 0CDD  
                                                   i1l2550 02C9  
                                                   i1l2542 0226  
                                                   i1l2456 0CEF  
                                                   i1l2448 0CDE  
                                                   i1l2544 0238  
                                                   i1l2552 02E9  
                                                   i1l2536 0225  
                                                   i1l2554 02ED  
                                                   i1l2546 0258  
                                                   i1l2570 0768  
                                                   i1l2548 0298  
                                                   i1l2572 076E  
                                                   i1l2574 0780  
                                                   i1l2566 0763  
                                                   i1l2576 07A1  
                                                   i1l2568 0767  
                                                   u220_20 0767  
                                                   u220_21 0766  
                                                   u221_24 0779  
                                                   u221_25 0777  
                                                   u222_20 0780  
                                                   u222_21 077F  
                                                   u207_20 0CE2  
                                                   u207_21 0CE1  
                                                   u223_24 0789  
                                                   u223_25 0787  
                                                   u208_20 0CEF  
                                                   u216_20 0238  
                                                   u208_21 0CEE  
                                                   u216_21 0237  
                                                   u224_24 079A  
                                                   u224_25 0798  
                     dio_vid_set_port_direction@portNumber 0057  
                                                   u217_20 0258  
                                                   u225_20 07A1  
                                                   u217_21 0257  
                                                   u225_21 07A0  
                                                   u218_20 0298  
                                                   u218_21 0297  
                                                   u226_24 07AA  
                                                   u226_25 07A8  
                                                   u219_20 02F3  
                                                   u219_21 02F2  
                                               __i1fptable 0046  
                                                   _TMR0IE 005D  
                                                   _TMR0IF 005A  
                                                   _TMR1IF 0060  
                                                   _TMR2IF 0061  
                                                   _SSPADD 0093  
                                                   _SSPBUF 0013  
                                         __end_of__fptable 0046  
                               ?_dio_vid_set_pin_direction 0054  
                                                   ___bmul 0D08  
                               __end_of_counter_vid_update 03B3  
                                      _i2c_vid_master_init 0DC8  
                                                ??___awmod 0058  
                               ?_eeprom_external_vid_write 0056  
                                                ??___lwdiv 0058  
                                                ??___lwmod 0058  
                               __end_of_display_vid_update 0763  
                            eeprom_external_vid_write@data 0056  
                                          ___awmod@divisor 0054  
                                          ___awmod@counter 0059  
                                        ??_ssd_u8_get_code 0054  
                                                   fptable 0036  
                                             __pdataCOMMON 007D  
                                                   fptotal 0006  
                      dio_vid_set_port_direction@direction 0054  
                                                   saved_w 007E  
                                     ?_i2c_vid_master_init 0070  
                          __size_of_counter_u8_get_counter 0004  
                                   _sch_vid_dispatch_tasks 0466  
                                  __end_of__initialization 0032  
                                    _dio_vid_set_pin_value 0144  
                                     __end_of_display_init 1000  
                                       ssd_vid_update@ones 005D  
                                    ssd_u8_get_code@number 0056  
                                       ssd_vid_update@tens 005E  
                                      ___bmul@multiplicand 0054  
                             display_set_setting_mode@mode 0055  
                                           __pcstackCOMMON 0070  
                                             __pidataBANK0 0C4C  
                                            sch_vid_init@i 005B  
                                          ??_i2c_vid_start 0054  
                                 sch_vid_delete_task@index 0059  
                                            ?_sch_vid_init 0070  
                                  ?_dio_u8_read_port_value 0070  
                                                ?i1___bmul 0070  
                        __size_of_display_set_setting_mode 000A  
                                ?_display_set_setting_mode 0070  
                                       _ssd_vid_set_symbol 0C93  
                     timer_vid_set_isr_0@callback_function 0055  
                                    ??_i2c_vid_master_init 0059  
                                        ??_sch_u8_add_task 0060  
                                      ?_ssd_vid_set_symbol 0070  
                                     __end_of_i2c_vid_nack 0CAA  
                                         i1___bmul@product 0073  
                                     __end_of_i2c_vid_wait 0CB7  
                                 ?_i2c_u8_master_read_byte 0070  
                                     __end_of_i2c_vid_stop 0C89  
                                               __pbssBANK0 0020  
                                 ??_dio_vid_set_port_value 0058  
                                          _i2c_vid_restart 0C6E  
                        __size_of_i2c_u8_master_write_byte 0012  
                                               __pmaintext 064E  
                                ?_i2c_u8_master_write_byte 0070  
                                   _counter_u8_get_counter 0C4E  
                                         ??_ssd_vid_update 005C  
                                     ??_ssd_vid_set_symbol 0054  
                                                  ?___bmul 0054  
                                               __pintentry 0004  
                           __end_of_dio_u8_read_port_value 0D9F  
                                           ??_sch_vid_init 005A  
                               dio_vid_set_pin_value@index 0054  
                                                  _ACKSTAT 048E  
                                    fp__counter_vid_update 0040  
  __end_of_i2c_u8_master_write_slave_address_with_read_req 0CDC  
 __size_of_i2c_u8_master_write_slave_address_with_read_req 0013  
        ??_i2c_u8_master_write_slave_address_with_read_req 0054  
         ?_i2c_u8_master_write_slave_address_with_read_req 0070  
          _i2c_u8_master_write_slave_address_with_read_req 0CC9  
                               dio_vid_set_pin_value@value 0055  
                                               ??i1___bmul 0071  
                                    fp__display_vid_update 0043  
                                 __end_of_timer_vid_init_0 064E  
                                       __size_of_timer_isr 005A  
                              __end_of_sch_vid_delete_task 05E9  
                                         _counter_vid_init 0F59  
                                                  _SSPCON2 0091  
                                                  _SSPSTAT 0094  
                      __size_of_dio_vid_set_port_direction 0037  
                                   ?_dio_vid_set_pin_value 0054  
                                                  i1fpbase 004B  
                                          __size_of___bmul 0017  
                                                  ___awmod 06AE  
                                                  ___lwdiv 0EC9  
                                                  ___lwmod 0E8D  
                                                  __ptext1 0D9F  
                                                  __ptext2 0C5E  
                                                  __ptext3 05E9  
                                                  __ptext4 0466  
                                                  __ptext5 0709  
                                                  __ptext6 02F4  
                                                  __ptext7 03B3  
                                                  __ptext8 07BD  
                                                  __ptext9 0EC9  
                                   ssd_vid_set_state@state 0055  
                                      __size_of__i1fptable 0009  
                                                  _counter 0066  
                          __end_of_i2c_u8_master_read_byte 0D08  
                                         ___awmod@dividend 0056  
                                      i1___bmul@multiplier 0072  
                                        ?_ssd_u8_get_state 0070  
                                               _sch_update 0225  
                                                  clrloop0 0C67  
                                       ??_ssd_u8_get_state 0054  
                                    __size_of_display_init 0059  
                                     end_of_initialization 0032  
                                  __end_of_i2c_vid_restart 0C77  
                          __size_of_dio_vid_set_port_value 002D  
                              ??_dio_vid_set_pin_direction 0056  
                                          _ssd_u8_get_code 07BD  
                                        __end_of_timer_isr 07BD  
                              __end_of_timer_vid_set_isr_0 0C66  
                                               _timer0_isr 007C  
                                               _timer1_isr 007B  
                                               _timer2_isr 004B  
                              ??_eeprom_external_vid_write 0057  
                                 _eeprom_external_vid_read 0F0F  
                                    _dio_u8_read_pin_value 0D38  
                                    __size_of_i2c_vid_nack 000C  
                                     sch_u8_add_task@delay 0058  
                                             _display_init 0FA7  
                                    __size_of_i2c_vid_wait 000D  
                                     sch_u8_add_task@index 0063  
                                  ?_sch_vid_dispatch_tasks 0070  
                                    __size_of_i2c_vid_stop 0009  
                                       _counter_vid_update 02F4  
                                       _display_vid_update 0709  
                                      ?_counter_vid_update 0070  
                                     __end_of_sch_vid_init 0DC8  
                                            ?_ssd_vid_init 0070  
                                      ?_display_vid_update 0070  
                                dio_u8_read_pin_value@port 005A  
                       __end_of_dio_vid_set_port_direction 0E8D  
                               _dio_vid_set_port_direction 0E56  
                                             _i2c_vid_nack 0C9E  
                                             _i2c_vid_wait 0CAA  
                                             _i2c_vid_stop 0C80  
                                           __end_of___bmul 0D1F  
                                     ??_counter_vid_update 005B  
                                          _sch_u8_add_task 04F7  
                                            __pidataCOMMON 0003  
                                   _dio_vid_set_port_value 0DF4  
                                     ??_display_vid_update 005A  
                           __end_of_sch_vid_dispatch_tasks 04F7  
                                _dio_vid_set_pin_direction 004F  
                                        __size_ofi1___bmul 0015  
                                      start_initialization 0015  
                                              ?_sch_update 0070  
                                _eeprom_external_vid_write 0E21  
                         __end_of_i2c_u8_master_write_byte 0CC9  
                                  __end_of_ssd_u8_get_code 0800  
                                           ??_ssd_vid_init 0059  
                                         ?_i2c_vid_restart 0070  
                                  ?_counter_u8_get_counter 0070  
                                          _settingModeFlag 004C  
                         __size_of_i2c_u8_master_read_byte 0017  
                             i2c_u8_master_write_byte@data 0054  
                                                 ??___bmul 0055  
                                 __end_of_counter_vid_init 0FA7  
                                              __pdataBANK0 0065  
                                    __end_of_i2c_vid_start 0C80  
                                   ?_dio_u8_read_pin_value 0057  
                              __end_of_i2c_vid_master_init 0DF4  
                                       __end_of__i1fptable 004F  
                               dio_u8_read_pin_value@index 0057  
                                              __pbssCOMMON 007B  
                                                ___latbits 0002  
                                        ?_timer_vid_init_0 0054  
                                            __pcstackBANK0 004E  
                                  ??_dio_vid_set_pin_value 0056  
                                        __size_of__fptable 0010  
                                       ??_timer_vid_init_0 0057  
                                        _ssd_vid_set_state 0C56  
                           __end_of_counter_u8_get_counter 0C52  
                                       ?_ssd_vid_set_state 0070  
                       dio_vid_set_pin_direction@direction 0055  
   i2c_u8_master_write_slave_address_with_read_req@address 0054  
                                  __end_of_sch_u8_add_task 0583  
                                         ___lwdiv@dividend 0056  
                                      ??_ssd_vid_set_state 0054  
                         dio_vid_set_port_value@portNumber 005A  
                                                __pfunctab 0036  
                              __size_of_ssd_vid_set_symbol 000B  
                                                 ?___awmod 0054  
                                 _display_set_setting_mode 0C89  
                                                 ?___lwdiv 0054  
                                                 ?___lwmod 0054  
                                      __size_of_sch_update 00CF  
                                __end_of_ssd_vid_set_state 0C5E  
                                    __size_of_sch_vid_init 0029  
                                         ___lwdiv@quotient 0059  
                                         ?_ssd_u8_get_code 0070  
                                        interrupt_function 0004  
                                                _sch_tasks 0020  
  i2c_u8_master_write_slave_address_with_write_req@address 0055  
                          dio_vid_set_pin_value@portNumber 0058  
                                 _i2c_u8_master_write_byte 0CB7  
                             __size_of_sch_vid_delete_task 0066  
                                                clear_ram0 0C66  
                          dio_u8_read_pin_value@portNumber 0059  
                                    i1___bmul@multiplicand 0070  
                                __size_of_ssd_u8_get_state 0004  
                              sch_vid_dispatch_tasks@index 0064  
                               ??_eeprom_external_vid_read 0056  
                             ??_dio_vid_set_port_direction 0055  
                             eeprom_external_vid_read@data 0058  
                                              _displayFlag 007D  
                                                _timer_isr 0763  
                                                _ssdSymbol 0047  
                                       _settingModeCounter 0049  
                                             _sch_vid_init 0D9F  
                                                 i1___bmul 0CDC  
                                     __end_of_ssd_vid_init 0D76  
                                  __size_of_ssd_vid_update 00B3  
                                        fp__ssd_vid_update 003D  
 __end_of_i2c_u8_master_write_slave_address_with_write_req 0D38  
__size_of_i2c_u8_master_write_slave_address_with_write_req 0019  
       ??_i2c_u8_master_write_slave_address_with_write_req 0054  
        ?_i2c_u8_master_write_slave_address_with_write_req 0070  
         _i2c_u8_master_write_slave_address_with_write_req 0D1F  
                                                 i1fptable 0046  
                                                 i1fptotal 0002  
                       __size_of_dio_vid_set_pin_direction 00F5  
                              dio_vid_set_port_value@value 0057  
                           dio_vid_set_pin_direction@index 0054  
                              ?_dio_vid_set_port_direction 0054  
                       __size_of_eeprom_external_vid_write 0035  
                                 ??_dio_u8_read_port_value 0054  
                                  _i2c_u8_master_read_byte 0CF1  
                                         ?_sch_u8_add_task 0058  
                                  ?_dio_vid_set_port_value 0057  
                                               ?_timer_isr 0070  
                                         __size_of___awmod 005B  
                                         __size_of___lwdiv 0046  
                                         __size_of___lwmod 003C  
                             __size_of_timer_vid_set_isr_0 0008  
                                                 __fptable 0036  
                         eeprom_external_vid_write@address 0057  
                                          ___lwdiv@divisor 0054  
                               __size_of_ssd_vid_set_state 0008  
                                          ___lwdiv@counter 005B  
                                                 __ptext10 0583  
                                                 __ptext11 0C52  
                                                 __ptext20 0FA7  
                                                 __ptext12 0E8D  
                                                 __ptext21 0C93  
                                                 __ptext13 0E21  
                                                 __ptext30 0C77  
                                                 __ptext22 0C56  
                                                 __ptext14 0C89  
                                                 __ptext31 0C6E  
                                                 __ptext23 0D52  
                                                 __ptext15 0D38  
                                                 __ptext40 0C4E  
                                                 __ptext32 0C9E  
                                                 __ptext24 0E56  
                                                 __ptext16 0D76  
                                                 __ptext41 0763  
                                                 __ptext33 0D1F  
                                                 __ptext25 0DF4  
                                                 __ptext17 04F7  
                                                 __ptext42 0225  
                                                 __ptext34 0CC9  
                                                 __ptext26 0144  
                                                 __ptext18 0D08  
                                                 __ptext43 0CDC  
                                                 __ptext35 0CB7  
                                                 __ptext27 0F59  
                                                 __ptext19 0DC8  
                                                 __ptext36 0CF1  
                                                 __ptext28 0F0F  
                                                 __ptext37 0CAA  
                                                 __ptext29 0C80  
                                                 __ptext38 004F  
                                                 __ptext39 06AE  
                                             ??_sch_update 0074  
                        __end_of_dio_vid_set_pin_direction 0144  
                              sch_u8_add_task@taskFunction 0062  
                                            __size_of_main 0060  
                           __end_of_dio_vid_set_port_value 0E21  
                        __end_of_eeprom_external_vid_write 0E56  
                                                 _ssdState 0065  
                                  ??_dio_u8_read_pin_value 0058  
                                        ?_counter_vid_init 0070  
                              __size_of_counter_vid_update 00BF  
                                       __end_of_sch_update 02F4  
                                       ??_counter_vid_init 005B  
                              __size_of_display_vid_update 005A  
                           __size_of_dio_vid_set_pin_value 00E1  
                            __end_of_dio_vid_set_pin_value 0225  
                                                 intlevel1 0036  
                                         ___lwmod@dividend 0056  
                                ??_i2c_u8_master_read_byte 0054  
                               ??_display_set_setting_mode 0054  
                                __size_of_timer_vid_init_0 0065  
                                         _ssd_u8_get_state 0C52  
                          __size_of_dio_u8_read_port_value 0029  
                         __end_of_eeprom_external_vid_read 0F59  
                          timer_vid_init_0@interruptEnable 0056  
                                 __size_of_i2c_vid_restart 0009  
                                    __size_of_ssd_vid_init 0024  
                                              ??_timer_isr 004E  
                                      _sch_vid_delete_task 0583  
                                           _ssd_vid_update 03B3  
                                          ___lwmod@divisor 0054  
                                          ___lwmod@counter 0059  
                                        _buttonPressedFlag 004D  
                               ??_i2c_u8_master_write_byte 0054  
                             __size_of_i2c_vid_master_init 002C  
                                   __size_of_i2c_vid_start 0009  
                                     ?_sch_vid_delete_task 0070  
                                             _ssd_vid_init 0D52  
                                    sch_u8_add_task@period 005C  
                                 ssd_vid_set_symbol@symbol 0056  
                               __end_of_ssd_vid_set_symbol 0C9E  
