

Microchip MPLAB XC8 Assembler V2.10 build 88905656 
                                                                                               Thu Jul 09 19:17:25 2020

Microchip MPLAB XC8 C Compiler v2.10 (Free license) build 20190730164152 Og1 
     1                           	processor	16F877A
     2                           	opt	pw 120
     3                           	opt	flic
     4                           	psect	idataCOMMON,global,class=CODE,delta=2
     5                           	psect	idataBANK0,global,class=CODE,delta=2
     6                           	psect	cinit,global,class=CODE,merge=1,delta=2
     7                           	psect	bssCOMMON,global,class=COMMON,space=1,delta=1
     8                           	psect	dataCOMMON,global,class=COMMON,space=1,delta=1
     9                           	psect	bssBANK0,global,class=BANK0,space=1,delta=1
    10                           	psect	dataBANK0,global,class=BANK0,space=1,delta=1
    11                           	psect	clrtext,global,class=CODE,delta=2
    12                           	psect	cstackCOMMON,global,class=COMMON,space=1,delta=1
    13                           	psect	cstackBANK0,global,class=BANK0,space=1,delta=1
    14                           	psect	maintext,global,class=CODE,split=1,delta=2
    15                           	psect	text1,local,class=CODE,merge=1,delta=2
    16                           	psect	text2,local,class=CODE,merge=1,delta=2
    17                           	psect	text3,local,class=CODE,merge=1,delta=2
    18                           	psect	text4,local,class=CODE,merge=1,delta=2
    19                           	psect	text5,local,class=CODE,merge=1,delta=2
    20                           	psect	text6,local,class=CODE,merge=1,delta=2
    21                           	psect	text7,local,class=CODE,merge=1,delta=2
    22                           	psect	text8,local,class=CODE,merge=1,delta=2
    23                           	psect	text9,local,class=CODE,merge=1,delta=2,group=1
    24                           	psect	text10,local,class=CODE,merge=1,delta=2
    25                           	psect	text11,local,class=CODE,merge=1,delta=2
    26                           	psect	text12,local,class=CODE,merge=1,delta=2,group=1
    27                           	psect	text13,local,class=CODE,merge=1,delta=2
    28                           	psect	text14,local,class=CODE,merge=1,delta=2
    29                           	psect	text15,local,class=CODE,merge=1,delta=2
    30                           	psect	text16,local,class=CODE,merge=1,delta=2
    31                           	psect	text17,local,class=CODE,merge=1,delta=2
    32                           	psect	text18,local,class=CODE,merge=1,delta=2,group=1
    33                           	psect	text19,local,class=CODE,merge=1,delta=2
    34                           	psect	text20,local,class=CODE,merge=1,delta=2
    35                           	psect	text21,local,class=CODE,merge=1,delta=2
    36                           	psect	text22,local,class=CODE,merge=1,delta=2
    37                           	psect	text23,local,class=CODE,merge=1,delta=2
    38                           	psect	text24,local,class=CODE,merge=1,delta=2
    39                           	psect	text25,local,class=CODE,merge=1,delta=2
    40                           	psect	text26,local,class=CODE,merge=1,delta=2
    41                           	psect	text27,local,class=CODE,merge=1,delta=2
    42                           	psect	text28,local,class=CODE,merge=1,delta=2
    43                           	psect	text29,local,class=CODE,merge=1,delta=2
    44                           	psect	text30,local,class=CODE,merge=1,delta=2
    45                           	psect	text31,local,class=CODE,merge=1,delta=2
    46                           	psect	text32,local,class=CODE,merge=1,delta=2
    47                           	psect	text33,local,class=CODE,merge=1,delta=2
    48                           	psect	text34,local,class=CODE,merge=1,delta=2
    49                           	psect	text35,local,class=CODE,merge=1,delta=2
    50                           	psect	text36,local,class=CODE,merge=1,delta=2
    51                           	psect	text37,local,class=CODE,merge=1,delta=2
    52                           	psect	text38,local,class=CODE,merge=1,delta=2
    53                           	psect	text39,local,class=CODE,merge=1,delta=2,group=1
    54                           	psect	text40,local,class=CODE,merge=1,delta=2
    55                           	psect	text41,local,class=CODE,merge=1,delta=2
    56                           	psect	intentry,global,class=CODE,delta=2
    57                           	psect	text42,local,class=CODE,merge=1,delta=2
    58                           	psect	text43,local,class=CODE,merge=1,delta=2
    59                           	psect	functab,global,class=ENTRY,delta=2
    60                           	dabs	1,0x7E,2
    61  0000                     
    62                           ; Version 2.10
    63                           ; Generated 31/07/2019 GMT
    64                           ; 
    65                           ; Copyright © 2019, Microchip Technology Inc. and its subsidiaries ("Microchip")
    66                           ; All rights reserved.
    67                           ; 
    68                           ; This software is developed by Microchip Technology Inc. and its subsidiaries ("Microch
      +                          ip").
    69                           ; 
    70                           ; Redistribution and use in source and binary forms, with or without modification, are
    71                           ; permitted provided that the following conditions are met:
    72                           ; 
    73                           ;     1. Redistributions of source code must retain the above copyright notice, this lis
      +                          t of
    74                           ;        conditions and the following disclaimer.
    75                           ; 
    76                           ;     2. Redistributions in binary form must reproduce the above copyright notice, this 
      +                          list
    77                           ;        of conditions and the following disclaimer in the documentation and/or other
    78                           ;        materials provided with the distribution.
    79                           ; 
    80                           ;     3. Microchip's name may not be used to endorse or promote products derived from th
      +                          is
    81                           ;        software without specific prior written permission.
    82                           ; 
    83                           ; THIS SOFTWARE IS PROVIDED BY MICROCHIP "AS IS" AND ANY EXPRESS OR IMPLIED WARRANTIES,
    84                           ; INCLUDING, BUT NOT LIMITED TO, THE IMPLIED WARRANTIES OF MERCHANTABILITY AND FITNESS F
      +                          OR
    85                           ; PURPOSE ARE DISCLAIMED.  IN NO EVENT SHALL MICROCHIP BE LIABLE FOR ANY DIRECT, INDIREC
      +                          T,
    86                           ; INCIDENTAL, SPECIAL, EXEMPLARY, OR CONSEQUENTIAL DAMAGES (INCLUDING BUT NOT LIMITED TO
    87                           ; PROCUREMENT OF SUBSTITUTE GOODS OR SERVICES; LOSS OF USE, DATA OR PROFITS; OR BUSINESS
    88                           ; INTERRUPTION) HOWSOEVER CAUSED AND ON ANY THEORY OF LIABILITY, WHETHER IN CONTRACT, ST
      +                          RICT
    89                           ; LIABILITY, OR TORT (INCLUDING NEGLIGENCE OR OTHERWISE) ARISING IN ANY WAY OUT OF THE U
      +                          SE OF
    90                           ; THIS SOFTWARE, EVEN IF ADVISED OF THE POSSIBILITY OF SUCH DAMAGE.
    91                           ; 
    92                           ; 
    93                           ; Code-generator required, PIC16F877A Definitions
    94                           ; 
    95                           ; SFR Addresses
    96  0000                     	;# 
    97  0001                     	;# 
    98  0002                     	;# 
    99  0003                     	;# 
   100  0004                     	;# 
   101  0005                     	;# 
   102  0006                     	;# 
   103  0007                     	;# 
   104  0008                     	;# 
   105  0009                     	;# 
   106  000A                     	;# 
   107  000B                     	;# 
   108  000C                     	;# 
   109  000D                     	;# 
   110  000E                     	;# 
   111  000E                     	;# 
   112  000F                     	;# 
   113  0010                     	;# 
   114  0011                     	;# 
   115  0012                     	;# 
   116  0013                     	;# 
   117  0014                     	;# 
   118  0015                     	;# 
   119  0015                     	;# 
   120  0016                     	;# 
   121  0017                     	;# 
   122  0018                     	;# 
   123  0019                     	;# 
   124  001A                     	;# 
   125  001B                     	;# 
   126  001B                     	;# 
   127  001C                     	;# 
   128  001D                     	;# 
   129  001E                     	;# 
   130  001F                     	;# 
   131  0081                     	;# 
   132  0085                     	;# 
   133  0086                     	;# 
   134  0087                     	;# 
   135  0088                     	;# 
   136  0089                     	;# 
   137  008C                     	;# 
   138  008D                     	;# 
   139  008E                     	;# 
   140  0091                     	;# 
   141  0092                     	;# 
   142  0093                     	;# 
   143  0094                     	;# 
   144  0098                     	;# 
   145  0099                     	;# 
   146  009C                     	;# 
   147  009D                     	;# 
   148  009E                     	;# 
   149  009F                     	;# 
   150  010C                     	;# 
   151  010D                     	;# 
   152  010E                     	;# 
   153  010F                     	;# 
   154  018C                     	;# 
   155  018D                     	;# 
   156  0000                     	;# 
   157  0001                     	;# 
   158  0002                     	;# 
   159  0003                     	;# 
   160  0004                     	;# 
   161  0005                     	;# 
   162  0006                     	;# 
   163  0007                     	;# 
   164  0008                     	;# 
   165  0009                     	;# 
   166  000A                     	;# 
   167  000B                     	;# 
   168  000C                     	;# 
   169  000D                     	;# 
   170  000E                     	;# 
   171  000E                     	;# 
   172  000F                     	;# 
   173  0010                     	;# 
   174  0011                     	;# 
   175  0012                     	;# 
   176  0013                     	;# 
   177  0014                     	;# 
   178  0015                     	;# 
   179  0015                     	;# 
   180  0016                     	;# 
   181  0017                     	;# 
   182  0018                     	;# 
   183  0019                     	;# 
   184  001A                     	;# 
   185  001B                     	;# 
   186  001B                     	;# 
   187  001C                     	;# 
   188  001D                     	;# 
   189  001E                     	;# 
   190  001F                     	;# 
   191  0081                     	;# 
   192  0085                     	;# 
   193  0086                     	;# 
   194  0087                     	;# 
   195  0088                     	;# 
   196  0089                     	;# 
   197  008C                     	;# 
   198  008D                     	;# 
   199  008E                     	;# 
   200  0091                     	;# 
   201  0092                     	;# 
   202  0093                     	;# 
   203  0094                     	;# 
   204  0098                     	;# 
   205  0099                     	;# 
   206  009C                     	;# 
   207  009D                     	;# 
   208  009E                     	;# 
   209  009F                     	;# 
   210  010C                     	;# 
   211  010D                     	;# 
   212  010E                     	;# 
   213  010F                     	;# 
   214  018C                     	;# 
   215  018D                     	;# 
   216  0000                     	;# 
   217  0001                     	;# 
   218  0002                     	;# 
   219  0003                     	;# 
   220  0004                     	;# 
   221  0005                     	;# 
   222  0006                     	;# 
   223  0007                     	;# 
   224  0008                     	;# 
   225  0009                     	;# 
   226  000A                     	;# 
   227  000B                     	;# 
   228  000C                     	;# 
   229  000D                     	;# 
   230  000E                     	;# 
   231  000E                     	;# 
   232  000F                     	;# 
   233  0010                     	;# 
   234  0011                     	;# 
   235  0012                     	;# 
   236  0013                     	;# 
   237  0014                     	;# 
   238  0015                     	;# 
   239  0015                     	;# 
   240  0016                     	;# 
   241  0017                     	;# 
   242  0018                     	;# 
   243  0019                     	;# 
   244  001A                     	;# 
   245  001B                     	;# 
   246  001B                     	;# 
   247  001C                     	;# 
   248  001D                     	;# 
   249  001E                     	;# 
   250  001F                     	;# 
   251  0081                     	;# 
   252  0085                     	;# 
   253  0086                     	;# 
   254  0087                     	;# 
   255  0088                     	;# 
   256  0089                     	;# 
   257  008C                     	;# 
   258  008D                     	;# 
   259  008E                     	;# 
   260  0091                     	;# 
   261  0092                     	;# 
   262  0093                     	;# 
   263  0094                     	;# 
   264  0098                     	;# 
   265  0099                     	;# 
   266  009C                     	;# 
   267  009D                     	;# 
   268  009E                     	;# 
   269  009F                     	;# 
   270  010C                     	;# 
   271  010D                     	;# 
   272  010E                     	;# 
   273  010F                     	;# 
   274  018C                     	;# 
   275  018D                     	;# 
   276  0000                     	;# 
   277  0001                     	;# 
   278  0002                     	;# 
   279  0003                     	;# 
   280  0004                     	;# 
   281  0005                     	;# 
   282  0006                     	;# 
   283  0007                     	;# 
   284  0008                     	;# 
   285  0009                     	;# 
   286  000A                     	;# 
   287  000B                     	;# 
   288  000C                     	;# 
   289  000D                     	;# 
   290  000E                     	;# 
   291  000E                     	;# 
   292  000F                     	;# 
   293  0010                     	;# 
   294  0011                     	;# 
   295  0012                     	;# 
   296  0013                     	;# 
   297  0014                     	;# 
   298  0015                     	;# 
   299  0015                     	;# 
   300  0016                     	;# 
   301  0017                     	;# 
   302  0018                     	;# 
   303  0019                     	;# 
   304  001A                     	;# 
   305  001B                     	;# 
   306  001B                     	;# 
   307  001C                     	;# 
   308  001D                     	;# 
   309  001E                     	;# 
   310  001F                     	;# 
   311  0081                     	;# 
   312  0085                     	;# 
   313  0086                     	;# 
   314  0087                     	;# 
   315  0088                     	;# 
   316  0089                     	;# 
   317  008C                     	;# 
   318  008D                     	;# 
   319  008E                     	;# 
   320  0091                     	;# 
   321  0092                     	;# 
   322  0093                     	;# 
   323  0094                     	;# 
   324  0098                     	;# 
   325  0099                     	;# 
   326  009C                     	;# 
   327  009D                     	;# 
   328  009E                     	;# 
   329  009F                     	;# 
   330  010C                     	;# 
   331  010D                     	;# 
   332  010E                     	;# 
   333  010F                     	;# 
   334  018C                     	;# 
   335  018D                     	;# 
   336  0000                     	;# 
   337  0001                     	;# 
   338  0002                     	;# 
   339  0003                     	;# 
   340  0004                     	;# 
   341  0005                     	;# 
   342  0006                     	;# 
   343  0007                     	;# 
   344  0008                     	;# 
   345  0009                     	;# 
   346  000A                     	;# 
   347  000B                     	;# 
   348  000C                     	;# 
   349  000D                     	;# 
   350  000E                     	;# 
   351  000E                     	;# 
   352  000F                     	;# 
   353  0010                     	;# 
   354  0011                     	;# 
   355  0012                     	;# 
   356  0013                     	;# 
   357  0014                     	;# 
   358  0015                     	;# 
   359  0015                     	;# 
   360  0016                     	;# 
   361  0017                     	;# 
   362  0018                     	;# 
   363  0019                     	;# 
   364  001A                     	;# 
   365  001B                     	;# 
   366  001B                     	;# 
   367  001C                     	;# 
   368  001D                     	;# 
   369  001E                     	;# 
   370  001F                     	;# 
   371  0081                     	;# 
   372  0085                     	;# 
   373  0086                     	;# 
   374  0087                     	;# 
   375  0088                     	;# 
   376  0089                     	;# 
   377  008C                     	;# 
   378  008D                     	;# 
   379  008E                     	;# 
   380  0091                     	;# 
   381  0092                     	;# 
   382  0093                     	;# 
   383  0094                     	;# 
   384  0098                     	;# 
   385  0099                     	;# 
   386  009C                     	;# 
   387  009D                     	;# 
   388  009E                     	;# 
   389  009F                     	;# 
   390  010C                     	;# 
   391  010D                     	;# 
   392  010E                     	;# 
   393  010F                     	;# 
   394  018C                     	;# 
   395  018D                     	;# 
   396  0000                     	;# 
   397  0001                     	;# 
   398  0002                     	;# 
   399  0003                     	;# 
   400  0004                     	;# 
   401  0005                     	;# 
   402  0006                     	;# 
   403  0007                     	;# 
   404  0008                     	;# 
   405  0009                     	;# 
   406  000A                     	;# 
   407  000B                     	;# 
   408  000C                     	;# 
   409  000D                     	;# 
   410  000E                     	;# 
   411  000E                     	;# 
   412  000F                     	;# 
   413  0010                     	;# 
   414  0011                     	;# 
   415  0012                     	;# 
   416  0013                     	;# 
   417  0014                     	;# 
   418  0015                     	;# 
   419  0015                     	;# 
   420  0016                     	;# 
   421  0017                     	;# 
   422  0018                     	;# 
   423  0019                     	;# 
   424  001A                     	;# 
   425  001B                     	;# 
   426  001B                     	;# 
   427  001C                     	;# 
   428  001D                     	;# 
   429  001E                     	;# 
   430  001F                     	;# 
   431  0081                     	;# 
   432  0085                     	;# 
   433  0086                     	;# 
   434  0087                     	;# 
   435  0088                     	;# 
   436  0089                     	;# 
   437  008C                     	;# 
   438  008D                     	;# 
   439  008E                     	;# 
   440  0091                     	;# 
   441  0092                     	;# 
   442  0093                     	;# 
   443  0094                     	;# 
   444  0098                     	;# 
   445  0099                     	;# 
   446  009C                     	;# 
   447  009D                     	;# 
   448  009E                     	;# 
   449  009F                     	;# 
   450  010C                     	;# 
   451  010D                     	;# 
   452  010E                     	;# 
   453  010F                     	;# 
   454  018C                     	;# 
   455  018D                     	;# 
   456  0000                     	;# 
   457  0001                     	;# 
   458  0002                     	;# 
   459  0003                     	;# 
   460  0004                     	;# 
   461  0005                     	;# 
   462  0006                     	;# 
   463  0007                     	;# 
   464  0008                     	;# 
   465  0009                     	;# 
   466  000A                     	;# 
   467  000B                     	;# 
   468  000C                     	;# 
   469  000D                     	;# 
   470  000E                     	;# 
   471  000E                     	;# 
   472  000F                     	;# 
   473  0010                     	;# 
   474  0011                     	;# 
   475  0012                     	;# 
   476  0013                     	;# 
   477  0014                     	;# 
   478  0015                     	;# 
   479  0015                     	;# 
   480  0016                     	;# 
   481  0017                     	;# 
   482  0018                     	;# 
   483  0019                     	;# 
   484  001A                     	;# 
   485  001B                     	;# 
   486  001B                     	;# 
   487  001C                     	;# 
   488  001D                     	;# 
   489  001E                     	;# 
   490  001F                     	;# 
   491  0081                     	;# 
   492  0085                     	;# 
   493  0086                     	;# 
   494  0087                     	;# 
   495  0088                     	;# 
   496  0089                     	;# 
   497  008C                     	;# 
   498  008D                     	;# 
   499  008E                     	;# 
   500  0091                     	;# 
   501  0092                     	;# 
   502  0093                     	;# 
   503  0094                     	;# 
   504  0098                     	;# 
   505  0099                     	;# 
   506  009C                     	;# 
   507  009D                     	;# 
   508  009E                     	;# 
   509  009F                     	;# 
   510  010C                     	;# 
   511  010D                     	;# 
   512  010E                     	;# 
   513  010F                     	;# 
   514  018C                     	;# 
   515  018D                     	;# 
   516  0000                     	;# 
   517  0001                     	;# 
   518  0002                     	;# 
   519  0003                     	;# 
   520  0004                     	;# 
   521  0005                     	;# 
   522  0006                     	;# 
   523  0007                     	;# 
   524  0008                     	;# 
   525  0009                     	;# 
   526  000A                     	;# 
   527  000B                     	;# 
   528  000C                     	;# 
   529  000D                     	;# 
   530  000E                     	;# 
   531  000E                     	;# 
   532  000F                     	;# 
   533  0010                     	;# 
   534  0011                     	;# 
   535  0012                     	;# 
   536  0013                     	;# 
   537  0014                     	;# 
   538  0015                     	;# 
   539  0015                     	;# 
   540  0016                     	;# 
   541  0017                     	;# 
   542  0018                     	;# 
   543  0019                     	;# 
   544  001A                     	;# 
   545  001B                     	;# 
   546  001B                     	;# 
   547  001C                     	;# 
   548  001D                     	;# 
   549  001E                     	;# 
   550  001F                     	;# 
   551  0081                     	;# 
   552  0085                     	;# 
   553  0086                     	;# 
   554  0087                     	;# 
   555  0088                     	;# 
   556  0089                     	;# 
   557  008C                     	;# 
   558  008D                     	;# 
   559  008E                     	;# 
   560  0091                     	;# 
   561  0092                     	;# 
   562  0093                     	;# 
   563  0094                     	;# 
   564  0098                     	;# 
   565  0099                     	;# 
   566  009C                     	;# 
   567  009D                     	;# 
   568  009E                     	;# 
   569  009F                     	;# 
   570  010C                     	;# 
   571  010D                     	;# 
   572  010E                     	;# 
   573  010F                     	;# 
   574  018C                     	;# 
   575  018D                     	;# 
   576  0000                     	;# 
   577  0001                     	;# 
   578  0002                     	;# 
   579  0003                     	;# 
   580  0004                     	;# 
   581  0005                     	;# 
   582  0006                     	;# 
   583  0007                     	;# 
   584  0008                     	;# 
   585  0009                     	;# 
   586  000A                     	;# 
   587  000B                     	;# 
   588  000C                     	;# 
   589  000D                     	;# 
   590  000E                     	;# 
   591  000E                     	;# 
   592  000F                     	;# 
   593  0010                     	;# 
   594  0011                     	;# 
   595  0012                     	;# 
   596  0013                     	;# 
   597  0014                     	;# 
   598  0015                     	;# 
   599  0015                     	;# 
   600  0016                     	;# 
   601  0017                     	;# 
   602  0018                     	;# 
   603  0019                     	;# 
   604  001A                     	;# 
   605  001B                     	;# 
   606  001B                     	;# 
   607  001C                     	;# 
   608  001D                     	;# 
   609  001E                     	;# 
   610  001F                     	;# 
   611  0081                     	;# 
   612  0085                     	;# 
   613  0086                     	;# 
   614  0087                     	;# 
   615  0088                     	;# 
   616  0089                     	;# 
   617  008C                     	;# 
   618  008D                     	;# 
   619  008E                     	;# 
   620  0091                     	;# 
   621  0092                     	;# 
   622  0093                     	;# 
   623  0094                     	;# 
   624  0098                     	;# 
   625  0099                     	;# 
   626  009C                     	;# 
   627  009D                     	;# 
   628  009E                     	;# 
   629  009F                     	;# 
   630  010C                     	;# 
   631  010D                     	;# 
   632  010E                     	;# 
   633  010F                     	;# 
   634  018C                     	;# 
   635  018D                     	;# 
   636  0000                     	;# 
   637  0001                     	;# 
   638  0002                     	;# 
   639  0003                     	;# 
   640  0004                     	;# 
   641  0005                     	;# 
   642  0006                     	;# 
   643  0007                     	;# 
   644  0008                     	;# 
   645  0009                     	;# 
   646  000A                     	;# 
   647  000B                     	;# 
   648  000C                     	;# 
   649  000D                     	;# 
   650  000E                     	;# 
   651  000E                     	;# 
   652  000F                     	;# 
   653  0010                     	;# 
   654  0011                     	;# 
   655  0012                     	;# 
   656  0013                     	;# 
   657  0014                     	;# 
   658  0015                     	;# 
   659  0015                     	;# 
   660  0016                     	;# 
   661  0017                     	;# 
   662  0018                     	;# 
   663  0019                     	;# 
   664  001A                     	;# 
   665  001B                     	;# 
   666  001B                     	;# 
   667  001C                     	;# 
   668  001D                     	;# 
   669  001E                     	;# 
   670  001F                     	;# 
   671  0081                     	;# 
   672  0085                     	;# 
   673  0086                     	;# 
   674  0087                     	;# 
   675  0088                     	;# 
   676  0089                     	;# 
   677  008C                     	;# 
   678  008D                     	;# 
   679  008E                     	;# 
   680  0091                     	;# 
   681  0092                     	;# 
   682  0093                     	;# 
   683  0094                     	;# 
   684  0098                     	;# 
   685  0099                     	;# 
   686  009C                     	;# 
   687  009D                     	;# 
   688  009E                     	;# 
   689  009F                     	;# 
   690  010C                     	;# 
   691  010D                     	;# 
   692  010E                     	;# 
   693  010F                     	;# 
   694  018C                     	;# 
   695  018D                     	;# 
   696  0000                     	;# 
   697  0001                     	;# 
   698  0002                     	;# 
   699  0003                     	;# 
   700  0004                     	;# 
   701  0005                     	;# 
   702  0006                     	;# 
   703  0007                     	;# 
   704  0008                     	;# 
   705  0009                     	;# 
   706  000A                     	;# 
   707  000B                     	;# 
   708  000C                     	;# 
   709  000D                     	;# 
   710  000E                     	;# 
   711  000E                     	;# 
   712  000F                     	;# 
   713  0010                     	;# 
   714  0011                     	;# 
   715  0012                     	;# 
   716  0013                     	;# 
   717  0014                     	;# 
   718  0015                     	;# 
   719  0015                     	;# 
   720  0016                     	;# 
   721  0017                     	;# 
   722  0018                     	;# 
   723  0019                     	;# 
   724  001A                     	;# 
   725  001B                     	;# 
   726  001B                     	;# 
   727  001C                     	;# 
   728  001D                     	;# 
   729  001E                     	;# 
   730  001F                     	;# 
   731  0081                     	;# 
   732  0085                     	;# 
   733  0086                     	;# 
   734  0087                     	;# 
   735  0088                     	;# 
   736  0089                     	;# 
   737  008C                     	;# 
   738  008D                     	;# 
   739  008E                     	;# 
   740  0091                     	;# 
   741  0092                     	;# 
   742  0093                     	;# 
   743  0094                     	;# 
   744  0098                     	;# 
   745  0099                     	;# 
   746  009C                     	;# 
   747  009D                     	;# 
   748  009E                     	;# 
   749  009F                     	;# 
   750  010C                     	;# 
   751  010D                     	;# 
   752  010E                     	;# 
   753  010F                     	;# 
   754  018C                     	;# 
   755  018D                     	;# 
   756  0000                     	;# 
   757  0001                     	;# 
   758  0002                     	;# 
   759  0003                     	;# 
   760  0004                     	;# 
   761  0005                     	;# 
   762  0006                     	;# 
   763  0007                     	;# 
   764  0008                     	;# 
   765  0009                     	;# 
   766  000A                     	;# 
   767  000B                     	;# 
   768  000C                     	;# 
   769  000D                     	;# 
   770  000E                     	;# 
   771  000E                     	;# 
   772  000F                     	;# 
   773  0010                     	;# 
   774  0011                     	;# 
   775  0012                     	;# 
   776  0013                     	;# 
   777  0014                     	;# 
   778  0015                     	;# 
   779  0015                     	;# 
   780  0016                     	;# 
   781  0017                     	;# 
   782  0018                     	;# 
   783  0019                     	;# 
   784  001A                     	;# 
   785  001B                     	;# 
   786  001B                     	;# 
   787  001C                     	;# 
   788  001D                     	;# 
   789  001E                     	;# 
   790  001F                     	;# 
   791  0081                     	;# 
   792  0085                     	;# 
   793  0086                     	;# 
   794  0087                     	;# 
   795  0088                     	;# 
   796  0089                     	;# 
   797  008C                     	;# 
   798  008D                     	;# 
   799  008E                     	;# 
   800  0091                     	;# 
   801  0092                     	;# 
   802  0093                     	;# 
   803  0094                     	;# 
   804  0098                     	;# 
   805  0099                     	;# 
   806  009C                     	;# 
   807  009D                     	;# 
   808  009E                     	;# 
   809  009F                     	;# 
   810  010C                     	;# 
   811  010D                     	;# 
   812  010E                     	;# 
   813  010F                     	;# 
   814  018C                     	;# 
   815  018D                     	;# 
   816  0000                     	;# 
   817  0001                     	;# 
   818  0002                     	;# 
   819  0003                     	;# 
   820  0004                     	;# 
   821  0005                     	;# 
   822  0006                     	;# 
   823  0007                     	;# 
   824  0008                     	;# 
   825  0009                     	;# 
   826  000A                     	;# 
   827  000B                     	;# 
   828  000C                     	;# 
   829  000D                     	;# 
   830  000E                     	;# 
   831  000E                     	;# 
   832  000F                     	;# 
   833  0010                     	;# 
   834  0011                     	;# 
   835  0012                     	;# 
   836  0013                     	;# 
   837  0014                     	;# 
   838  0015                     	;# 
   839  0015                     	;# 
   840  0016                     	;# 
   841  0017                     	;# 
   842  0018                     	;# 
   843  0019                     	;# 
   844  001A                     	;# 
   845  001B                     	;# 
   846  001B                     	;# 
   847  001C                     	;# 
   848  001D                     	;# 
   849  001E                     	;# 
   850  001F                     	;# 
   851  0081                     	;# 
   852  0085                     	;# 
   853  0086                     	;# 
   854  0087                     	;# 
   855  0088                     	;# 
   856  0089                     	;# 
   857  008C                     	;# 
   858  008D                     	;# 
   859  008E                     	;# 
   860  0091                     	;# 
   861  0092                     	;# 
   862  0093                     	;# 
   863  0094                     	;# 
   864  0098                     	;# 
   865  0099                     	;# 
   866  009C                     	;# 
   867  009D                     	;# 
   868  009E                     	;# 
   869  009F                     	;# 
   870  010C                     	;# 
   871  010D                     	;# 
   872  010E                     	;# 
   873  010F                     	;# 
   874  018C                     	;# 
   875  018D                     	;# 
   876                           
   877                           	psect	idataCOMMON
   878  0003                     __pidataCOMMON:	
   879                           
   880                           ;initializer for _displayFlag
   881  0003  34FF               	retlw	255
   882                           
   883                           	psect	idataBANK0
   884  07FE                     __pidataBANK0:	
   885                           
   886                           ;initializer for _ssdState
   887  07FE  3401               	retlw	1
   888                           
   889                           ;initializer for _counter
   890  07FF  343C               	retlw	60
   891  0015                     _CCPR1L	set	21
   892  000C                     _PIR1	set	12
   893  0013                     _SSPBUF	set	19
   894  0009                     _PORTE	set	9
   895  0008                     _PORTD	set	8
   896  0007                     _PORTC	set	7
   897  0006                     _PORTB	set	6
   898  0005                     _PORTA	set	5
   899  00BC                     _CCP1Y	set	188
   900  00BD                     _CCP1X	set	189
   901  0092                     _TMR2ON	set	146
   902  00EA                     _CCP2M2	set	234
   903  00EB                     _CCP2M3	set	235
   904  00BA                     _CCP1M2	set	186
   905  00BB                     _CCP1M3	set	187
   906  0090                     _T2CKPS0	set	144
   907  0091                     _T2CKPS1	set	145
   908  005D                     _TMR0IE	set	93
   909  005F                     _GIE	set	95
   910  005E                     _PEIE	set	94
   911  0061                     _TMR2IF	set	97
   912  0060                     _TMR1IF	set	96
   913  005A                     _TMR0IF	set	90
   914  0063                     _SSPIF	set	99
   915  00A0                     _SSPM0	set	160
   916  00A1                     _SSPM1	set	161
   917  00A2                     _SSPM2	set	162
   918  00A3                     _SSPM3	set	163
   919  00A5                     _SSPEN	set	165
   920  0092                     _PR2	set	146
   921  0093                     _SSPADD	set	147
   922  0094                     _SSPSTAT	set	148
   923  0091                     _SSPCON2	set	145
   924  0089                     _TRISE	set	137
   925  0088                     _TRISD	set	136
   926  0087                     _TRISC	set	135
   927  0086                     _TRISB	set	134
   928  0085                     _TRISA	set	133
   929  040A                     _PS2	set	1034
   930  0409                     _PS1	set	1033
   931  0408                     _PS0	set	1032
   932  040B                     _PSA	set	1035
   933  040D                     _T0CS	set	1037
   934  048B                     _RCEN	set	1163
   935  048E                     _ACKSTAT	set	1166
   936  048C                     _ACKEN	set	1164
   937  048D                     _ACKDT	set	1165
   938  0489                     _RSEN	set	1161
   939  048A                     _PEN	set	1162
   940  0488                     _SEN	set	1160
   941                           
   942                           ; #config settings
   943  0000                     
   944                           	psect	cinit
   945  0015                     start_initialization:	
   946  0015                     __initialization:	
   947                           
   948                           ; Initialize objects allocated to BANK0
   949  0015  120A  118A  27FE  120A  118A  	fcall	__pidataBANK0	;fetch initializer
   950  001A  00E5               	movwf	__pdataBANK0& (0+127)
   951  001B  120A  118A  27FF  120A  118A  	fcall	__pidataBANK0+1	;fetch initializer
   952  0020  00E6               	movwf	(__pdataBANK0+1)& (0+127)
   953                           
   954                           ; Initialize objects allocated to COMMON
   955  0021  120A  118A  2003  120A  118A  	fcall	__pidataCOMMON	;fetch initializer
   956  0026  00FD               	movwf	__pdataCOMMON& (0+127)
   957                           
   958                           ; Clear objects allocated to BANK0
   959  0027  1383               	bcf	3,7	;select IRP bank0
   960  0028  3020               	movlw	low __pbssBANK0
   961  0029  0084               	movwf	4
   962  002A  304E               	movlw	low (__pbssBANK0+46)
   963  002B  120A  158A  245F  120A  118A  	fcall	clear_ram0
   964                           
   965                           ; Clear objects allocated to COMMON
   966  0030  01FB               	clrf	__pbssCOMMON& (0+127)
   967  0031  01FC               	clrf	(__pbssCOMMON+1)& (0+127)
   968  0032                     end_of_initialization:	
   969                           ;End of C runtime variable initialization code
   970                           
   971  0032                     __end_of__initialization:	
   972  0032  0183               	clrf	3
   973  0033  120A  118A  2E4E   	ljmp	_main	;jump to C main() function
   974                           
   975                           	psect	bssCOMMON
   976  007B                     __pbssCOMMON:	
   977  007B                     _timer1_isr:	
   978  007B                     	ds	1
   979  007C                     _timer0_isr:	
   980  007C                     	ds	1
   981                           
   982                           	psect	dataCOMMON
   983  007D                     __pdataCOMMON:	
   984  007D                     _displayFlag:	
   985  007D                     	ds	1
   986                           
   987                           	psect	bssBANK0
   988  0020                     __pbssBANK0:	
   989  0020                     _sch_tasks:	
   990  0020                     	ds	39
   991  0047                     _ssdSymbol:	
   992  0047                     	ds	2
   993  0049                     _settingModeCounter:	
   994  0049                     	ds	2
   995  004B                     _timer2_isr:	
   996  004B                     	ds	1
   997  004C                     _settingModeFlag:	
   998  004C                     	ds	1
   999  004D                     _buttonPressedFlag:	
  1000  004D                     	ds	1
  1001                           
  1002                           	psect	dataBANK0
  1003  0065                     __pdataBANK0:	
  1004  0065                     _ssdState:	
  1005  0065                     	ds	1
  1006  0066                     _counter:	
  1007  0066                     	ds	1
  1008                           
  1009                           	psect	clrtext
  1010  0C5F                     clear_ram0:	
  1011                           ;	Called with FSR containing the base address, and
  1012                           ;	W with the last address+1
  1013                           
  1014  0C5F  0064               	clrwdt	;clear the watchdog before getting into this loop
  1015  0C60                     clrloop0:	
  1016  0C60  0180               	clrf	0	;clear RAM location pointed to by FSR
  1017  0C61  0A84               	incf	4,f	;increment pointer
  1018  0C62  0604               	xorwf	4,w	;XOR with final address
  1019  0C63  1903               	btfsc	3,2	;have we reached the end yet?
  1020  0C64  3400               	retlw	0	;all done for this memory range, return
  1021  0C65  0604               	xorwf	4,w	;XOR again to restore value
  1022  0C66  2C60               	goto	clrloop0	;do the next byte
  1023                           
  1024                           	psect	cstackCOMMON
  1025  0070                     __pcstackCOMMON:	
  1026  0070                     ?_eeprom_external_vid_read:	
  1027  0070                     ?_display_set_setting_mode:	
  1028                           ; 1 bytes @ 0x0
  1029                           
  1030  0070                     ?_ssd_vid_set_symbol:	
  1031                           ; 1 bytes @ 0x0
  1032                           
  1033  0070                     ?_ssd_vid_set_state:	
  1034                           ; 1 bytes @ 0x0
  1035                           
  1036  0070                     ?_ssd_vid_init:	
  1037                           ; 1 bytes @ 0x0
  1038                           
  1039  0070                     ?_ssd_u8_get_state:	
  1040                           ; 1 bytes @ 0x0
  1041                           
  1042  0070                     ?_i2c_vid_master_init:	
  1043                           ; 1 bytes @ 0x0
  1044                           
  1045  0070                     ?_i2c_vid_start:	
  1046                           ; 1 bytes @ 0x0
  1047                           
  1048  0070                     ?_i2c_vid_restart:	
  1049                           ; 1 bytes @ 0x0
  1050                           
  1051  0070                     ?_i2c_u8_master_write_slave_address_with_write_req:	
  1052                           ; 1 bytes @ 0x0
  1053                           
  1054  0070                     ?_i2c_u8_master_write_byte:	
  1055                           ; 1 bytes @ 0x0
  1056                           
  1057  0070                     ?_i2c_vid_stop:	
  1058                           ; 1 bytes @ 0x0
  1059                           
  1060  0070                     ?_i2c_u8_master_write_slave_address_with_read_req:	
  1061                           ; 1 bytes @ 0x0
  1062                           
  1063  0070                     ?_i2c_u8_master_read_byte:	
  1064                           ; 1 bytes @ 0x0
  1065                           
  1066  0070                     ?_i2c_vid_nack:	
  1067                           ; 1 bytes @ 0x0
  1068                           
  1069  0070                     ?_i2c_vid_wait:	
  1070                           ; 1 bytes @ 0x0
  1071                           
  1072  0070                     ?_sch_vid_init:	
  1073                           ; 1 bytes @ 0x0
  1074                           
  1075  0070                     ?_ssd_vid_update:	
  1076                           ; 1 bytes @ 0x0
  1077                           
  1078  0070                     ?_sch_vid_dispatch_tasks:	
  1079                           ; 1 bytes @ 0x0
  1080                           
  1081  0070                     ?_sch_vid_delete_task:	
  1082                           ; 1 bytes @ 0x0
  1083                           
  1084  0070                     ?_timer_vid_set_isr_0:	
  1085                           ; 1 bytes @ 0x0
  1086                           
  1087  0070                     ?_sch_update:	
  1088                           ; 1 bytes @ 0x0
  1089                           
  1090  0070                     ?_ssd_u8_get_code:	
  1091                           ; 1 bytes @ 0x0
  1092                           
  1093  0070                     ?_counter_vid_init:	
  1094                           ; 1 bytes @ 0x0
  1095                           
  1096  0070                     ?_counter_vid_update:	
  1097                           ; 1 bytes @ 0x0
  1098                           
  1099  0070                     ?_counter_u8_get_counter:	
  1100                           ; 1 bytes @ 0x0
  1101                           
  1102  0070                     ?_dio_u8_read_port_value:	
  1103                           ; 1 bytes @ 0x0
  1104                           
  1105  0070                     ?_display_init:	
  1106                           ; 1 bytes @ 0x0
  1107                           
  1108  0070                     ?_display_vid_update:	
  1109                           ; 1 bytes @ 0x0
  1110                           
  1111  0070                     ?_timer_isr:	
  1112                           ; 1 bytes @ 0x0
  1113                           
  1114  0070                     ?i1___bmul:	
  1115                           ; 1 bytes @ 0x0
  1116                           
  1117  0070                     ?_main:	
  1118                           ; 1 bytes @ 0x0
  1119                           
  1120  0070                     i1___bmul@multiplicand:	
  1121                           ; 2 bytes @ 0x0
  1122                           
  1123                           
  1124                           ; 1 bytes @ 0x0
  1125  0070                     	ds	1
  1126  0071                     ??i1___bmul:	
  1127                           
  1128                           ; 1 bytes @ 0x1
  1129  0071                     	ds	1
  1130  0072                     i1___bmul@multiplier:	
  1131                           
  1132                           ; 1 bytes @ 0x2
  1133  0072                     	ds	1
  1134  0073                     i1___bmul@product:	
  1135                           
  1136                           ; 1 bytes @ 0x3
  1137  0073                     	ds	1
  1138  0074                     ??_sch_update:	
  1139                           
  1140                           ; 1 bytes @ 0x4
  1141  0074                     	ds	6
  1142  007A                     sch_update@index:	
  1143                           
  1144                           ; 1 bytes @ 0xA
  1145  007A                     	ds	1
  1146                           
  1147                           	psect	cstackBANK0
  1148  004E                     __pcstackBANK0:	
  1149  004E                     ??_timer_isr:	
  1150                           
  1151                           ; 1 bytes @ 0x0
  1152  004E                     	ds	6
  1153  0054                     ?_dio_vid_set_pin_direction:	
  1154  0054                     ??_display_set_setting_mode:	
  1155                           ; 1 bytes @ 0x6
  1156                           
  1157  0054                     ??_ssd_vid_set_symbol:	
  1158                           ; 1 bytes @ 0x6
  1159                           
  1160  0054                     ??_ssd_vid_set_state:	
  1161                           ; 1 bytes @ 0x6
  1162                           
  1163  0054                     ??_ssd_u8_get_state:	
  1164                           ; 1 bytes @ 0x6
  1165                           
  1166  0054                     ??_i2c_vid_start:	
  1167                           ; 1 bytes @ 0x6
  1168                           
  1169  0054                     ??_i2c_vid_restart:	
  1170                           ; 1 bytes @ 0x6
  1171                           
  1172  0054                     ??_i2c_u8_master_write_slave_address_with_write_req:	
  1173                           ; 1 bytes @ 0x6
  1174                           
  1175  0054                     ??_i2c_u8_master_write_byte:	
  1176                           ; 1 bytes @ 0x6
  1177                           
  1178  0054                     ??_i2c_vid_stop:	
  1179                           ; 1 bytes @ 0x6
  1180                           
  1181  0054                     ??_i2c_u8_master_write_slave_address_with_read_req:	
  1182                           ; 1 bytes @ 0x6
  1183                           
  1184  0054                     ??_i2c_u8_master_read_byte:	
  1185                           ; 1 bytes @ 0x6
  1186                           
  1187  0054                     ??_i2c_vid_nack:	
  1188                           ; 1 bytes @ 0x6
  1189                           
  1190  0054                     ??_i2c_vid_wait:	
  1191                           ; 1 bytes @ 0x6
  1192                           
  1193  0054                     ??_timer_vid_set_isr_0:	
  1194                           ; 1 bytes @ 0x6
  1195                           
  1196  0054                     ?_timer_vid_init_0:	
  1197                           ; 1 bytes @ 0x6
  1198                           
  1199  0054                     ??_ssd_u8_get_code:	
  1200                           ; 1 bytes @ 0x6
  1201                           
  1202  0054                     ??_counter_u8_get_counter:	
  1203                           ; 1 bytes @ 0x6
  1204                           
  1205  0054                     ?_dio_vid_set_port_direction:	
  1206                           ; 1 bytes @ 0x6
  1207                           
  1208  0054                     ??_dio_u8_read_port_value:	
  1209                           ; 1 bytes @ 0x6
  1210                           
  1211  0054                     ?_dio_vid_set_pin_value:	
  1212                           ; 1 bytes @ 0x6
  1213                           
  1214  0054                     ?___bmul:	
  1215                           ; 1 bytes @ 0x6
  1216                           
  1217  0054                     ?___awmod:	
  1218                           ; 1 bytes @ 0x6
  1219                           
  1220  0054                     ?___lwdiv:	
  1221                           ; 2 bytes @ 0x6
  1222                           
  1223  0054                     ?___lwmod:	
  1224                           ; 2 bytes @ 0x6
  1225                           
  1226  0054                     dio_vid_set_port_direction@direction:	
  1227                           ; 2 bytes @ 0x6
  1228                           
  1229  0054                     dio_vid_set_pin_value@index:	
  1230                           ; 1 bytes @ 0x6
  1231                           
  1232  0054                     dio_vid_set_pin_direction@index:	
  1233                           ; 1 bytes @ 0x6
  1234                           
  1235  0054                     i2c_u8_master_write_slave_address_with_read_req@address:	
  1236                           ; 1 bytes @ 0x6
  1237                           
  1238  0054                     i2c_u8_master_write_byte@data:	
  1239                           ; 1 bytes @ 0x6
  1240                           
  1241  0054                     ___bmul@multiplicand:	
  1242                           ; 1 bytes @ 0x6
  1243                           
  1244  0054                     timer_vid_init_0@prescaler:	
  1245                           ; 1 bytes @ 0x6
  1246                           
  1247  0054                     ___awmod@divisor:	
  1248                           ; 2 bytes @ 0x6
  1249                           
  1250  0054                     ___lwdiv@divisor:	
  1251                           ; 2 bytes @ 0x6
  1252                           
  1253  0054                     ___lwmod@divisor:	
  1254                           ; 2 bytes @ 0x6
  1255                           
  1256                           
  1257                           ; 2 bytes @ 0x6
  1258  0054                     	ds	1
  1259  0055                     ??_dio_vid_set_port_direction:	
  1260  0055                     ??___bmul:	
  1261                           ; 1 bytes @ 0x7
  1262                           
  1263  0055                     dio_vid_set_pin_value@value:	
  1264                           ; 1 bytes @ 0x7
  1265                           
  1266  0055                     dio_vid_set_pin_direction@direction:	
  1267                           ; 1 bytes @ 0x7
  1268                           
  1269  0055                     display_set_setting_mode@mode:	
  1270                           ; 1 bytes @ 0x7
  1271                           
  1272  0055                     i2c_u8_master_write_slave_address_with_write_req@address:	
  1273                           ; 1 bytes @ 0x7
  1274                           
  1275  0055                     ssd_vid_set_state@state:	
  1276                           ; 1 bytes @ 0x7
  1277                           
  1278  0055                     timer_vid_set_isr_0@callback_function:	
  1279                           ; 1 bytes @ 0x7
  1280                           
  1281                           
  1282                           ; 1 bytes @ 0x7
  1283  0055                     	ds	1
  1284  0056                     ??_dio_vid_set_pin_direction:	
  1285  0056                     ??_dio_vid_set_pin_value:	
  1286                           ; 1 bytes @ 0x8
  1287                           
  1288  0056                     dio_u8_read_port_value@portNumber:	
  1289                           ; 1 bytes @ 0x8
  1290                           
  1291  0056                     ssd_vid_set_symbol@symbol:	
  1292                           ; 1 bytes @ 0x8
  1293                           
  1294  0056                     ssd_u8_get_code@number:	
  1295                           ; 1 bytes @ 0x8
  1296                           
  1297  0056                     timer_vid_init_0@interruptEnable:	
  1298                           ; 1 bytes @ 0x8
  1299                           
  1300  0056                     ___bmul@product:	
  1301                           ; 1 bytes @ 0x8
  1302                           
  1303  0056                     ___awmod@dividend:	
  1304                           ; 1 bytes @ 0x8
  1305                           
  1306  0056                     ___lwdiv@dividend:	
  1307                           ; 2 bytes @ 0x8
  1308                           
  1309  0056                     ___lwmod@dividend:	
  1310                           ; 2 bytes @ 0x8
  1311                           
  1312                           
  1313                           ; 2 bytes @ 0x8
  1314  0056                     	ds	1
  1315  0057                     ?_dio_u8_read_pin_value:	
  1316  0057                     ??_timer_vid_init_0:	
  1317                           ; 1 bytes @ 0x9
  1318                           
  1319  0057                     ?_dio_vid_set_port_value:	
  1320                           ; 1 bytes @ 0x9
  1321                           
  1322  0057                     dio_vid_set_port_direction@portNumber:	
  1323                           ; 1 bytes @ 0x9
  1324                           
  1325  0057                     dio_vid_set_port_value@value:	
  1326                           ; 1 bytes @ 0x9
  1327                           
  1328  0057                     dio_u8_read_pin_value@index:	
  1329                           ; 1 bytes @ 0x9
  1330                           
  1331  0057                     ___bmul@multiplier:	
  1332                           ; 1 bytes @ 0x9
  1333                           
  1334                           
  1335                           ; 1 bytes @ 0x9
  1336  0057                     	ds	1
  1337  0058                     ??_dio_u8_read_pin_value:	
  1338  0058                     ?_sch_u8_add_task:	
  1339                           ; 1 bytes @ 0xA
  1340                           
  1341  0058                     ??_sch_vid_delete_task:	
  1342                           ; 1 bytes @ 0xA
  1343                           
  1344  0058                     ??_dio_vid_set_port_value:	
  1345                           ; 1 bytes @ 0xA
  1346                           
  1347  0058                     ??___awmod:	
  1348                           ; 1 bytes @ 0xA
  1349                           
  1350  0058                     ??___lwdiv:	
  1351                           ; 1 bytes @ 0xA
  1352                           
  1353  0058                     ??___lwmod:	
  1354                           ; 1 bytes @ 0xA
  1355                           
  1356  0058                     dio_vid_set_pin_value@portNumber:	
  1357                           ; 1 bytes @ 0xA
  1358                           
  1359  0058                     dio_vid_set_pin_direction@portNumber:	
  1360                           ; 1 bytes @ 0xA
  1361                           
  1362  0058                     sch_u8_add_task@delay:	
  1363                           ; 1 bytes @ 0xA
  1364                           
  1365                           
  1366                           ; 4 bytes @ 0xA
  1367  0058                     	ds	1
  1368  0059                     ??_ssd_vid_init:	
  1369  0059                     ??_i2c_vid_master_init:	
  1370                           ; 1 bytes @ 0xB
  1371                           
  1372  0059                     dio_u8_read_pin_value@portNumber:	
  1373                           ; 1 bytes @ 0xB
  1374                           
  1375  0059                     sch_vid_delete_task@index:	
  1376                           ; 1 bytes @ 0xB
  1377                           
  1378  0059                     ___awmod@counter:	
  1379                           ; 1 bytes @ 0xB
  1380                           
  1381  0059                     ___lwmod@counter:	
  1382                           ; 1 bytes @ 0xB
  1383                           
  1384  0059                     ___lwdiv@quotient:	
  1385                           ; 1 bytes @ 0xB
  1386                           
  1387                           
  1388                           ; 2 bytes @ 0xB
  1389  0059                     	ds	1
  1390  005A                     ??_eeprom_external_vid_read:	
  1391  005A                     ?_eeprom_external_vid_write:	
  1392                           ; 1 bytes @ 0xC
  1393                           
  1394  005A                     ??_sch_vid_init:	
  1395                           ; 1 bytes @ 0xC
  1396                           
  1397  005A                     ??_display_vid_update:	
  1398                           ; 1 bytes @ 0xC
  1399                           
  1400  005A                     dio_vid_set_port_value@portNumber:	
  1401                           ; 1 bytes @ 0xC
  1402                           
  1403  005A                     dio_u8_read_pin_value@port:	
  1404                           ; 1 bytes @ 0xC
  1405                           
  1406  005A                     eeprom_external_vid_write@data:	
  1407                           ; 1 bytes @ 0xC
  1408                           
  1409  005A                     ___awmod@sign:	
  1410                           ; 1 bytes @ 0xC
  1411                           
  1412                           
  1413                           ; 1 bytes @ 0xC
  1414  005A                     	ds	1
  1415  005B                     ??_eeprom_external_vid_write:	
  1416  005B                     eeprom_external_vid_write@address:	
  1417                           ; 1 bytes @ 0xD
  1418                           
  1419  005B                     eeprom_external_vid_read@address:	
  1420                           ; 1 bytes @ 0xD
  1421                           
  1422  005B                     sch_vid_init@i:	
  1423                           ; 1 bytes @ 0xD
  1424                           
  1425  005B                     ___lwdiv@counter:	
  1426                           ; 1 bytes @ 0xD
  1427                           
  1428                           
  1429                           ; 1 bytes @ 0xD
  1430  005B                     	ds	1
  1431  005C                     ??_ssd_vid_update:	
  1432  005C                     ??_counter_vid_update:	
  1433                           ; 1 bytes @ 0xE
  1434                           
  1435  005C                     eeprom_external_vid_read@data:	
  1436                           ; 1 bytes @ 0xE
  1437                           
  1438  005C                     sch_u8_add_task@period:	
  1439                           ; 1 bytes @ 0xE
  1440                           
  1441                           
  1442                           ; 4 bytes @ 0xE
  1443  005C                     	ds	1
  1444  005D                     ??_counter_vid_init:	
  1445  005D                     ssd_vid_update@ones:	
  1446                           ; 1 bytes @ 0xF
  1447                           
  1448                           
  1449                           ; 1 bytes @ 0xF
  1450  005D                     	ds	1
  1451  005E                     ssd_vid_update@tens:	
  1452                           
  1453                           ; 1 bytes @ 0x10
  1454  005E                     	ds	1
  1455  005F                     ??_sch_vid_dispatch_tasks:	
  1456  005F                     ??_display_init:	
  1457                           ; 1 bytes @ 0x11
  1458                           
  1459                           
  1460                           ; 1 bytes @ 0x11
  1461  005F                     	ds	1
  1462  0060                     ??_sch_u8_add_task:	
  1463                           
  1464                           ; 1 bytes @ 0x12
  1465  0060                     	ds	2
  1466  0062                     sch_u8_add_task@taskFunction:	
  1467                           
  1468                           ; 1 bytes @ 0x14
  1469  0062                     	ds	1
  1470  0063                     sch_u8_add_task@index:	
  1471                           
  1472                           ; 1 bytes @ 0x15
  1473  0063                     	ds	1
  1474  0064                     sch_vid_dispatch_tasks@index:	
  1475                           
  1476                           ; 1 bytes @ 0x16
  1477  0064                     	ds	1
  1478  0065                     ??_main:	
  1479                           
  1480                           	psect	maintext
  1481  064E                     __pmaintext:	
  1482                           ; 1 bytes @ 0x17
  1483 ;;
  1484 ;;Main: autosize = 0, tempsize = 0, incstack = 0, save=0
  1485 ;;
  1486 ;; *************** function _main *****************
  1487 ;; Defined at:
  1488 ;;		line 24 in file "main.c"
  1489 ;; Parameters:    Size  Location     Type
  1490 ;;		None
  1491 ;; Auto vars:     Size  Location     Type
  1492 ;;		None
  1493 ;; Return value:  Size  Location     Type
  1494 ;;                  2  314[None  ] int 
  1495 ;; Registers used:
  1496 ;;		wreg, fsr0l, fsr0h, status,2, status,0, btemp+1, pclath, cstack
  1497 ;; Tracked objects:
  1498 ;;		On entry : B00/0
  1499 ;;		On exit  : 0/0
  1500 ;;		Unchanged: 0/0
  1501 ;; Data sizes:     COMMON   BANK0   BANK1   BANK3   BANK2
  1502 ;;      Params:         0       0       0       0       0
  1503 ;;      Locals:         0       0       0       0       0
  1504 ;;      Temps:          0       0       0       0       0
  1505 ;;      Totals:         0       0       0       0       0
  1506 ;;Total ram usage:        0 bytes
  1507 ;; Hardware stack levels required when called:    8
  1508 ;; This function calls:
  1509 ;;		_display_init
  1510 ;;		_sch_u8_add_task
  1511 ;;		_sch_vid_dispatch_tasks
  1512 ;;		_sch_vid_init
  1513 ;; This function is called by:
  1514 ;;		Startup code after reset
  1515 ;; This function uses a non-reentrant model
  1516 ;;
  1517                           
  1518                           
  1519                           ;psect for function _main
  1520  064E                     _main:	
  1521  064E                     l2654:	
  1522                           ;incstack = 0
  1523                           ; Regs used in _main: [wreg-fsr0h+status,2+status,0+btemp+1+pclath+cstack]
  1524                           
  1525                           
  1526                           ;main.c: 26:     display_init();
  1527  064E  120A  158A  27A7  120A  118A  	fcall	_display_init
  1528                           
  1529                           ;main.c: 27:     sch_vid_init();
  1530  0653  120A  158A  2598  120A  118A  	fcall	_sch_vid_init
  1531                           
  1532                           ;main.c: 28:     sch_u8_add_task(counter_vid_update, 20, 20);
  1533  0658  3000               	movlw	0
  1534  0659  1283               	bcf	3,5	;RP0=0, select bank0
  1535  065A  1303               	bcf	3,6	;RP1=0, select bank0
  1536  065B  00DB               	movwf	sch_u8_add_task@delay+3
  1537  065C  3000               	movlw	0
  1538  065D  00DA               	movwf	sch_u8_add_task@delay+2
  1539  065E  3000               	movlw	0
  1540  065F  00D9               	movwf	sch_u8_add_task@delay+1
  1541  0660  3014               	movlw	20
  1542  0661  00D8               	movwf	sch_u8_add_task@delay
  1543  0662  3000               	movlw	0
  1544  0663  00DF               	movwf	sch_u8_add_task@period+3
  1545  0664  3000               	movlw	0
  1546  0665  00DE               	movwf	sch_u8_add_task@period+2
  1547  0666  3000               	movlw	0
  1548  0667  00DD               	movwf	sch_u8_add_task@period+1
  1549  0668  3014               	movlw	20
  1550  0669  00DC               	movwf	sch_u8_add_task@period
  1551  066A  3005               	movlw	(low (fp__counter_vid_update-fpbase))& (0+255)
  1552  066B  120A  118A  24F7  120A  118A  	fcall	_sch_u8_add_task
  1553                           
  1554                           ;main.c: 29:     sch_u8_add_task(display_vid_update, 0, 20);
  1555  0670  3000               	movlw	0
  1556  0671  1283               	bcf	3,5	;RP0=0, select bank0
  1557  0672  1303               	bcf	3,6	;RP1=0, select bank0
  1558  0673  00DB               	movwf	sch_u8_add_task@delay+3
  1559  0674  3000               	movlw	0
  1560  0675  00DA               	movwf	sch_u8_add_task@delay+2
  1561  0676  3000               	movlw	0
  1562  0677  00D9               	movwf	sch_u8_add_task@delay+1
  1563  0678  3000               	movlw	0
  1564  0679  00D8               	movwf	sch_u8_add_task@delay
  1565  067A  3000               	movlw	0
  1566  067B  00DF               	movwf	sch_u8_add_task@period+3
  1567  067C  3000               	movlw	0
  1568  067D  00DE               	movwf	sch_u8_add_task@period+2
  1569  067E  3000               	movlw	0
  1570  067F  00DD               	movwf	sch_u8_add_task@period+1
  1571  0680  3014               	movlw	20
  1572  0681  00DC               	movwf	sch_u8_add_task@period
  1573  0682  3008               	movlw	(low (fp__display_vid_update-fpbase))& (0+255)
  1574  0683  120A  118A  24F7  120A  118A  	fcall	_sch_u8_add_task
  1575                           
  1576                           ;main.c: 30:     sch_u8_add_task(ssd_vid_update, 5, 5);
  1577  0688  3000               	movlw	0
  1578  0689  1283               	bcf	3,5	;RP0=0, select bank0
  1579  068A  1303               	bcf	3,6	;RP1=0, select bank0
  1580  068B  00DB               	movwf	sch_u8_add_task@delay+3
  1581  068C  3000               	movlw	0
  1582  068D  00DA               	movwf	sch_u8_add_task@delay+2
  1583  068E  3000               	movlw	0
  1584  068F  00D9               	movwf	sch_u8_add_task@delay+1
  1585  0690  3005               	movlw	5
  1586  0691  00D8               	movwf	sch_u8_add_task@delay
  1587  0692  3000               	movlw	0
  1588  0693  00DF               	movwf	sch_u8_add_task@period+3
  1589  0694  3000               	movlw	0
  1590  0695  00DE               	movwf	sch_u8_add_task@period+2
  1591  0696  3000               	movlw	0
  1592  0697  00DD               	movwf	sch_u8_add_task@period+1
  1593  0698  3005               	movlw	5
  1594  0699  00DC               	movwf	sch_u8_add_task@period
  1595  069A  3002               	movlw	(low (fp__ssd_vid_update-fpbase))& (0+255)
  1596  069B  120A  118A  24F7  120A  118A  	fcall	_sch_u8_add_task
  1597  06A0                     l2656:	
  1598                           
  1599                           ;main.c: 33:         sch_vid_dispatch_tasks();
  1600  06A0  120A  118A  2466  120A  118A  	fcall	_sch_vid_dispatch_tasks
  1601  06A5  2EA0               	goto	l2656
  1602  06A6  120A  118A  2812   	ljmp	start
  1603  06A9                     __end_of_main:	
  1604                           
  1605                           	psect	text1
  1606  0D98                     __ptext1:	
  1607 ;; *************** function _sch_vid_init *****************
  1608 ;; Defined at:
  1609 ;;		line 19 in file "scheduler.c"
  1610 ;; Parameters:    Size  Location     Type
  1611 ;;		None
  1612 ;; Auto vars:     Size  Location     Type
  1613 ;;  i               1   13[BANK0 ] unsigned char 
  1614 ;; Return value:  Size  Location     Type
  1615 ;;                  1    wreg      void 
  1616 ;; Registers used:
  1617 ;;		wreg, fsr0l, fsr0h, status,2, status,0, pclath, cstack
  1618 ;; Tracked objects:
  1619 ;;		On entry : 0/0
  1620 ;;		On exit  : 0/0
  1621 ;;		Unchanged: 0/0
  1622 ;; Data sizes:     COMMON   BANK0   BANK1   BANK3   BANK2
  1623 ;;      Params:         0       0       0       0       0
  1624 ;;      Locals:         0       1       0       0       0
  1625 ;;      Temps:          0       1       0       0       0
  1626 ;;      Totals:         0       2       0       0       0
  1627 ;;Total ram usage:        2 bytes
  1628 ;; Hardware stack levels used:    1
  1629 ;; Hardware stack levels required when called:    5
  1630 ;; This function calls:
  1631 ;;		_sch_vid_delete_task
  1632 ;;		_timer_vid_init_0
  1633 ;;		_timer_vid_set_isr_0
  1634 ;; This function is called by:
  1635 ;;		_main
  1636 ;; This function uses a non-reentrant model
  1637 ;;
  1638                           
  1639                           
  1640                           ;psect for function _sch_vid_init
  1641  0D98                     _sch_vid_init:	
  1642  0D98                     l2576:	
  1643                           ;incstack = 0
  1644                           ; Regs used in _sch_vid_init: [wreg-fsr0h+status,2+status,0+pclath+cstack]
  1645                           
  1646                           
  1647                           ;scheduler.c: 20:     u8 i;;scheduler.c: 21:     for (i = 0; i < 3; i++) {
  1648  0D98  1283               	bcf	3,5	;RP0=0, select bank0
  1649  0D99  1303               	bcf	3,6	;RP1=0, select bank0
  1650  0D9A  01DB               	clrf	sch_vid_init@i
  1651  0D9B                     l2582:	
  1652                           
  1653                           ;scheduler.c: 22:         sch_vid_delete_task(i);
  1654  0D9B  085B               	movf	sch_vid_init@i,w
  1655  0D9C  120A  118A  2583  120A  158A  	fcall	_sch_vid_delete_task
  1656  0DA1                     l2584:	
  1657                           
  1658                           ;scheduler.c: 23:     }
  1659  0DA1  3001               	movlw	1
  1660  0DA2  1283               	bcf	3,5	;RP0=0, select bank0
  1661  0DA3  1303               	bcf	3,6	;RP1=0, select bank0
  1662  0DA4  00DA               	movwf	??_sch_vid_init
  1663  0DA5  085A               	movf	??_sch_vid_init,w
  1664  0DA6  07DB               	addwf	sch_vid_init@i,f
  1665  0DA7                     l2586:	
  1666  0DA7  3003               	movlw	3
  1667  0DA8  025B               	subwf	sch_vid_init@i,w
  1668  0DA9  1C03               	skipc
  1669  0DAA  2DAC               	goto	u2091
  1670  0DAB  2DAD               	goto	u2090
  1671  0DAC                     u2091:	
  1672  0DAC  2D9B               	goto	l2582
  1673  0DAD                     u2090:	
  1674  0DAD                     l2588:	
  1675                           
  1676                           ;scheduler.c: 24:     timer_vid_set_isr_0(sch_update);
  1677  0DAD  3001               	movlw	(low (fp__sch_update-i1fpbase))& (0+255)
  1678  0DAE  120A  158A  2457  120A  158A  	fcall	_timer_vid_set_isr_0
  1679  0DB3                     l2590:	
  1680                           
  1681                           ;scheduler.c: 25:     timer_vid_init_0(8, 1);
  1682  0DB3  3008               	movlw	8
  1683  0DB4  1283               	bcf	3,5	;RP0=0, select bank0
  1684  0DB5  1303               	bcf	3,6	;RP1=0, select bank0
  1685  0DB6  00D4               	movwf	timer_vid_init_0@prescaler
  1686  0DB7  3000               	movlw	0
  1687  0DB8  00D5               	movwf	timer_vid_init_0@prescaler+1
  1688  0DB9  01D6               	clrf	timer_vid_init_0@interruptEnable
  1689  0DBA  0AD6               	incf	timer_vid_init_0@interruptEnable,f
  1690  0DBB  120A  118A  25E9  120A  158A  	fcall	_timer_vid_init_0
  1691  0DC0                     l333:	
  1692  0DC0  0008               	return
  1693  0DC1                     __end_of_sch_vid_init:	
  1694                           
  1695                           	psect	text2
  1696  0C57                     __ptext2:	
  1697 ;; *************** function _timer_vid_set_isr_0 *****************
  1698 ;; Defined at:
  1699 ;;		line 36 in file "timer.c"
  1700 ;; Parameters:    Size  Location     Type
  1701 ;;  callback_fun    1    wreg     PTR FTN()void 
  1702 ;;		 -> sch_update(1), 
  1703 ;; Auto vars:     Size  Location     Type
  1704 ;;  callback_fun    1    7[BANK0 ] PTR FTN()void 
  1705 ;;		 -> sch_update(1), 
  1706 ;; Return value:  Size  Location     Type
  1707 ;;                  1    wreg      void 
  1708 ;; Registers used:
  1709 ;;		wreg
  1710 ;; Tracked objects:
  1711 ;;		On entry : 0/0
  1712 ;;		On exit  : 0/0
  1713 ;;		Unchanged: 0/0
  1714 ;; Data sizes:     COMMON   BANK0   BANK1   BANK3   BANK2
  1715 ;;      Params:         0       0       0       0       0
  1716 ;;      Locals:         0       1       0       0       0
  1717 ;;      Temps:          0       1       0       0       0
  1718 ;;      Totals:         0       2       0       0       0
  1719 ;;Total ram usage:        2 bytes
  1720 ;; Hardware stack levels used:    1
  1721 ;; Hardware stack levels required when called:    3
  1722 ;; This function calls:
  1723 ;;		Nothing
  1724 ;; This function is called by:
  1725 ;;		_sch_vid_init
  1726 ;; This function uses a non-reentrant model
  1727 ;;
  1728                           
  1729                           
  1730                           ;psect for function _timer_vid_set_isr_0
  1731  0C57                     _timer_vid_set_isr_0:	
  1732                           
  1733                           ;incstack = 0
  1734                           ; Regs used in _timer_vid_set_isr_0: [wreg]
  1735                           ;timer_vid_set_isr_0@callback_function stored from wreg
  1736  0C57  1283               	bcf	3,5	;RP0=0, select bank0
  1737  0C58  1303               	bcf	3,6	;RP1=0, select bank0
  1738  0C59  00D5               	movwf	timer_vid_set_isr_0@callback_function
  1739  0C5A                     l2522:	
  1740                           
  1741                           ;timer.c: 37:     timer0_isr = callback_function;
  1742  0C5A  0855               	movf	timer_vid_set_isr_0@callback_function,w
  1743  0C5B  00D4               	movwf	??_timer_vid_set_isr_0
  1744  0C5C  0854               	movf	??_timer_vid_set_isr_0,w
  1745  0C5D  00FC               	movwf	_timer0_isr
  1746  0C5E                     l456:	
  1747  0C5E  0008               	return
  1748  0C5F                     __end_of_timer_vid_set_isr_0:	
  1749                           
  1750                           	psect	text3
  1751  05E9                     __ptext3:	
  1752 ;; *************** function _timer_vid_init_0 *****************
  1753 ;; Defined at:
  1754 ;;		line 48 in file "timer.c"
  1755 ;; Parameters:    Size  Location     Type
  1756 ;;  prescaler       2    6[BANK0 ] unsigned short 
  1757 ;;  interruptEna    1    8[BANK0 ] unsigned char 
  1758 ;; Auto vars:     Size  Location     Type
  1759 ;;		None
  1760 ;; Return value:  Size  Location     Type
  1761 ;;                  1    wreg      void 
  1762 ;; Registers used:
  1763 ;;		wreg, fsr0l, fsr0h, status,2, status,0
  1764 ;; Tracked objects:
  1765 ;;		On entry : 0/0
  1766 ;;		On exit  : 0/0
  1767 ;;		Unchanged: 0/0
  1768 ;; Data sizes:     COMMON   BANK0   BANK1   BANK3   BANK2
  1769 ;;      Params:         0       3       0       0       0
  1770 ;;      Locals:         0       0       0       0       0
  1771 ;;      Temps:          0       0       0       0       0
  1772 ;;      Totals:         0       3       0       0       0
  1773 ;;Total ram usage:        3 bytes
  1774 ;; Hardware stack levels used:    1
  1775 ;; Hardware stack levels required when called:    3
  1776 ;; This function calls:
  1777 ;;		Nothing
  1778 ;; This function is called by:
  1779 ;;		_sch_vid_init
  1780 ;; This function uses a non-reentrant model
  1781 ;;
  1782                           
  1783                           
  1784                           ;psect for function _timer_vid_init_0
  1785  05E9                     _timer_vid_init_0:	
  1786  05E9                     l2524:	
  1787                           ;incstack = 0
  1788                           ; Regs used in _timer_vid_init_0: [wreg-fsr0h+status,2+status,0]
  1789                           
  1790                           
  1791                           ;timer.c: 51:     T0CS = 0;
  1792  05E9  1683               	bsf	3,5	;RP0=1, select bank1
  1793  05EA  1303               	bcf	3,6	;RP1=0, select bank1
  1794  05EB  1281               	bcf	1,5	;volatile
  1795                           
  1796                           ;timer.c: 54:     PSA = 0;
  1797  05EC  1181               	bcf	1,3	;volatile
  1798                           
  1799                           ;timer.c: 57:     switch (prescaler) {
  1800  05ED  2E1E               	goto	l2528
  1801  05EE                     l466:	
  1802                           ;timer.c: 58:         case 2:
  1803                           
  1804                           
  1805                           ;timer.c: 59:             PS0 = 0;
  1806  05EE  1683               	bsf	3,5	;RP0=1, select bank1
  1807  05EF  1303               	bcf	3,6	;RP1=0, select bank1
  1808  05F0  1001               	bcf	1,0	;volatile
  1809                           
  1810                           ;timer.c: 60:             PS1 = 0;
  1811  05F1  1081               	bcf	1,1	;volatile
  1812                           
  1813                           ;timer.c: 61:             PS2 = 0;
  1814  05F2  1101               	bcf	1,2	;volatile
  1815                           
  1816                           ;timer.c: 62:             break;
  1817  05F3  2E44               	goto	l2530
  1818  05F4                     l468:	
  1819                           ;timer.c: 63:         case 4:
  1820                           
  1821                           
  1822                           ;timer.c: 64:             PS0 = 1;
  1823  05F4  1683               	bsf	3,5	;RP0=1, select bank1
  1824  05F5  1303               	bcf	3,6	;RP1=0, select bank1
  1825  05F6  1401               	bsf	1,0	;volatile
  1826                           
  1827                           ;timer.c: 65:             PS1 = 0;
  1828  05F7  1081               	bcf	1,1	;volatile
  1829                           
  1830                           ;timer.c: 66:             PS2 = 0;
  1831  05F8  1101               	bcf	1,2	;volatile
  1832                           
  1833                           ;timer.c: 67:             break;
  1834  05F9  2E44               	goto	l2530
  1835  05FA                     l469:	
  1836                           ;timer.c: 68:         case 8:
  1837                           
  1838                           
  1839                           ;timer.c: 69:             PS0 = 0;
  1840  05FA  1683               	bsf	3,5	;RP0=1, select bank1
  1841  05FB  1303               	bcf	3,6	;RP1=0, select bank1
  1842  05FC  1001               	bcf	1,0	;volatile
  1843                           
  1844                           ;timer.c: 70:             PS1 = 1;
  1845  05FD  1481               	bsf	1,1	;volatile
  1846                           
  1847                           ;timer.c: 71:             PS2 = 0;
  1848  05FE  1101               	bcf	1,2	;volatile
  1849                           
  1850                           ;timer.c: 72:             break;
  1851  05FF  2E44               	goto	l2530
  1852  0600                     l470:	
  1853                           ;timer.c: 73:         case 16:
  1854                           
  1855                           
  1856                           ;timer.c: 74:             PS0 = 1;
  1857  0600  1683               	bsf	3,5	;RP0=1, select bank1
  1858  0601  1303               	bcf	3,6	;RP1=0, select bank1
  1859  0602  1401               	bsf	1,0	;volatile
  1860                           
  1861                           ;timer.c: 75:             PS1 = 1;
  1862  0603  1481               	bsf	1,1	;volatile
  1863                           
  1864                           ;timer.c: 76:             PS2 = 0;
  1865  0604  1101               	bcf	1,2	;volatile
  1866                           
  1867                           ;timer.c: 77:             break;
  1868  0605  2E44               	goto	l2530
  1869  0606                     l471:	
  1870                           ;timer.c: 78:         case 32:
  1871                           
  1872                           
  1873                           ;timer.c: 79:             PS0 = 0;
  1874  0606  1683               	bsf	3,5	;RP0=1, select bank1
  1875  0607  1303               	bcf	3,6	;RP1=0, select bank1
  1876  0608  1001               	bcf	1,0	;volatile
  1877                           
  1878                           ;timer.c: 80:             PS1 = 0;
  1879  0609  1081               	bcf	1,1	;volatile
  1880                           
  1881                           ;timer.c: 81:             PS2 = 1;
  1882  060A  1501               	bsf	1,2	;volatile
  1883                           
  1884                           ;timer.c: 82:             break;
  1885  060B  2E44               	goto	l2530
  1886  060C                     l472:	
  1887                           ;timer.c: 83:         case 64:
  1888                           
  1889                           
  1890                           ;timer.c: 84:             PS0 = 1;
  1891  060C  1683               	bsf	3,5	;RP0=1, select bank1
  1892  060D  1303               	bcf	3,6	;RP1=0, select bank1
  1893  060E  1401               	bsf	1,0	;volatile
  1894                           
  1895                           ;timer.c: 85:             PS1 = 0;
  1896  060F  1081               	bcf	1,1	;volatile
  1897                           
  1898                           ;timer.c: 86:             PS2 = 1;
  1899  0610  1501               	bsf	1,2	;volatile
  1900                           
  1901                           ;timer.c: 87:             break;
  1902  0611  2E44               	goto	l2530
  1903  0612                     l473:	
  1904                           ;timer.c: 88:         case 128:
  1905                           
  1906                           
  1907                           ;timer.c: 89:             PS0 = 0;
  1908  0612  1683               	bsf	3,5	;RP0=1, select bank1
  1909  0613  1303               	bcf	3,6	;RP1=0, select bank1
  1910  0614  1001               	bcf	1,0	;volatile
  1911                           
  1912                           ;timer.c: 90:             PS1 = 1;
  1913  0615  1481               	bsf	1,1	;volatile
  1914                           
  1915                           ;timer.c: 91:             PS2 = 1;
  1916  0616  1501               	bsf	1,2	;volatile
  1917                           
  1918                           ;timer.c: 92:             break;
  1919  0617  2E44               	goto	l2530
  1920  0618                     l474:	
  1921                           ;timer.c: 93:         case 256:
  1922                           
  1923                           
  1924                           ;timer.c: 94:             PS0 = 1;
  1925  0618  1683               	bsf	3,5	;RP0=1, select bank1
  1926  0619  1303               	bcf	3,6	;RP1=0, select bank1
  1927  061A  1401               	bsf	1,0	;volatile
  1928                           
  1929                           ;timer.c: 95:             PS1 = 1;
  1930  061B  1481               	bsf	1,1	;volatile
  1931                           
  1932                           ;timer.c: 96:             PS2 = 1;
  1933  061C  1501               	bsf	1,2	;volatile
  1934                           
  1935                           ;timer.c: 97:             break;
  1936  061D  2E44               	goto	l2530
  1937  061E                     l2528:	
  1938                           
  1939                           ; Switch on 2 bytes has been partitioned into a top level switch of size 1, and 2 sub-sw
      +                          itches
  1940                           ; Switch size 1, requested type "simple"
  1941                           ; Number of cases is 2, Range of values is 0 to 1
  1942                           ; switch strategies available:
  1943                           ; Name         Instructions Cycles
  1944                           ; simple_byte            7     4 (average)
  1945                           ; direct_byte           14     8 (fixed)
  1946                           ; jumptable            260     6 (fixed)
  1947                           ;	Chosen strategy is simple_byte
  1948  061E  1283               	bcf	3,5	;RP0=0, select bank0
  1949  061F  1303               	bcf	3,6	;RP1=0, select bank0
  1950  0620  0855               	movf	timer_vid_init_0@prescaler+1,w
  1951  0621  3A00               	xorlw	0	; case 0
  1952  0622  1903               	skipnz
  1953  0623  2E28               	goto	l2910
  1954  0624  3A01               	xorlw	1	; case 1
  1955  0625  1903               	skipnz
  1956  0626  2E3F               	goto	l2912
  1957  0627  2E44               	goto	l2530
  1958  0628                     l2910:	
  1959                           
  1960                           ; Switch size 1, requested type "simple"
  1961                           ; Number of cases is 7, Range of values is 2 to 128
  1962                           ; switch strategies available:
  1963                           ; Name         Instructions Cycles
  1964                           ; simple_byte           22    12 (average)
  1965                           ; jumptable            263     9 (fixed)
  1966                           ;	Chosen strategy is simple_byte
  1967  0628  0854               	movf	timer_vid_init_0@prescaler,w
  1968  0629  3A02               	xorlw	2	; case 2
  1969  062A  1903               	skipnz
  1970  062B  2DEE               	goto	l466
  1971  062C  3A06               	xorlw	6	; case 4
  1972  062D  1903               	skipnz
  1973  062E  2DF4               	goto	l468
  1974  062F  3A0C               	xorlw	12	; case 8
  1975  0630  1903               	skipnz
  1976  0631  2DFA               	goto	l469
  1977  0632  3A18               	xorlw	24	; case 16
  1978  0633  1903               	skipnz
  1979  0634  2E00               	goto	l470
  1980  0635  3A30               	xorlw	48	; case 32
  1981  0636  1903               	skipnz
  1982  0637  2E06               	goto	l471
  1983  0638  3A60               	xorlw	96	; case 64
  1984  0639  1903               	skipnz
  1985  063A  2E0C               	goto	l472
  1986  063B  3AC0               	xorlw	192	; case 128
  1987  063C  1903               	skipnz
  1988  063D  2E12               	goto	l473
  1989  063E  2E44               	goto	l2530
  1990  063F                     l2912:	
  1991                           
  1992                           ; Switch size 1, requested type "simple"
  1993                           ; Number of cases is 1, Range of values is 0 to 0
  1994                           ; switch strategies available:
  1995                           ; Name         Instructions Cycles
  1996                           ; simple_byte            4     3 (average)
  1997                           ; direct_byte           11     8 (fixed)
  1998                           ; jumptable            260     6 (fixed)
  1999                           ;	Chosen strategy is simple_byte
  2000  063F  0854               	movf	timer_vid_init_0@prescaler,w
  2001  0640  3A00               	xorlw	0	; case 0
  2002  0641  1903               	skipnz
  2003  0642  2E18               	goto	l474
  2004  0643  2E44               	goto	l2530
  2005  0644                     l2530:	
  2006                           
  2007                           ;timer.c: 100:     if (interruptEnable) {
  2008  0644  1283               	bcf	3,5	;RP0=0, select bank0
  2009  0645  0856               	movf	timer_vid_init_0@interruptEnable,w
  2010  0646  1903               	btfsc	3,2
  2011  0647  2E49               	goto	u2041
  2012  0648  2E4A               	goto	u2040
  2013  0649                     u2041:	
  2014  0649  2E4D               	goto	l476
  2015  064A                     u2040:	
  2016  064A                     l2532:	
  2017                           
  2018                           ;timer.c: 102:         PEIE = 1;
  2019  064A  170B               	bsf	11,6	;volatile
  2020                           
  2021                           ;timer.c: 105:         GIE = 1;
  2022  064B  178B               	bsf	11,7	;volatile
  2023                           
  2024                           ;timer.c: 108:         TMR0IE = 1;
  2025  064C  168B               	bsf	11,5	;volatile
  2026  064D                     l476:	
  2027  064D  0008               	return
  2028  064E                     __end_of_timer_vid_init_0:	
  2029                           
  2030                           	psect	text4
  2031  0466                     __ptext4:	
  2032 ;; *************** function _sch_vid_dispatch_tasks *****************
  2033 ;; Defined at:
  2034 ;;		line 73 in file "scheduler.c"
  2035 ;; Parameters:    Size  Location     Type
  2036 ;;		None
  2037 ;; Auto vars:     Size  Location     Type
  2038 ;;  index           1   22[BANK0 ] unsigned char 
  2039 ;; Return value:  Size  Location     Type
  2040 ;;                  1    wreg      void 
  2041 ;; Registers used:
  2042 ;;		wreg, fsr0l, fsr0h, status,2, status,0, btemp+1, pclath, cstack
  2043 ;; Tracked objects:
  2044 ;;		On entry : 0/0
  2045 ;;		On exit  : 0/0
  2046 ;;		Unchanged: 0/0
  2047 ;; Data sizes:     COMMON   BANK0   BANK1   BANK3   BANK2
  2048 ;;      Params:         0       0       0       0       0
  2049 ;;      Locals:         0       1       0       0       0
  2050 ;;      Temps:          0       5       0       0       0
  2051 ;;      Totals:         0       6       0       0       0
  2052 ;;Total ram usage:        6 bytes
  2053 ;; Hardware stack levels used:    1
  2054 ;; Hardware stack levels required when called:    7
  2055 ;; This function calls:
  2056 ;;		Absolute function
  2057 ;;		___bmul
  2058 ;;		_counter_vid_update
  2059 ;;		_display_vid_update
  2060 ;;		_sch_vid_delete_task
  2061 ;;		_ssd_vid_update
  2062 ;; This function is called by:
  2063 ;;		_main
  2064 ;; This function uses a non-reentrant model
  2065 ;;
  2066                           
  2067                           
  2068                           ;psect for function _sch_vid_dispatch_tasks
  2069  0466                     _sch_vid_dispatch_tasks:	
  2070  0466                     l2608:	
  2071                           ;incstack = 0
  2072                           ; Regs used in _sch_vid_dispatch_tasks: [wreg-fsr0h+status,2+status,0+btemp+1+pclath+cst
      +                          ack]
  2073                           
  2074                           
  2075                           ;scheduler.c: 74:     u8 index;;scheduler.c: 76:     for (index = 0; index < 3; index++)
      +                           {
  2076  0466  1283               	bcf	3,5	;RP0=0, select bank0
  2077  0467  1303               	bcf	3,6	;RP1=0, select bank0
  2078  0468  01E4               	clrf	sch_vid_dispatch_tasks@index
  2079  0469                     l2614:	
  2080                           
  2081                           ;scheduler.c: 77:         if (sch_tasks[index].runMe > 0) {
  2082  0469  300D               	movlw	13
  2083  046A  00DF               	movwf	??_sch_vid_dispatch_tasks
  2084  046B  085F               	movf	??_sch_vid_dispatch_tasks,w
  2085  046C  00D4               	movwf	___bmul@multiplicand
  2086  046D  0864               	movf	sch_vid_dispatch_tasks@index,w
  2087  046E  120A  158A  2501  120A  118A  	fcall	___bmul
  2088  0473  3E29               	addlw	(low ((_sch_tasks| 0+9)))& (0+255)
  2089  0474  0084               	movwf	4
  2090  0475  1383               	bcf	3,7	;select IRP bank0
  2091  0476  0800               	movf	0,w
  2092  0477  1283               	bcf	3,5	;RP0=0, select bank0
  2093  0478  1303               	bcf	3,6	;RP1=0, select bank0
  2094  0479  00E0               	movwf	??_sch_vid_dispatch_tasks+1
  2095  047A  0A84               	incf	4,f
  2096  047B  0800               	movf	0,w
  2097  047C  00E1               	movwf	??_sch_vid_dispatch_tasks+2
  2098  047D  0A84               	incf	4,f
  2099  047E  0800               	movf	0,w
  2100  047F  00E2               	movwf	??_sch_vid_dispatch_tasks+3
  2101  0480  0A84               	incf	4,f
  2102  0481  0800               	movf	0,w
  2103  0482  00E3               	movwf	??_sch_vid_dispatch_tasks+4
  2104  0483  0863               	movf	??_sch_vid_dispatch_tasks+4,w
  2105  0484  0462               	iorwf	??_sch_vid_dispatch_tasks+3,w
  2106  0485  0461               	iorwf	??_sch_vid_dispatch_tasks+2,w
  2107  0486  0460               	iorwf	??_sch_vid_dispatch_tasks+1,w
  2108  0487  1903               	skipnz
  2109  0488  2C8A               	goto	u2131
  2110  0489  2C8B               	goto	u2130
  2111  048A                     u2131:	
  2112  048A  2CEA               	goto	l2624
  2113  048B                     u2130:	
  2114  048B                     l2616:	
  2115                           
  2116                           ;scheduler.c: 78:             (*sch_tasks[index].taskFunction)();
  2117  048B  300D               	movlw	13
  2118  048C  00DF               	movwf	??_sch_vid_dispatch_tasks
  2119  048D  085F               	movf	??_sch_vid_dispatch_tasks,w
  2120  048E  00D4               	movwf	___bmul@multiplicand
  2121  048F  0864               	movf	sch_vid_dispatch_tasks@index,w
  2122  0490  120A  158A  2501  120A  118A  	fcall	___bmul
  2123  0495  3E20               	addlw	(low (_sch_tasks| 0))& (0+255)
  2124  0496  0084               	movwf	4
  2125  0497  1383               	bcf	3,7	;select IRP bank0
  2126  0498  0800               	movf	0,w
  2127  0499  120A  118A  2036  120A  118A  	fcall	fptable
  2128  049E                     l2618:	
  2129                           
  2130                           ;scheduler.c: 79:             sch_tasks[index].runMe -= 1;
  2131  049E  300D               	movlw	13
  2132  049F  1283               	bcf	3,5	;RP0=0, select bank0
  2133  04A0  1303               	bcf	3,6	;RP1=0, select bank0
  2134  04A1  00DF               	movwf	??_sch_vid_dispatch_tasks
  2135  04A2  085F               	movf	??_sch_vid_dispatch_tasks,w
  2136  04A3  00D4               	movwf	___bmul@multiplicand
  2137  04A4  0864               	movf	sch_vid_dispatch_tasks@index,w
  2138  04A5  120A  158A  2501  120A  118A  	fcall	___bmul
  2139  04AA  3E29               	addlw	(low ((_sch_tasks| 0+9)))& (0+255)
  2140  04AB  0084               	movwf	4
  2141  04AC  3001               	movlw	1
  2142  04AD  1383               	bcf	3,7	;select IRP bank0
  2143  04AE  0280               	subwf	0,f
  2144  04AF  0A84               	incf	4,f
  2145  04B0  3000               	movlw	0
  2146  04B1  1C03               	skipc
  2147  04B2  3001               	movlw	1
  2148  04B3  0280               	subwf	0,f
  2149  04B4  0A84               	incf	4,f
  2150  04B5  3000               	movlw	0
  2151  04B6  1C03               	skipc
  2152  04B7  3001               	movlw	1
  2153  04B8  0280               	subwf	0,f
  2154  04B9  0A84               	incf	4,f
  2155  04BA  3000               	movlw	0
  2156  04BB  1C03               	skipc
  2157  04BC  3001               	movlw	1
  2158  04BD  0280               	subwf	0,f
  2159  04BE  3003               	movlw	3
  2160  04BF  0284               	subwf	4,f
  2161  04C0                     l2620:	
  2162                           
  2163                           ;scheduler.c: 82:             if (sch_tasks[index].period == 0) {
  2164  04C0  300D               	movlw	13
  2165  04C1  1283               	bcf	3,5	;RP0=0, select bank0
  2166  04C2  1303               	bcf	3,6	;RP1=0, select bank0
  2167  04C3  00DF               	movwf	??_sch_vid_dispatch_tasks
  2168  04C4  085F               	movf	??_sch_vid_dispatch_tasks,w
  2169  04C5  00D4               	movwf	___bmul@multiplicand
  2170  04C6  0864               	movf	sch_vid_dispatch_tasks@index,w
  2171  04C7  120A  158A  2501  120A  118A  	fcall	___bmul
  2172  04CC  3E25               	addlw	(low ((_sch_tasks| 0+5)))& (0+255)
  2173  04CD  0084               	movwf	4
  2174  04CE  1383               	bcf	3,7	;select IRP bank0
  2175  04CF  0800               	movf	0,w
  2176  04D0  1283               	bcf	3,5	;RP0=0, select bank0
  2177  04D1  1303               	bcf	3,6	;RP1=0, select bank0
  2178  04D2  00E0               	movwf	??_sch_vid_dispatch_tasks+1
  2179  04D3  0A84               	incf	4,f
  2180  04D4  0800               	movf	0,w
  2181  04D5  00E1               	movwf	??_sch_vid_dispatch_tasks+2
  2182  04D6  0A84               	incf	4,f
  2183  04D7  0800               	movf	0,w
  2184  04D8  00E2               	movwf	??_sch_vid_dispatch_tasks+3
  2185  04D9  0A84               	incf	4,f
  2186  04DA  0800               	movf	0,w
  2187  04DB  00E3               	movwf	??_sch_vid_dispatch_tasks+4
  2188  04DC  0863               	movf	??_sch_vid_dispatch_tasks+4,w
  2189  04DD  0462               	iorwf	??_sch_vid_dispatch_tasks+3,w
  2190  04DE  0461               	iorwf	??_sch_vid_dispatch_tasks+2,w
  2191  04DF  0460               	iorwf	??_sch_vid_dispatch_tasks+1,w
  2192  04E0  1D03               	skipz
  2193  04E1  2CE3               	goto	u2141
  2194  04E2  2CE4               	goto	u2140
  2195  04E3                     u2141:	
  2196  04E3  2CEA               	goto	l2624
  2197  04E4                     u2140:	
  2198  04E4                     l2622:	
  2199                           
  2200                           ;scheduler.c: 83:                 sch_vid_delete_task(index);
  2201  04E4  0864               	movf	sch_vid_dispatch_tasks@index,w
  2202  04E5  120A  118A  2583  120A  118A  	fcall	_sch_vid_delete_task
  2203  04EA                     l2624:	
  2204                           
  2205                           ;scheduler.c: 86:     }
  2206  04EA  3001               	movlw	1
  2207  04EB  1283               	bcf	3,5	;RP0=0, select bank0
  2208  04EC  1303               	bcf	3,6	;RP1=0, select bank0
  2209  04ED  00DF               	movwf	??_sch_vid_dispatch_tasks
  2210  04EE  085F               	movf	??_sch_vid_dispatch_tasks,w
  2211  04EF  07E4               	addwf	sch_vid_dispatch_tasks@index,f
  2212  04F0                     l2626:	
  2213  04F0  3003               	movlw	3
  2214  04F1  0264               	subwf	sch_vid_dispatch_tasks@index,w
  2215  04F2  1C03               	skipc
  2216  04F3  2CF5               	goto	u2151
  2217  04F4  2CF6               	goto	u2150
  2218  04F5                     u2151:	
  2219  04F5  2C69               	goto	l2614
  2220  04F6                     u2150:	
  2221  04F6                     l358:	
  2222  04F6  0008               	return
  2223  04F7                     __end_of_sch_vid_dispatch_tasks:	
  2224                           
  2225                           	psect	text5
  2226  0704                     __ptext5:	
  2227 ;; *************** function _display_vid_update *****************
  2228 ;; Defined at:
  2229 ;;		line 39 in file "display.c"
  2230 ;; Parameters:    Size  Location     Type
  2231 ;;		None
  2232 ;; Auto vars:     Size  Location     Type
  2233 ;;		None
  2234 ;; Return value:  Size  Location     Type
  2235 ;;                  1    wreg      void 
  2236 ;; Registers used:
  2237 ;;		wreg, status,2, status,0, pclath, cstack
  2238 ;; Tracked objects:
  2239 ;;		On entry : 0/0
  2240 ;;		On exit  : 0/0
  2241 ;;		Unchanged: 0/0
  2242 ;; Data sizes:     COMMON   BANK0   BANK1   BANK3   BANK2
  2243 ;;      Params:         0       0       0       0       0
  2244 ;;      Locals:         0       0       0       0       0
  2245 ;;      Temps:          0       0       0       0       0
  2246 ;;      Totals:         0       0       0       0       0
  2247 ;;Total ram usage:        0 bytes
  2248 ;; Hardware stack levels used:    1
  2249 ;; Hardware stack levels required when called:    4
  2250 ;; This function calls:
  2251 ;;		___lwmod
  2252 ;;		_counter_u8_get_counter
  2253 ;;		_ssd_u8_get_state
  2254 ;;		_ssd_vid_set_state
  2255 ;;		_ssd_vid_set_symbol
  2256 ;; This function is called by:
  2257 ;;		_main
  2258 ;;		_sch_vid_dispatch_tasks
  2259 ;; This function uses a non-reentrant model
  2260 ;;
  2261                           
  2262                           
  2263                           ;psect for function _display_vid_update
  2264  0704                     _display_vid_update:	
  2265  0704                     l2498:	
  2266                           ;incstack = 0
  2267                           ; Regs used in _display_vid_update: [wreg+status,2+status,0+pclath+cstack]
  2268                           
  2269                           
  2270                           ;display.c: 41:     if (settingModeCounter == 250 && settingModeFlag == 1) {
  2271  0704  30FA               	movlw	250
  2272  0705  1283               	bcf	3,5	;RP0=0, select bank0
  2273  0706  1303               	bcf	3,6	;RP1=0, select bank0
  2274  0707  0649               	xorwf	_settingModeCounter,w
  2275  0708  044A               	iorwf	_settingModeCounter+1,w
  2276  0709  1D03               	btfss	3,2
  2277  070A  2F0C               	goto	u1981
  2278  070B  2F0D               	goto	u1980
  2279  070C                     u1981:	
  2280  070C  2F15               	goto	l2504
  2281  070D                     u1980:	
  2282  070D                     l2500:	
  2283  070D  034C               	decf	_settingModeFlag,w
  2284  070E  1D03               	btfss	3,2
  2285  070F  2F11               	goto	u1991
  2286  0710  2F12               	goto	u1990
  2287  0711                     u1991:	
  2288  0711  2F15               	goto	l2504
  2289  0712                     u1990:	
  2290  0712                     l2502:	
  2291                           
  2292                           ;display.c: 42:         settingModeFlag = 0;
  2293  0712  01CC               	clrf	_settingModeFlag
  2294                           
  2295                           ;display.c: 43:         settingModeCounter = 0;
  2296  0713  01C9               	clrf	_settingModeCounter
  2297  0714  01CA               	clrf	_settingModeCounter+1
  2298  0715                     l2504:	
  2299                           
  2300                           ;display.c: 47:     if (settingModeFlag) {
  2301  0715  084C               	movf	_settingModeFlag,w
  2302  0716  1903               	btfsc	3,2
  2303  0717  2F19               	goto	u2001
  2304  0718  2F1A               	goto	u2000
  2305  0719                     u2001:	
  2306  0719  2F4D               	goto	l2516
  2307  071A                     u2000:	
  2308  071A                     l2506:	
  2309                           
  2310                           ;display.c: 48:         settingModeCounter++;
  2311  071A  3001               	movlw	1
  2312  071B  07C9               	addwf	_settingModeCounter,f
  2313  071C  1803               	skipnc
  2314  071D  0ACA               	incf	_settingModeCounter+1,f
  2315  071E  3000               	movlw	0
  2316  071F  07CA               	addwf	_settingModeCounter+1,f
  2317  0720                     l2508:	
  2318                           
  2319                           ;display.c: 49:         if (settingModeCounter % 50 == 0) {
  2320  0720  3032               	movlw	50
  2321  0721  00D4               	movwf	___lwmod@divisor
  2322  0722  3000               	movlw	0
  2323  0723  00D5               	movwf	___lwmod@divisor+1
  2324  0724  084A               	movf	_settingModeCounter+1,w
  2325  0725  00D7               	movwf	___lwmod@dividend+1
  2326  0726  0849               	movf	_settingModeCounter,w
  2327  0727  00D6               	movwf	___lwmod@dividend
  2328  0728  120A  158A  268B  120A  118A  	fcall	___lwmod
  2329  072D  1283               	bcf	3,5	;RP0=0, select bank0
  2330  072E  1303               	bcf	3,6	;RP1=0, select bank0
  2331  072F  0854               	movf	?___lwmod,w
  2332  0730  0455               	iorwf	?___lwmod+1,w
  2333  0731  1D03               	btfss	3,2
  2334  0732  2F34               	goto	u2011
  2335  0733  2F35               	goto	u2010
  2336  0734                     u2011:	
  2337  0734  2F53               	goto	l176
  2338  0735                     u2010:	
  2339  0735                     l2510:	
  2340                           
  2341                           ;display.c: 50:             if (ssd_u8_get_state() == 1)
  2342  0735  120A  158A  244B  120A  118A  	fcall	_ssd_u8_get_state
  2343  073A  3A01               	xorlw	1
  2344  073B  1D03               	skipz
  2345  073C  2F3E               	goto	u2021
  2346  073D  2F3F               	goto	u2020
  2347  073E                     u2021:	
  2348  073E  2F46               	goto	l2514
  2349  073F                     u2020:	
  2350  073F                     l2512:	
  2351                           
  2352                           ;display.c: 51:                 ssd_vid_set_state(0);
  2353  073F  3000               	movlw	0
  2354  0740  120A  158A  244F  120A  118A  	fcall	_ssd_vid_set_state
  2355  0745  2F53               	goto	l176
  2356  0746                     l2514:	
  2357                           
  2358                           ;display.c: 53:                 ssd_vid_set_state(1);
  2359  0746  3001               	movlw	1
  2360  0747  120A  158A  244F  120A  118A  	fcall	_ssd_vid_set_state
  2361  074C  2F53               	goto	l176
  2362  074D                     l2516:	
  2363                           
  2364                           ;display.c: 58:         ssd_vid_set_state(1);
  2365  074D  3001               	movlw	1
  2366  074E  120A  158A  244F  120A  118A  	fcall	_ssd_vid_set_state
  2367  0753                     l176:	
  2368                           ;display.c: 59:     }
  2369                           
  2370                           
  2371                           ;display.c: 62:     ssd_vid_set_symbol(counter_u8_get_counter());
  2372  0753  120A  158A  2447  120A  118A  	fcall	_counter_u8_get_counter
  2373  0758  120A  158A  248C  120A  118A  	fcall	_ssd_vid_set_symbol
  2374  075D                     l177:	
  2375  075D  0008               	return
  2376  075E                     __end_of_display_vid_update:	
  2377                           
  2378                           	psect	text6
  2379  02F4                     __ptext6:	
  2380 ;; *************** function _counter_vid_update *****************
  2381 ;; Defined at:
  2382 ;;		line 35 in file "counter.c"
  2383 ;; Parameters:    Size  Location     Type
  2384 ;;		None
  2385 ;; Auto vars:     Size  Location     Type
  2386 ;;		None
  2387 ;; Return value:  Size  Location     Type
  2388 ;;                  1    wreg      void 
  2389 ;; Registers used:
  2390 ;;		wreg, fsr0l, fsr0h, status,2, status,0, btemp+1, pclath, cstack
  2391 ;; Tracked objects:
  2392 ;;		On entry : 0/0
  2393 ;;		On exit  : 0/0
  2394 ;;		Unchanged: 0/0
  2395 ;; Data sizes:     COMMON   BANK0   BANK1   BANK3   BANK2
  2396 ;;      Params:         0       0       0       0       0
  2397 ;;      Locals:         0       0       0       0       0
  2398 ;;      Temps:          0       2       0       0       0
  2399 ;;      Totals:         0       2       0       0       0
  2400 ;;Total ram usage:        2 bytes
  2401 ;; Hardware stack levels used:    1
  2402 ;; Hardware stack levels required when called:    6
  2403 ;; This function calls:
  2404 ;;		_dio_u8_read_pin_value
  2405 ;;		_display_set_setting_mode
  2406 ;;		_eeprom_external_vid_write
  2407 ;;		_ssd_vid_set_symbol
  2408 ;; This function is called by:
  2409 ;;		_main
  2410 ;;		_sch_vid_dispatch_tasks
  2411 ;; This function uses a non-reentrant model
  2412 ;;
  2413                           
  2414                           
  2415                           ;psect for function _counter_vid_update
  2416  02F4                     _counter_vid_update:	
  2417  02F4                     l2458:	
  2418                           ;incstack = 0
  2419                           ; Regs used in _counter_vid_update: [wreg-fsr0h+status,2+status,0+btemp+1+pclath+cstack]
  2420                           
  2421                           
  2422                           ;counter.c: 36:     if (dio_u8_read_pin_value(B, 2) == 0 && buttonPressedFlag == 0) {
  2423  02F4  3002               	movlw	2
  2424  02F5  1283               	bcf	3,5	;RP0=0, select bank0
  2425  02F6  1303               	bcf	3,6	;RP1=0, select bank0
  2426  02F7  00DC               	movwf	??_counter_vid_update
  2427  02F8  085C               	movf	??_counter_vid_update,w
  2428  02F9  00D7               	movwf	dio_u8_read_pin_value@index
  2429  02FA  3001               	movlw	1
  2430  02FB  120A  158A  2531  120A  118A  	fcall	_dio_u8_read_pin_value
  2431  0300  3A00               	xorlw	0
  2432  0301  1D03               	skipz
  2433  0302  2B04               	goto	u1901
  2434  0303  2B05               	goto	u1900
  2435  0304                     u1901:	
  2436  0304  2B44               	goto	l2474
  2437  0305                     u1900:	
  2438  0305                     l2460:	
  2439  0305  1283               	bcf	3,5	;RP0=0, select bank0
  2440  0306  1303               	bcf	3,6	;RP1=0, select bank0
  2441  0307  084D               	movf	_buttonPressedFlag,w
  2442  0308  1D03               	btfss	3,2
  2443  0309  2B0B               	goto	u1911
  2444  030A  2B0C               	goto	u1910
  2445  030B                     u1911:	
  2446  030B  2B44               	goto	l2474
  2447  030C                     u1910:	
  2448  030C                     l2462:	
  2449                           
  2450                           ;counter.c: 37:         display_set_setting_mode(1);
  2451  030C  3001               	movlw	1
  2452  030D  120A  158A  2482  120A  118A  	fcall	_display_set_setting_mode
  2453  0312                     l2464:	
  2454                           
  2455                           ;counter.c: 38:         buttonPressedFlag = 1;
  2456  0312  1283               	bcf	3,5	;RP0=0, select bank0
  2457  0313  1303               	bcf	3,6	;RP1=0, select bank0
  2458  0314  01CD               	clrf	_buttonPressedFlag
  2459  0315  0ACD               	incf	_buttonPressedFlag,f
  2460  0316                     l2466:	
  2461                           
  2462                           ;counter.c: 39:         if (counter + 5 < 80) {
  2463  0316  0866               	movf	_counter,w
  2464  0317  3E05               	addlw	5
  2465  0318  00DC               	movwf	??_counter_vid_update
  2466  0319  3000               	movlw	0
  2467  031A  1803               	skipnc
  2468  031B  3001               	movlw	1
  2469  031C  00DD               	movwf	??_counter_vid_update+1
  2470  031D  085D               	movf	??_counter_vid_update+1,w
  2471  031E  3A80               	xorlw	128
  2472  031F  00FF               	movwf	btemp+1
  2473  0320  3080               	movlw	128
  2474  0321  027F               	subwf	btemp+1,w
  2475  0322  1D03               	skipz
  2476  0323  2B26               	goto	u1925
  2477  0324  3050               	movlw	80
  2478  0325  025C               	subwf	??_counter_vid_update,w
  2479  0326                     u1925:	
  2480  0326  1803               	skipnc
  2481  0327  2B29               	goto	u1921
  2482  0328  2B2A               	goto	u1920
  2483  0329                     u1921:	
  2484  0329  2B8F               	goto	l2490
  2485  032A                     u1920:	
  2486  032A                     l2468:	
  2487                           
  2488                           ;counter.c: 40:             eeprom_external_vid_write(0, counter + 5);
  2489  032A  1283               	bcf	3,5	;RP0=0, select bank0
  2490  032B  1303               	bcf	3,6	;RP1=0, select bank0
  2491  032C  0866               	movf	_counter,w
  2492  032D  3E05               	addlw	5
  2493  032E  00DC               	movwf	??_counter_vid_update
  2494  032F  085C               	movf	??_counter_vid_update,w
  2495  0330  00DA               	movwf	eeprom_external_vid_write@data
  2496  0331  3000               	movlw	0
  2497  0332  120A  158A  2651  120A  118A  	fcall	_eeprom_external_vid_write
  2498  0337                     l2470:	
  2499                           
  2500                           ;counter.c: 41:             counter += 5;
  2501  0337  3005               	movlw	5
  2502  0338  1283               	bcf	3,5	;RP0=0, select bank0
  2503  0339  1303               	bcf	3,6	;RP1=0, select bank0
  2504  033A  00DC               	movwf	??_counter_vid_update
  2505  033B  085C               	movf	??_counter_vid_update,w
  2506  033C  07E6               	addwf	_counter,f
  2507  033D                     l2472:	
  2508                           
  2509                           ;counter.c: 42:             ssd_vid_set_symbol(counter);
  2510  033D  0866               	movf	_counter,w
  2511  033E  120A  158A  248C  120A  118A  	fcall	_ssd_vid_set_symbol
  2512  0343  2B8F               	goto	l2490
  2513  0344                     l2474:	
  2514  0344  1283               	bcf	3,5	;RP0=0, select bank0
  2515  0345  1303               	bcf	3,6	;RP1=0, select bank0
  2516  0346  01D7               	clrf	dio_u8_read_pin_value@index
  2517  0347  0AD7               	incf	dio_u8_read_pin_value@index,f
  2518  0348  3001               	movlw	1
  2519  0349  120A  158A  2531  120A  118A  	fcall	_dio_u8_read_pin_value
  2520  034E  3A00               	xorlw	0
  2521  034F  1D03               	skipz
  2522  0350  2B52               	goto	u1931
  2523  0351  2B53               	goto	u1930
  2524  0352                     u1931:	
  2525  0352  2B8F               	goto	l2490
  2526  0353                     u1930:	
  2527  0353                     l2476:	
  2528  0353  1283               	bcf	3,5	;RP0=0, select bank0
  2529  0354  1303               	bcf	3,6	;RP1=0, select bank0
  2530  0355  084D               	movf	_buttonPressedFlag,w
  2531  0356  1D03               	btfss	3,2
  2532  0357  2B59               	goto	u1941
  2533  0358  2B5A               	goto	u1940
  2534  0359                     u1941:	
  2535  0359  2B8F               	goto	l2490
  2536  035A                     u1940:	
  2537  035A                     l2478:	
  2538                           
  2539                           ;counter.c: 46:         display_set_setting_mode(1);
  2540  035A  3001               	movlw	1
  2541  035B  120A  158A  2482  120A  118A  	fcall	_display_set_setting_mode
  2542  0360                     l2480:	
  2543                           
  2544                           ;counter.c: 47:         buttonPressedFlag = 1;
  2545  0360  1283               	bcf	3,5	;RP0=0, select bank0
  2546  0361  1303               	bcf	3,6	;RP1=0, select bank0
  2547  0362  01CD               	clrf	_buttonPressedFlag
  2548  0363  0ACD               	incf	_buttonPressedFlag,f
  2549  0364                     l2482:	
  2550                           
  2551                           ;counter.c: 48:         if (counter - 5 > 30) {
  2552  0364  0866               	movf	_counter,w
  2553  0365  3EFB               	addlw	251
  2554  0366  00DC               	movwf	??_counter_vid_update
  2555  0367  30FF               	movlw	255
  2556  0368  1803               	skipnc
  2557  0369  3000               	movlw	0
  2558  036A  00DD               	movwf	??_counter_vid_update+1
  2559  036B  085D               	movf	??_counter_vid_update+1,w
  2560  036C  3A80               	xorlw	128
  2561  036D  00FF               	movwf	btemp+1
  2562  036E  3080               	movlw	128
  2563  036F  027F               	subwf	btemp+1,w
  2564  0370  1D03               	skipz
  2565  0371  2B74               	goto	u1955
  2566  0372  301F               	movlw	31
  2567  0373  025C               	subwf	??_counter_vid_update,w
  2568  0374                     u1955:	
  2569  0374  1C03               	skipc
  2570  0375  2B77               	goto	u1951
  2571  0376  2B78               	goto	u1950
  2572  0377                     u1951:	
  2573  0377  2B8F               	goto	l2490
  2574  0378                     u1950:	
  2575  0378                     l2484:	
  2576                           
  2577                           ;counter.c: 49:             eeprom_external_vid_write(0, counter - 5);
  2578  0378  1283               	bcf	3,5	;RP0=0, select bank0
  2579  0379  1303               	bcf	3,6	;RP1=0, select bank0
  2580  037A  0866               	movf	_counter,w
  2581  037B  3EFB               	addlw	251
  2582  037C  00DC               	movwf	??_counter_vid_update
  2583  037D  085C               	movf	??_counter_vid_update,w
  2584  037E  00DA               	movwf	eeprom_external_vid_write@data
  2585  037F  3000               	movlw	0
  2586  0380  120A  158A  2651  120A  118A  	fcall	_eeprom_external_vid_write
  2587  0385                     l2486:	
  2588                           
  2589                           ;counter.c: 50:             counter -= 5;
  2590  0385  3005               	movlw	5
  2591  0386  1283               	bcf	3,5	;RP0=0, select bank0
  2592  0387  1303               	bcf	3,6	;RP1=0, select bank0
  2593  0388  02E6               	subwf	_counter,f
  2594  0389                     l2488:	
  2595                           
  2596                           ;counter.c: 51:             ssd_vid_set_symbol(counter);
  2597  0389  0866               	movf	_counter,w
  2598  038A  120A  158A  248C  120A  118A  	fcall	_ssd_vid_set_symbol
  2599  038F                     l2490:	
  2600                           
  2601                           ;counter.c: 54:     if (dio_u8_read_pin_value(B, 2) && dio_u8_read_pin_value(B, 1))
  2602  038F  3002               	movlw	2
  2603  0390  1283               	bcf	3,5	;RP0=0, select bank0
  2604  0391  1303               	bcf	3,6	;RP1=0, select bank0
  2605  0392  00DC               	movwf	??_counter_vid_update
  2606  0393  085C               	movf	??_counter_vid_update,w
  2607  0394  00D7               	movwf	dio_u8_read_pin_value@index
  2608  0395  3001               	movlw	1
  2609  0396  120A  158A  2531  120A  118A  	fcall	_dio_u8_read_pin_value
  2610  039B  3A00               	xorlw	0
  2611  039C  1903               	skipnz
  2612  039D  2B9F               	goto	u1961
  2613  039E  2BA0               	goto	u1960
  2614  039F                     u1961:	
  2615  039F  2BB2               	goto	l35
  2616  03A0                     u1960:	
  2617  03A0                     l2492:	
  2618  03A0  1283               	bcf	3,5	;RP0=0, select bank0
  2619  03A1  1303               	bcf	3,6	;RP1=0, select bank0
  2620  03A2  01D7               	clrf	dio_u8_read_pin_value@index
  2621  03A3  0AD7               	incf	dio_u8_read_pin_value@index,f
  2622  03A4  3001               	movlw	1
  2623  03A5  120A  158A  2531  120A  118A  	fcall	_dio_u8_read_pin_value
  2624  03AA  3A00               	xorlw	0
  2625  03AB  1903               	skipnz
  2626  03AC  2BAE               	goto	u1971
  2627  03AD  2BAF               	goto	u1970
  2628  03AE                     u1971:	
  2629  03AE  2BB2               	goto	l35
  2630  03AF                     u1970:	
  2631  03AF                     l2494:	
  2632                           
  2633                           ;counter.c: 55:         buttonPressedFlag = 0;
  2634  03AF  1283               	bcf	3,5	;RP0=0, select bank0
  2635  03B0  1303               	bcf	3,6	;RP1=0, select bank0
  2636  03B1  01CD               	clrf	_buttonPressedFlag
  2637  03B2                     l35:	
  2638  03B2  0008               	return
  2639  03B3                     __end_of_counter_vid_update:	
  2640                           
  2641                           	psect	text7
  2642  03B3                     __ptext7:	
  2643 ;; *************** function _ssd_vid_update *****************
  2644 ;; Defined at:
  2645 ;;		line 30 in file "ssd.c"
  2646 ;; Parameters:    Size  Location     Type
  2647 ;;		None
  2648 ;; Auto vars:     Size  Location     Type
  2649 ;;  tens            1   16[BANK0 ] unsigned char 
  2650 ;;  ones            1   15[BANK0 ] unsigned char 
  2651 ;; Return value:  Size  Location     Type
  2652 ;;                  1    wreg      void 
  2653 ;; Registers used:
  2654 ;;		wreg, fsr0l, fsr0h, status,2, status,0, pclath, cstack
  2655 ;; Tracked objects:
  2656 ;;		On entry : 0/0
  2657 ;;		On exit  : 0/0
  2658 ;;		Unchanged: 0/0
  2659 ;; Data sizes:     COMMON   BANK0   BANK1   BANK3   BANK2
  2660 ;;      Params:         0       0       0       0       0
  2661 ;;      Locals:         0       2       0       0       0
  2662 ;;      Temps:          0       1       0       0       0
  2663 ;;      Totals:         0       3       0       0       0
  2664 ;;Total ram usage:        3 bytes
  2665 ;; Hardware stack levels used:    1
  2666 ;; Hardware stack levels required when called:    5
  2667 ;; This function calls:
  2668 ;;		___lwdiv
  2669 ;;		___lwmod
  2670 ;;		_dio_u8_read_pin_value
  2671 ;;		_dio_vid_set_pin_value
  2672 ;;		_dio_vid_set_port_value
  2673 ;;		_ssd_u8_get_code
  2674 ;; This function is called by:
  2675 ;;		_main
  2676 ;;		_sch_vid_dispatch_tasks
  2677 ;; This function uses a non-reentrant model
  2678 ;;
  2679                           
  2680                           
  2681                           ;psect for function _ssd_vid_update
  2682  03B3                     _ssd_vid_update:	
  2683  03B3                     l2542:	
  2684                           ;incstack = 0
  2685                           ; Regs used in _ssd_vid_update: [wreg-fsr0h+status,2+status,0+pclath+cstack]
  2686                           
  2687                           
  2688                           ;ssd.c: 31:     if (ssdState == 0) {
  2689  03B3  1283               	bcf	3,5	;RP0=0, select bank0
  2690  03B4  1303               	bcf	3,6	;RP1=0, select bank0
  2691  03B5  0865               	movf	_ssdState,w
  2692  03B6  1D03               	btfss	3,2
  2693  03B7  2BB9               	goto	u2051
  2694  03B8  2BBA               	goto	u2050
  2695  03B9                     u2051:	
  2696  03B9  2BD3               	goto	l2548
  2697  03BA                     u2050:	
  2698  03BA                     l2544:	
  2699                           
  2700                           ;ssd.c: 33:         dio_vid_set_pin_value(A, 2, 0);
  2701  03BA  3002               	movlw	2
  2702  03BB  00DC               	movwf	??_ssd_vid_update
  2703  03BC  085C               	movf	??_ssd_vid_update,w
  2704  03BD  00D4               	movwf	dio_vid_set_pin_value@index
  2705  03BE  01D5               	clrf	dio_vid_set_pin_value@value
  2706  03BF  3000               	movlw	0
  2707  03C0  120A  118A  2144  120A  118A  	fcall	_dio_vid_set_pin_value
  2708                           
  2709                           ;ssd.c: 34:         dio_vid_set_pin_value(A, 3, 0);
  2710  03C5  3003               	movlw	3
  2711  03C6  1283               	bcf	3,5	;RP0=0, select bank0
  2712  03C7  1303               	bcf	3,6	;RP1=0, select bank0
  2713  03C8  00DC               	movwf	??_ssd_vid_update
  2714  03C9  085C               	movf	??_ssd_vid_update,w
  2715  03CA  00D4               	movwf	dio_vid_set_pin_value@index
  2716  03CB  01D5               	clrf	dio_vid_set_pin_value@value
  2717  03CC  3000               	movlw	0
  2718  03CD  120A  118A  2144  120A  118A  	fcall	_dio_vid_set_pin_value
  2719  03D2  2C65               	goto	l385
  2720  03D3                     l2548:	
  2721                           
  2722                           ;ssd.c: 37:     u8 ones = ssdSymbol % 10;
  2723  03D3  300A               	movlw	10
  2724  03D4  00D4               	movwf	___lwmod@divisor
  2725  03D5  3000               	movlw	0
  2726  03D6  00D5               	movwf	___lwmod@divisor+1
  2727  03D7  0848               	movf	_ssdSymbol+1,w
  2728  03D8  00D7               	movwf	___lwmod@dividend+1
  2729  03D9  0847               	movf	_ssdSymbol,w
  2730  03DA  00D6               	movwf	___lwmod@dividend
  2731  03DB  120A  158A  268B  120A  118A  	fcall	___lwmod
  2732  03E0  1283               	bcf	3,5	;RP0=0, select bank0
  2733  03E1  1303               	bcf	3,6	;RP1=0, select bank0
  2734  03E2  0854               	movf	?___lwmod,w
  2735  03E3  00DC               	movwf	??_ssd_vid_update
  2736  03E4  085C               	movf	??_ssd_vid_update,w
  2737  03E5  00DD               	movwf	ssd_vid_update@ones
  2738                           
  2739                           ;ssd.c: 38:     u8 tens = ssdSymbol / 10;
  2740  03E6  300A               	movlw	10
  2741  03E7  00D4               	movwf	___lwdiv@divisor
  2742  03E8  3000               	movlw	0
  2743  03E9  00D5               	movwf	___lwdiv@divisor+1
  2744  03EA  0848               	movf	_ssdSymbol+1,w
  2745  03EB  00D7               	movwf	___lwdiv@dividend+1
  2746  03EC  0847               	movf	_ssdSymbol,w
  2747  03ED  00D6               	movwf	___lwdiv@dividend
  2748  03EE  120A  118A  27B8  120A  118A  	fcall	___lwdiv
  2749  03F3  1283               	bcf	3,5	;RP0=0, select bank0
  2750  03F4  1303               	bcf	3,6	;RP1=0, select bank0
  2751  03F5  0854               	movf	?___lwdiv,w
  2752  03F6  00DC               	movwf	??_ssd_vid_update
  2753  03F7  085C               	movf	??_ssd_vid_update,w
  2754  03F8  00DE               	movwf	ssd_vid_update@tens
  2755  03F9                     l2550:	
  2756                           
  2757                           ;ssd.c: 40:     if (dio_u8_read_pin_value(A, 3) == 1) {
  2758  03F9  3003               	movlw	3
  2759  03FA  00DC               	movwf	??_ssd_vid_update
  2760  03FB  085C               	movf	??_ssd_vid_update,w
  2761  03FC  00D7               	movwf	dio_u8_read_pin_value@index
  2762  03FD  3000               	movlw	0
  2763  03FE  120A  158A  2531  120A  118A  	fcall	_dio_u8_read_pin_value
  2764  0403  3A01               	xorlw	1
  2765  0404  1D03               	skipz
  2766  0405  2C07               	goto	u2061
  2767  0406  2C08               	goto	u2060
  2768  0407                     u2061:	
  2769  0407  2C37               	goto	l2554
  2770  0408                     u2060:	
  2771  0408                     l2552:	
  2772                           
  2773                           ;ssd.c: 41:         dio_vid_set_pin_value(A, 3, 0);
  2774  0408  3003               	movlw	3
  2775  0409  1283               	bcf	3,5	;RP0=0, select bank0
  2776  040A  1303               	bcf	3,6	;RP1=0, select bank0
  2777  040B  00DC               	movwf	??_ssd_vid_update
  2778  040C  085C               	movf	??_ssd_vid_update,w
  2779  040D  00D4               	movwf	dio_vid_set_pin_value@index
  2780  040E  01D5               	clrf	dio_vid_set_pin_value@value
  2781  040F  3000               	movlw	0
  2782  0410  120A  118A  2144  120A  118A  	fcall	_dio_vid_set_pin_value
  2783                           
  2784                           ;ssd.c: 42:         dio_vid_set_pin_value(A, 2, 1);
  2785  0415  3002               	movlw	2
  2786  0416  1283               	bcf	3,5	;RP0=0, select bank0
  2787  0417  1303               	bcf	3,6	;RP1=0, select bank0
  2788  0418  00DC               	movwf	??_ssd_vid_update
  2789  0419  085C               	movf	??_ssd_vid_update,w
  2790  041A  00D4               	movwf	dio_vid_set_pin_value@index
  2791  041B  01D5               	clrf	dio_vid_set_pin_value@value
  2792  041C  0AD5               	incf	dio_vid_set_pin_value@value,f
  2793  041D  3000               	movlw	0
  2794  041E  120A  118A  2144  120A  118A  	fcall	_dio_vid_set_pin_value
  2795                           
  2796                           ;ssd.c: 43:         dio_vid_set_port_value(D, ssd_u8_get_code(tens));
  2797  0423  1283               	bcf	3,5	;RP0=0, select bank0
  2798  0424  1303               	bcf	3,6	;RP1=0, select bank0
  2799  0425  085E               	movf	ssd_vid_update@tens,w
  2800  0426  120A  158A  26C7  120A  118A  	fcall	_ssd_u8_get_code
  2801  042B  1283               	bcf	3,5	;RP0=0, select bank0
  2802  042C  1303               	bcf	3,6	;RP1=0, select bank0
  2803  042D  00DC               	movwf	??_ssd_vid_update
  2804  042E  085C               	movf	??_ssd_vid_update,w
  2805  042F  00D7               	movwf	dio_vid_set_port_value@value
  2806  0430  3003               	movlw	3
  2807  0431  120A  158A  25ED  120A  118A  	fcall	_dio_vid_set_port_value
  2808                           
  2809                           ;ssd.c: 44:     } else {
  2810  0436  2C65               	goto	l385
  2811  0437                     l2554:	
  2812                           
  2813                           ;ssd.c: 45:         dio_vid_set_pin_value(A, 2, 0);
  2814  0437  3002               	movlw	2
  2815  0438  1283               	bcf	3,5	;RP0=0, select bank0
  2816  0439  1303               	bcf	3,6	;RP1=0, select bank0
  2817  043A  00DC               	movwf	??_ssd_vid_update
  2818  043B  085C               	movf	??_ssd_vid_update,w
  2819  043C  00D4               	movwf	dio_vid_set_pin_value@index
  2820  043D  01D5               	clrf	dio_vid_set_pin_value@value
  2821  043E  3000               	movlw	0
  2822  043F  120A  118A  2144  120A  118A  	fcall	_dio_vid_set_pin_value
  2823                           
  2824                           ;ssd.c: 46:         dio_vid_set_pin_value(A, 3, 1);
  2825  0444  3003               	movlw	3
  2826  0445  1283               	bcf	3,5	;RP0=0, select bank0
  2827  0446  1303               	bcf	3,6	;RP1=0, select bank0
  2828  0447  00DC               	movwf	??_ssd_vid_update
  2829  0448  085C               	movf	??_ssd_vid_update,w
  2830  0449  00D4               	movwf	dio_vid_set_pin_value@index
  2831  044A  01D5               	clrf	dio_vid_set_pin_value@value
  2832  044B  0AD5               	incf	dio_vid_set_pin_value@value,f
  2833  044C  3000               	movlw	0
  2834  044D  120A  118A  2144  120A  118A  	fcall	_dio_vid_set_pin_value
  2835                           
  2836                           ;ssd.c: 47:         dio_vid_set_port_value(D, ssd_u8_get_code(ones));
  2837  0452  1283               	bcf	3,5	;RP0=0, select bank0
  2838  0453  1303               	bcf	3,6	;RP1=0, select bank0
  2839  0454  085D               	movf	ssd_vid_update@ones,w
  2840  0455  120A  158A  26C7  120A  118A  	fcall	_ssd_u8_get_code
  2841  045A  1283               	bcf	3,5	;RP0=0, select bank0
  2842  045B  1303               	bcf	3,6	;RP1=0, select bank0
  2843  045C  00DC               	movwf	??_ssd_vid_update
  2844  045D  085C               	movf	??_ssd_vid_update,w
  2845  045E  00D7               	movwf	dio_vid_set_port_value@value
  2846  045F  3003               	movlw	3
  2847  0460  120A  158A  25ED  120A  118A  	fcall	_dio_vid_set_port_value
  2848  0465                     l385:	
  2849  0465  0008               	return
  2850  0466                     __end_of_ssd_vid_update:	
  2851                           
  2852                           	psect	text8
  2853  0EC7                     __ptext8:	
  2854 ;; *************** function _ssd_u8_get_code *****************
  2855 ;; Defined at:
  2856 ;;		line 70 in file "ssd.c"
  2857 ;; Parameters:    Size  Location     Type
  2858 ;;  number          1    wreg     unsigned char 
  2859 ;; Auto vars:     Size  Location     Type
  2860 ;;  number          1    8[BANK0 ] unsigned char 
  2861 ;; Return value:  Size  Location     Type
  2862 ;;                  1    wreg      unsigned char 
  2863 ;; Registers used:
  2864 ;;		wreg, fsr0l, fsr0h, status,2, status,0
  2865 ;; Tracked objects:
  2866 ;;		On entry : 0/0
  2867 ;;		On exit  : 0/0
  2868 ;;		Unchanged: 0/0
  2869 ;; Data sizes:     COMMON   BANK0   BANK1   BANK3   BANK2
  2870 ;;      Params:         0       0       0       0       0
  2871 ;;      Locals:         0       1       0       0       0
  2872 ;;      Temps:          0       2       0       0       0
  2873 ;;      Totals:         0       3       0       0       0
  2874 ;;Total ram usage:        3 bytes
  2875 ;; Hardware stack levels used:    1
  2876 ;; Hardware stack levels required when called:    3
  2877 ;; This function calls:
  2878 ;;		Nothing
  2879 ;; This function is called by:
  2880 ;;		_ssd_vid_update
  2881 ;; This function uses a non-reentrant model
  2882 ;;
  2883                           
  2884                           
  2885                           ;psect for function _ssd_u8_get_code
  2886  0EC7                     _ssd_u8_get_code:	
  2887                           
  2888                           ;incstack = 0
  2889                           ; Regs used in _ssd_u8_get_code: [wreg-fsr0h+status,2+status,0]
  2890                           ;ssd_u8_get_code@number stored from wreg
  2891  0EC7  1283               	bcf	3,5	;RP0=0, select bank0
  2892  0EC8  1303               	bcf	3,6	;RP1=0, select bank0
  2893  0EC9  00D6               	movwf	ssd_u8_get_code@number
  2894  0ECA                     l2292:	
  2895                           
  2896                           ;ssd.c: 71:     switch (number) {
  2897  0ECA  2EE1               	goto	l2340
  2898  0ECB                     l2294:	
  2899                           
  2900                           ;ssd.c: 73:             return 0x3F;
  2901  0ECB  303F               	movlw	63
  2902  0ECC  2F09               	goto	l404
  2903  0ECD                     l2298:	
  2904                           
  2905                           ;ssd.c: 75:             return 0x06;
  2906  0ECD  3006               	movlw	6
  2907  0ECE  2F09               	goto	l404
  2908  0ECF                     l2302:	
  2909                           
  2910                           ;ssd.c: 77:             return 0x5B;
  2911  0ECF  305B               	movlw	91
  2912  0ED0  2F09               	goto	l404
  2913  0ED1                     l2306:	
  2914                           
  2915                           ;ssd.c: 79:             return 0x4F;
  2916  0ED1  304F               	movlw	79
  2917  0ED2  2F09               	goto	l404
  2918  0ED3                     l2310:	
  2919                           
  2920                           ;ssd.c: 81:             return 0x66;
  2921  0ED3  3066               	movlw	102
  2922  0ED4  2F09               	goto	l404
  2923  0ED5                     l2314:	
  2924                           
  2925                           ;ssd.c: 83:             return 0x6D;
  2926  0ED5  306D               	movlw	109
  2927  0ED6  2F09               	goto	l404
  2928  0ED7                     l2318:	
  2929                           
  2930                           ;ssd.c: 85:             return 0x7D;
  2931  0ED7  307D               	movlw	125
  2932  0ED8  2F09               	goto	l404
  2933  0ED9                     l2322:	
  2934                           
  2935                           ;ssd.c: 87:             return 0x07;
  2936  0ED9  3007               	movlw	7
  2937  0EDA  2F09               	goto	l404
  2938  0EDB                     l2326:	
  2939                           
  2940                           ;ssd.c: 89:             return 0x7F;
  2941  0EDB  307F               	movlw	127
  2942  0EDC  2F09               	goto	l404
  2943  0EDD                     l2330:	
  2944                           
  2945                           ;ssd.c: 91:             return 0x6F;
  2946  0EDD  306F               	movlw	111
  2947  0EDE  2F09               	goto	l404
  2948  0EDF                     l2334:	
  2949                           
  2950                           ;ssd.c: 93:             return 0;
  2951  0EDF  3000               	movlw	0
  2952  0EE0  2F09               	goto	l404
  2953  0EE1                     l2340:	
  2954  0EE1  0856               	movf	ssd_u8_get_code@number,w
  2955  0EE2  00D4               	movwf	??_ssd_u8_get_code
  2956  0EE3  01D5               	clrf	??_ssd_u8_get_code+1
  2957                           
  2958                           ; Switch on 2 bytes has been partitioned into a top level switch of size 1, and 1 sub-sw
      +                          itches
  2959                           ; Switch size 1, requested type "simple"
  2960                           ; Number of cases is 1, Range of values is 0 to 0
  2961                           ; switch strategies available:
  2962                           ; Name         Instructions Cycles
  2963                           ; simple_byte            4     3 (average)
  2964                           ; direct_byte           11     8 (fixed)
  2965                           ; jumptable            260     6 (fixed)
  2966                           ;	Chosen strategy is simple_byte
  2967  0EE4  0855               	movf	??_ssd_u8_get_code+1,w
  2968  0EE5  3A00               	xorlw	0	; case 0
  2969  0EE6  1903               	skipnz
  2970  0EE7  2EE9               	goto	l2914
  2971  0EE8  2EDF               	goto	l2334
  2972  0EE9                     l2914:	
  2973                           
  2974                           ; Switch size 1, requested type "simple"
  2975                           ; Number of cases is 10, Range of values is 0 to 9
  2976                           ; switch strategies available:
  2977                           ; Name         Instructions Cycles
  2978                           ; simple_byte           31    16 (average)
  2979                           ; direct_byte           38     8 (fixed)
  2980                           ; jumptable            260     6 (fixed)
  2981                           ;	Chosen strategy is simple_byte
  2982  0EE9  0854               	movf	??_ssd_u8_get_code,w
  2983  0EEA  3A00               	xorlw	0	; case 0
  2984  0EEB  1903               	skipnz
  2985  0EEC  2ECB               	goto	l2294
  2986  0EED  3A01               	xorlw	1	; case 1
  2987  0EEE  1903               	skipnz
  2988  0EEF  2ECD               	goto	l2298
  2989  0EF0  3A03               	xorlw	3	; case 2
  2990  0EF1  1903               	skipnz
  2991  0EF2  2ECF               	goto	l2302
  2992  0EF3  3A01               	xorlw	1	; case 3
  2993  0EF4  1903               	skipnz
  2994  0EF5  2ED1               	goto	l2306
  2995  0EF6  3A07               	xorlw	7	; case 4
  2996  0EF7  1903               	skipnz
  2997  0EF8  2ED3               	goto	l2310
  2998  0EF9  3A01               	xorlw	1	; case 5
  2999  0EFA  1903               	skipnz
  3000  0EFB  2ED5               	goto	l2314
  3001  0EFC  3A03               	xorlw	3	; case 6
  3002  0EFD  1903               	skipnz
  3003  0EFE  2ED7               	goto	l2318
  3004  0EFF  3A01               	xorlw	1	; case 7
  3005  0F00  1903               	skipnz
  3006  0F01  2ED9               	goto	l2322
  3007  0F02  3A0F               	xorlw	15	; case 8
  3008  0F03  1903               	skipnz
  3009  0F04  2EDB               	goto	l2326
  3010  0F05  3A01               	xorlw	1	; case 9
  3011  0F06  1903               	skipnz
  3012  0F07  2EDD               	goto	l2330
  3013  0F08  2EDF               	goto	l2334
  3014  0F09                     l404:	
  3015  0F09  0008               	return
  3016  0F0A                     __end_of_ssd_u8_get_code:	
  3017                           
  3018                           	psect	text9
  3019  07B8                     __ptext9:	
  3020 ;; *************** function ___lwdiv *****************
  3021 ;; Defined at:
  3022 ;;		line 5 in file "C:\Program Files (x86)\Microchip\xc8\v2.10\pic\sources\c90\common\lwdiv.c"
  3023 ;; Parameters:    Size  Location     Type
  3024 ;;  divisor         2    6[BANK0 ] unsigned int 
  3025 ;;  dividend        2    8[BANK0 ] unsigned int 
  3026 ;; Auto vars:     Size  Location     Type
  3027 ;;  quotient        2   11[BANK0 ] unsigned int 
  3028 ;;  counter         1   13[BANK0 ] unsigned char 
  3029 ;; Return value:  Size  Location     Type
  3030 ;;                  2    6[BANK0 ] unsigned int 
  3031 ;; Registers used:
  3032 ;;		wreg, status,2, status,0
  3033 ;; Tracked objects:
  3034 ;;		On entry : 0/0
  3035 ;;		On exit  : 0/0
  3036 ;;		Unchanged: 0/0
  3037 ;; Data sizes:     COMMON   BANK0   BANK1   BANK3   BANK2
  3038 ;;      Params:         0       4       0       0       0
  3039 ;;      Locals:         0       3       0       0       0
  3040 ;;      Temps:          0       1       0       0       0
  3041 ;;      Totals:         0       8       0       0       0
  3042 ;;Total ram usage:        8 bytes
  3043 ;; Hardware stack levels used:    1
  3044 ;; Hardware stack levels required when called:    3
  3045 ;; This function calls:
  3046 ;;		Nothing
  3047 ;; This function is called by:
  3048 ;;		_ssd_vid_update
  3049 ;; This function uses a non-reentrant model
  3050 ;;
  3051                           
  3052                           
  3053                           ;psect for function ___lwdiv
  3054  07B8                     ___lwdiv:	
  3055  07B8                     l2400:	
  3056                           ;incstack = 0
  3057                           ; Regs used in ___lwdiv: [wreg+status,2+status,0]
  3058                           
  3059  07B8  1283               	bcf	3,5	;RP0=0, select bank0
  3060  07B9  1303               	bcf	3,6	;RP1=0, select bank0
  3061  07BA  01D9               	clrf	___lwdiv@quotient
  3062  07BB  01DA               	clrf	___lwdiv@quotient+1
  3063  07BC                     l2402:	
  3064  07BC  0854               	movf	___lwdiv@divisor,w
  3065  07BD  0455               	iorwf	___lwdiv@divisor+1,w
  3066  07BE  1903               	btfsc	3,2
  3067  07BF  2FC1               	goto	u1741
  3068  07C0  2FC2               	goto	u1740
  3069  07C1                     u1741:	
  3070  07C1  2FF9               	goto	l2422
  3071  07C2                     u1740:	
  3072  07C2                     l2404:	
  3073  07C2  01DB               	clrf	___lwdiv@counter
  3074  07C3  0ADB               	incf	___lwdiv@counter,f
  3075  07C4  2FD0               	goto	l2410
  3076  07C5                     l2406:	
  3077  07C5  3001               	movlw	1
  3078  07C6                     u1755:	
  3079  07C6  1003               	clrc
  3080  07C7  0DD4               	rlf	___lwdiv@divisor,f
  3081  07C8  0DD5               	rlf	___lwdiv@divisor+1,f
  3082  07C9  3EFF               	addlw	-1
  3083  07CA  1D03               	skipz
  3084  07CB  2FC6               	goto	u1755
  3085  07CC                     l2408:	
  3086  07CC  3001               	movlw	1
  3087  07CD  00D8               	movwf	??___lwdiv
  3088  07CE  0858               	movf	??___lwdiv,w
  3089  07CF  07DB               	addwf	___lwdiv@counter,f
  3090  07D0                     l2410:	
  3091  07D0  1FD5               	btfss	___lwdiv@divisor+1,7
  3092  07D1  2FD3               	goto	u1761
  3093  07D2  2FD4               	goto	u1760
  3094  07D3                     u1761:	
  3095  07D3  2FC5               	goto	l2406
  3096  07D4                     u1760:	
  3097  07D4                     l2412:	
  3098  07D4  3001               	movlw	1
  3099  07D5                     u1775:	
  3100  07D5  1003               	clrc
  3101  07D6  0DD9               	rlf	___lwdiv@quotient,f
  3102  07D7  0DDA               	rlf	___lwdiv@quotient+1,f
  3103  07D8  3EFF               	addlw	-1
  3104  07D9  1D03               	skipz
  3105  07DA  2FD5               	goto	u1775
  3106  07DB  0855               	movf	___lwdiv@divisor+1,w
  3107  07DC  0257               	subwf	___lwdiv@dividend+1,w
  3108  07DD  1D03               	skipz
  3109  07DE  2FE1               	goto	u1785
  3110  07DF  0854               	movf	___lwdiv@divisor,w
  3111  07E0  0256               	subwf	___lwdiv@dividend,w
  3112  07E1                     u1785:	
  3113  07E1  1C03               	skipc
  3114  07E2  2FE4               	goto	u1781
  3115  07E3  2FE5               	goto	u1780
  3116  07E4                     u1781:	
  3117  07E4  2FEC               	goto	l2418
  3118  07E5                     u1780:	
  3119  07E5                     l2414:	
  3120  07E5  0854               	movf	___lwdiv@divisor,w
  3121  07E6  02D6               	subwf	___lwdiv@dividend,f
  3122  07E7  0855               	movf	___lwdiv@divisor+1,w
  3123  07E8  1C03               	skipc
  3124  07E9  03D7               	decf	___lwdiv@dividend+1,f
  3125  07EA  02D7               	subwf	___lwdiv@dividend+1,f
  3126  07EB                     l2416:	
  3127  07EB  1459               	bsf	___lwdiv@quotient,0
  3128  07EC                     l2418:	
  3129  07EC  3001               	movlw	1
  3130  07ED                     u1795:	
  3131  07ED  1003               	clrc
  3132  07EE  0CD5               	rrf	___lwdiv@divisor+1,f
  3133  07EF  0CD4               	rrf	___lwdiv@divisor,f
  3134  07F0  3EFF               	addlw	-1
  3135  07F1  1D03               	skipz
  3136  07F2  2FED               	goto	u1795
  3137  07F3                     l2420:	
  3138  07F3  3001               	movlw	1
  3139  07F4  02DB               	subwf	___lwdiv@counter,f
  3140  07F5  1D03               	btfss	3,2
  3141  07F6  2FF8               	goto	u1801
  3142  07F7  2FF9               	goto	u1800
  3143  07F8                     u1801:	
  3144  07F8  2FD4               	goto	l2412
  3145  07F9                     u1800:	
  3146  07F9                     l2422:	
  3147  07F9  085A               	movf	___lwdiv@quotient+1,w
  3148  07FA  00D5               	movwf	?___lwdiv+1
  3149  07FB  0859               	movf	___lwdiv@quotient,w
  3150  07FC  00D4               	movwf	?___lwdiv
  3151  07FD                     l888:	
  3152  07FD  0008               	return
  3153  07FE                     __end_of___lwdiv:	
  3154                           
  3155                           	psect	text10
  3156  0583                     __ptext10:	
  3157 ;; *************** function _sch_vid_delete_task *****************
  3158 ;; Defined at:
  3159 ;;		line 89 in file "scheduler.c"
  3160 ;; Parameters:    Size  Location     Type
  3161 ;;  index           1    wreg     unsigned char 
  3162 ;; Auto vars:     Size  Location     Type
  3163 ;;  index           1   11[BANK0 ] unsigned char 
  3164 ;; Return value:  Size  Location     Type
  3165 ;;                  1    wreg      unsigned char 
  3166 ;; Registers used:
  3167 ;;		wreg, fsr0l, fsr0h, status,2, status,0, pclath, cstack
  3168 ;; Tracked objects:
  3169 ;;		On entry : 0/0
  3170 ;;		On exit  : 0/0
  3171 ;;		Unchanged: 0/0
  3172 ;; Data sizes:     COMMON   BANK0   BANK1   BANK3   BANK2
  3173 ;;      Params:         0       0       0       0       0
  3174 ;;      Locals:         0       1       0       0       0
  3175 ;;      Temps:          0       1       0       0       0
  3176 ;;      Totals:         0       2       0       0       0
  3177 ;;Total ram usage:        2 bytes
  3178 ;; Hardware stack levels used:    1
  3179 ;; Hardware stack levels required when called:    4
  3180 ;; This function calls:
  3181 ;;		___bmul
  3182 ;; This function is called by:
  3183 ;;		_sch_vid_init
  3184 ;;		_sch_vid_dispatch_tasks
  3185 ;; This function uses a non-reentrant model
  3186 ;;
  3187                           
  3188                           
  3189                           ;psect for function _sch_vid_delete_task
  3190  0583                     _sch_vid_delete_task:	
  3191                           
  3192                           ;incstack = 0
  3193                           ; Regs used in _sch_vid_delete_task: [wreg-fsr0h+status,2+status,0+pclath+cstack]
  3194                           ;sch_vid_delete_task@index stored from wreg
  3195  0583  1283               	bcf	3,5	;RP0=0, select bank0
  3196  0584  1303               	bcf	3,6	;RP1=0, select bank0
  3197  0585  00D9               	movwf	sch_vid_delete_task@index
  3198  0586                     l2518:	
  3199                           
  3200                           ;scheduler.c: 90:     if (index < 3) {
  3201  0586  3003               	movlw	3
  3202  0587  0259               	subwf	sch_vid_delete_task@index,w
  3203  0588  1803               	skipnc
  3204  0589  2D8B               	goto	u2031
  3205  058A  2D8C               	goto	u2030
  3206  058B                     u2031:	
  3207  058B  2DE8               	goto	l362
  3208  058C                     u2030:	
  3209  058C                     l2520:	
  3210                           
  3211                           ;scheduler.c: 91:         sch_tasks[index].taskFunction = 0x0000;
  3212  058C  300D               	movlw	13
  3213  058D  00D8               	movwf	??_sch_vid_delete_task
  3214  058E  0858               	movf	??_sch_vid_delete_task,w
  3215  058F  00D4               	movwf	___bmul@multiplicand
  3216  0590  0859               	movf	sch_vid_delete_task@index,w
  3217  0591  120A  158A  2501  120A  118A  	fcall	___bmul
  3218  0596  3E20               	addlw	(low (_sch_tasks| 0))& (0+255)
  3219  0597  0084               	movwf	4
  3220  0598  1383               	bcf	3,7	;select IRP bank0
  3221  0599  0180               	clrf	0
  3222                           
  3223                           ;scheduler.c: 92:         sch_tasks[index].delay = 0;
  3224  059A  300D               	movlw	13
  3225  059B  1283               	bcf	3,5	;RP0=0, select bank0
  3226  059C  1303               	bcf	3,6	;RP1=0, select bank0
  3227  059D  00D8               	movwf	??_sch_vid_delete_task
  3228  059E  0858               	movf	??_sch_vid_delete_task,w
  3229  059F  00D4               	movwf	___bmul@multiplicand
  3230  05A0  0859               	movf	sch_vid_delete_task@index,w
  3231  05A1  120A  158A  2501  120A  118A  	fcall	___bmul
  3232  05A6  3E21               	addlw	(low ((_sch_tasks| 0+1)))& (0+255)
  3233  05A7  0084               	movwf	4
  3234  05A8  3000               	movlw	0
  3235  05A9  1383               	bcf	3,7	;select IRP bank0
  3236  05AA  0080               	movwf	0
  3237  05AB  0A84               	incf	4,f
  3238  05AC  3000               	movlw	0
  3239  05AD  0080               	movwf	0
  3240  05AE  0A84               	incf	4,f
  3241  05AF  3000               	movlw	0
  3242  05B0  0080               	movwf	0
  3243  05B1  0A84               	incf	4,f
  3244  05B2  3000               	movlw	0
  3245  05B3  0080               	movwf	0
  3246                           
  3247                           ;scheduler.c: 93:         sch_tasks[index].period = 0;
  3248  05B4  300D               	movlw	13
  3249  05B5  1283               	bcf	3,5	;RP0=0, select bank0
  3250  05B6  1303               	bcf	3,6	;RP1=0, select bank0
  3251  05B7  00D8               	movwf	??_sch_vid_delete_task
  3252  05B8  0858               	movf	??_sch_vid_delete_task,w
  3253  05B9  00D4               	movwf	___bmul@multiplicand
  3254  05BA  0859               	movf	sch_vid_delete_task@index,w
  3255  05BB  120A  158A  2501  120A  118A  	fcall	___bmul
  3256  05C0  3E25               	addlw	(low ((_sch_tasks| 0+5)))& (0+255)
  3257  05C1  0084               	movwf	4
  3258  05C2  3000               	movlw	0
  3259  05C3  1383               	bcf	3,7	;select IRP bank0
  3260  05C4  0080               	movwf	0
  3261  05C5  0A84               	incf	4,f
  3262  05C6  3000               	movlw	0
  3263  05C7  0080               	movwf	0
  3264  05C8  0A84               	incf	4,f
  3265  05C9  3000               	movlw	0
  3266  05CA  0080               	movwf	0
  3267  05CB  0A84               	incf	4,f
  3268  05CC  3000               	movlw	0
  3269  05CD  0080               	movwf	0
  3270                           
  3271                           ;scheduler.c: 94:         sch_tasks[index].runMe = 0;
  3272  05CE  300D               	movlw	13
  3273  05CF  1283               	bcf	3,5	;RP0=0, select bank0
  3274  05D0  1303               	bcf	3,6	;RP1=0, select bank0
  3275  05D1  00D8               	movwf	??_sch_vid_delete_task
  3276  05D2  0858               	movf	??_sch_vid_delete_task,w
  3277  05D3  00D4               	movwf	___bmul@multiplicand
  3278  05D4  0859               	movf	sch_vid_delete_task@index,w
  3279  05D5  120A  158A  2501  120A  118A  	fcall	___bmul
  3280  05DA  3E29               	addlw	(low ((_sch_tasks| 0+9)))& (0+255)
  3281  05DB  0084               	movwf	4
  3282  05DC  3000               	movlw	0
  3283  05DD  1383               	bcf	3,7	;select IRP bank0
  3284  05DE  0080               	movwf	0
  3285  05DF  0A84               	incf	4,f
  3286  05E0  3000               	movlw	0
  3287  05E1  0080               	movwf	0
  3288  05E2  0A84               	incf	4,f
  3289  05E3  3000               	movlw	0
  3290  05E4  0080               	movwf	0
  3291  05E5  0A84               	incf	4,f
  3292  05E6  3000               	movlw	0
  3293  05E7  0080               	movwf	0
  3294  05E8                     l362:	
  3295  05E8  0008               	return
  3296  05E9                     __end_of_sch_vid_delete_task:	
  3297                           
  3298                           	psect	text11
  3299  0C4B                     __ptext11:	
  3300 ;; *************** function _ssd_u8_get_state *****************
  3301 ;; Defined at:
  3302 ;;		line 61 in file "ssd.c"
  3303 ;; Parameters:    Size  Location     Type
  3304 ;;		None
  3305 ;; Auto vars:     Size  Location     Type
  3306 ;;		None
  3307 ;; Return value:  Size  Location     Type
  3308 ;;                  1    wreg      unsigned char 
  3309 ;; Registers used:
  3310 ;;		wreg
  3311 ;; Tracked objects:
  3312 ;;		On entry : 0/0
  3313 ;;		On exit  : 0/0
  3314 ;;		Unchanged: 0/0
  3315 ;; Data sizes:     COMMON   BANK0   BANK1   BANK3   BANK2
  3316 ;;      Params:         0       0       0       0       0
  3317 ;;      Locals:         0       0       0       0       0
  3318 ;;      Temps:          0       0       0       0       0
  3319 ;;      Totals:         0       0       0       0       0
  3320 ;;Total ram usage:        0 bytes
  3321 ;; Hardware stack levels used:    1
  3322 ;; Hardware stack levels required when called:    3
  3323 ;; This function calls:
  3324 ;;		Nothing
  3325 ;; This function is called by:
  3326 ;;		_display_vid_update
  3327 ;; This function uses a non-reentrant model
  3328 ;;
  3329                           
  3330                           
  3331                           ;psect for function _ssd_u8_get_state
  3332  0C4B                     _ssd_u8_get_state:	
  3333  0C4B                     l2288:	
  3334                           ;incstack = 0
  3335                           ; Regs used in _ssd_u8_get_state: [wreg]
  3336                           
  3337                           
  3338                           ;ssd.c: 62:     return ssdState;
  3339  0C4B  1283               	bcf	3,5	;RP0=0, select bank0
  3340  0C4C  1303               	bcf	3,6	;RP1=0, select bank0
  3341  0C4D  0865               	movf	_ssdState,w
  3342  0C4E                     l396:	
  3343  0C4E  0008               	return
  3344  0C4F                     __end_of_ssd_u8_get_state:	
  3345                           
  3346                           	psect	text12
  3347  0E8B                     __ptext12:	
  3348 ;; *************** function ___lwmod *****************
  3349 ;; Defined at:
  3350 ;;		line 5 in file "C:\Program Files (x86)\Microchip\xc8\v2.10\pic\sources\c90\common\lwmod.c"
  3351 ;; Parameters:    Size  Location     Type
  3352 ;;  divisor         2    6[BANK0 ] unsigned int 
  3353 ;;  dividend        2    8[BANK0 ] unsigned int 
  3354 ;; Auto vars:     Size  Location     Type
  3355 ;;  counter         1   11[BANK0 ] unsigned char 
  3356 ;; Return value:  Size  Location     Type
  3357 ;;                  2    6[BANK0 ] unsigned int 
  3358 ;; Registers used:
  3359 ;;		wreg, status,2, status,0
  3360 ;; Tracked objects:
  3361 ;;		On entry : 0/0
  3362 ;;		On exit  : 0/0
  3363 ;;		Unchanged: 0/0
  3364 ;; Data sizes:     COMMON   BANK0   BANK1   BANK3   BANK2
  3365 ;;      Params:         0       4       0       0       0
  3366 ;;      Locals:         0       1       0       0       0
  3367 ;;      Temps:          0       1       0       0       0
  3368 ;;      Totals:         0       6       0       0       0
  3369 ;;Total ram usage:        6 bytes
  3370 ;; Hardware stack levels used:    1
  3371 ;; Hardware stack levels required when called:    3
  3372 ;; This function calls:
  3373 ;;		Nothing
  3374 ;; This function is called by:
  3375 ;;		_display_vid_update
  3376 ;;		_ssd_vid_update
  3377 ;; This function uses a non-reentrant model
  3378 ;;
  3379                           
  3380                           
  3381                           ;psect for function ___lwmod
  3382  0E8B                     ___lwmod:	
  3383  0E8B                     l2426:	
  3384                           ;incstack = 0
  3385                           ; Regs used in ___lwmod: [wreg+status,2+status,0]
  3386                           
  3387  0E8B  1283               	bcf	3,5	;RP0=0, select bank0
  3388  0E8C  1303               	bcf	3,6	;RP1=0, select bank0
  3389  0E8D  0854               	movf	___lwmod@divisor,w
  3390  0E8E  0455               	iorwf	___lwmod@divisor+1,w
  3391  0E8F  1903               	btfsc	3,2
  3392  0E90  2E92               	goto	u1811
  3393  0E91  2E93               	goto	u1810
  3394  0E92                     u1811:	
  3395  0E92  2EC2               	goto	l2444
  3396  0E93                     u1810:	
  3397  0E93                     l2428:	
  3398  0E93  01D9               	clrf	___lwmod@counter
  3399  0E94  0AD9               	incf	___lwmod@counter,f
  3400  0E95  2EA1               	goto	l2434
  3401  0E96                     l2430:	
  3402  0E96  3001               	movlw	1
  3403  0E97                     u1825:	
  3404  0E97  1003               	clrc
  3405  0E98  0DD4               	rlf	___lwmod@divisor,f
  3406  0E99  0DD5               	rlf	___lwmod@divisor+1,f
  3407  0E9A  3EFF               	addlw	-1
  3408  0E9B  1D03               	skipz
  3409  0E9C  2E97               	goto	u1825
  3410  0E9D                     l2432:	
  3411  0E9D  3001               	movlw	1
  3412  0E9E  00D8               	movwf	??___lwmod
  3413  0E9F  0858               	movf	??___lwmod,w
  3414  0EA0  07D9               	addwf	___lwmod@counter,f
  3415  0EA1                     l2434:	
  3416  0EA1  1FD5               	btfss	___lwmod@divisor+1,7
  3417  0EA2  2EA4               	goto	u1831
  3418  0EA3  2EA5               	goto	u1830
  3419  0EA4                     u1831:	
  3420  0EA4  2E96               	goto	l2430
  3421  0EA5                     u1830:	
  3422  0EA5                     l2436:	
  3423  0EA5  0855               	movf	___lwmod@divisor+1,w
  3424  0EA6  0257               	subwf	___lwmod@dividend+1,w
  3425  0EA7  1D03               	skipz
  3426  0EA8  2EAB               	goto	u1845
  3427  0EA9  0854               	movf	___lwmod@divisor,w
  3428  0EAA  0256               	subwf	___lwmod@dividend,w
  3429  0EAB                     u1845:	
  3430  0EAB  1C03               	skipc
  3431  0EAC  2EAE               	goto	u1841
  3432  0EAD  2EAF               	goto	u1840
  3433  0EAE                     u1841:	
  3434  0EAE  2EB5               	goto	l2440
  3435  0EAF                     u1840:	
  3436  0EAF                     l2438:	
  3437  0EAF  0854               	movf	___lwmod@divisor,w
  3438  0EB0  02D6               	subwf	___lwmod@dividend,f
  3439  0EB1  0855               	movf	___lwmod@divisor+1,w
  3440  0EB2  1C03               	skipc
  3441  0EB3  03D7               	decf	___lwmod@dividend+1,f
  3442  0EB4  02D7               	subwf	___lwmod@dividend+1,f
  3443  0EB5                     l2440:	
  3444  0EB5  3001               	movlw	1
  3445  0EB6                     u1855:	
  3446  0EB6  1003               	clrc
  3447  0EB7  0CD5               	rrf	___lwmod@divisor+1,f
  3448  0EB8  0CD4               	rrf	___lwmod@divisor,f
  3449  0EB9  3EFF               	addlw	-1
  3450  0EBA  1D03               	skipz
  3451  0EBB  2EB6               	goto	u1855
  3452  0EBC                     l2442:	
  3453  0EBC  3001               	movlw	1
  3454  0EBD  02D9               	subwf	___lwmod@counter,f
  3455  0EBE  1D03               	btfss	3,2
  3456  0EBF  2EC1               	goto	u1861
  3457  0EC0  2EC2               	goto	u1860
  3458  0EC1                     u1861:	
  3459  0EC1  2EA5               	goto	l2436
  3460  0EC2                     u1860:	
  3461  0EC2                     l2444:	
  3462  0EC2  0857               	movf	___lwmod@dividend+1,w
  3463  0EC3  00D5               	movwf	?___lwmod+1
  3464  0EC4  0856               	movf	___lwmod@dividend,w
  3465  0EC5  00D4               	movwf	?___lwmod
  3466  0EC6                     l898:	
  3467  0EC6  0008               	return
  3468  0EC7                     __end_of___lwmod:	
  3469                           
  3470                           	psect	text13
  3471  0E51                     __ptext13:	
  3472 ;; *************** function _eeprom_external_vid_write *****************
  3473 ;; Defined at:
  3474 ;;		line 11 in file "eeprom_external.c"
  3475 ;; Parameters:    Size  Location     Type
  3476 ;;  address         1    wreg     unsigned char 
  3477 ;;  data            1   12[BANK0 ] unsigned char 
  3478 ;; Auto vars:     Size  Location     Type
  3479 ;;  address         1   13[BANK0 ] unsigned char 
  3480 ;; Return value:  Size  Location     Type
  3481 ;;                  1    wreg      void 
  3482 ;; Registers used:
  3483 ;;		wreg, fsr0l, fsr0h, status,2, status,0, pclath, cstack
  3484 ;; Tracked objects:
  3485 ;;		On entry : 0/0
  3486 ;;		On exit  : 0/0
  3487 ;;		Unchanged: 0/0
  3488 ;; Data sizes:     COMMON   BANK0   BANK1   BANK3   BANK2
  3489 ;;      Params:         0       1       0       0       0
  3490 ;;      Locals:         0       1       0       0       0
  3491 ;;      Temps:          0       0       0       0       0
  3492 ;;      Totals:         0       2       0       0       0
  3493 ;;Total ram usage:        2 bytes
  3494 ;; Hardware stack levels used:    1
  3495 ;; Hardware stack levels required when called:    5
  3496 ;; This function calls:
  3497 ;;		_i2c_u8_master_write_byte
  3498 ;;		_i2c_u8_master_write_slave_address_with_write_req
  3499 ;;		_i2c_vid_master_init
  3500 ;;		_i2c_vid_restart
  3501 ;;		_i2c_vid_start
  3502 ;;		_i2c_vid_stop
  3503 ;; This function is called by:
  3504 ;;		_counter_vid_update
  3505 ;; This function uses a non-reentrant model
  3506 ;;
  3507                           
  3508                           
  3509                           ;psect for function _eeprom_external_vid_write
  3510  0E51                     _eeprom_external_vid_write:	
  3511                           
  3512                           ;incstack = 0
  3513                           ; Regs used in _eeprom_external_vid_write: [wreg-fsr0h+status,2+status,0+pclath+cstack]
  3514                           ;eeprom_external_vid_write@address stored from wreg
  3515  0E51  1283               	bcf	3,5	;RP0=0, select bank0
  3516  0E52  1303               	bcf	3,6	;RP1=0, select bank0
  3517  0E53  00DB               	movwf	eeprom_external_vid_write@address
  3518  0E54                     l2176:	
  3519                           
  3520                           ;eeprom_external.c: 12:     i2c_vid_master_init();
  3521  0E54  120A  158A  25C1  120A  158A  	fcall	_i2c_vid_master_init
  3522  0E59                     l2178:	
  3523                           
  3524                           ;eeprom_external.c: 13:     i2c_vid_start();
  3525  0E59  120A  158A  2470  120A  158A  	fcall	_i2c_vid_start
  3526                           
  3527                           ;eeprom_external.c: 14:     while(i2c_u8_master_write_slave_address_with_write_req(0x50)
      +                          )
  3528  0E5E  2E64               	goto	l201
  3529  0E5F                     l2180:	
  3530                           
  3531                           ;eeprom_external.c: 15:     i2c_vid_restart();
  3532  0E5F  120A  158A  2467  120A  158A  	fcall	_i2c_vid_restart
  3533  0E64                     l201:	
  3534                           
  3535                           ;eeprom_external.c: 14:     while(i2c_u8_master_write_slave_address_with_write_req(0x50)
      +                          )
  3536  0E64  3050               	movlw	80
  3537  0E65  120A  158A  2518  120A  158A  	fcall	_i2c_u8_master_write_slave_address_with_write_req
  3538  0E6A  3A00               	xorlw	0
  3539  0E6B  1D03               	skipz
  3540  0E6C  2E6E               	goto	u1421
  3541  0E6D  2E6F               	goto	u1420
  3542  0E6E                     u1421:	
  3543  0E6E  2E5F               	goto	l2180
  3544  0E6F                     u1420:	
  3545  0E6F                     l2182:	
  3546                           
  3547                           ;eeprom_external.c: 16:     i2c_u8_master_write_byte(address >> 8);
  3548  0E6F  3000               	movlw	0
  3549  0E70  120A  158A  24B0  120A  158A  	fcall	_i2c_u8_master_write_byte
  3550                           
  3551                           ;eeprom_external.c: 17:     i2c_u8_master_write_byte((u8) address);
  3552  0E75  1283               	bcf	3,5	;RP0=0, select bank0
  3553  0E76  1303               	bcf	3,6	;RP1=0, select bank0
  3554  0E77  085B               	movf	eeprom_external_vid_write@address,w
  3555  0E78  120A  158A  24B0  120A  158A  	fcall	_i2c_u8_master_write_byte
  3556                           
  3557                           ;eeprom_external.c: 18:     i2c_u8_master_write_byte(data);
  3558  0E7D  1283               	bcf	3,5	;RP0=0, select bank0
  3559  0E7E  1303               	bcf	3,6	;RP1=0, select bank0
  3560  0E7F  085A               	movf	eeprom_external_vid_write@data,w
  3561  0E80  120A  158A  24B0  120A  158A  	fcall	_i2c_u8_master_write_byte
  3562                           
  3563                           ;eeprom_external.c: 19:     i2c_vid_stop();
  3564  0E85  120A  158A  2479  120A  158A  	fcall	_i2c_vid_stop
  3565  0E8A                     l204:	
  3566  0E8A  0008               	return
  3567  0E8B                     __end_of_eeprom_external_vid_write:	
  3568                           
  3569                           	psect	text14
  3570  0C82                     __ptext14:	
  3571 ;; *************** function _display_set_setting_mode *****************
  3572 ;; Defined at:
  3573 ;;		line 65 in file "display.c"
  3574 ;; Parameters:    Size  Location     Type
  3575 ;;  mode            1    wreg     unsigned char 
  3576 ;; Auto vars:     Size  Location     Type
  3577 ;;  mode            1    7[BANK0 ] unsigned char 
  3578 ;; Return value:  Size  Location     Type
  3579 ;;                  1    wreg      void 
  3580 ;; Registers used:
  3581 ;;		wreg, status,2
  3582 ;; Tracked objects:
  3583 ;;		On entry : 0/0
  3584 ;;		On exit  : 0/0
  3585 ;;		Unchanged: 0/0
  3586 ;; Data sizes:     COMMON   BANK0   BANK1   BANK3   BANK2
  3587 ;;      Params:         0       0       0       0       0
  3588 ;;      Locals:         0       1       0       0       0
  3589 ;;      Temps:          0       1       0       0       0
  3590 ;;      Totals:         0       2       0       0       0
  3591 ;;Total ram usage:        2 bytes
  3592 ;; Hardware stack levels used:    1
  3593 ;; Hardware stack levels required when called:    3
  3594 ;; This function calls:
  3595 ;;		Nothing
  3596 ;; This function is called by:
  3597 ;;		_counter_vid_update
  3598 ;; This function uses a non-reentrant model
  3599 ;;
  3600                           
  3601                           
  3602                           ;psect for function _display_set_setting_mode
  3603  0C82                     _display_set_setting_mode:	
  3604                           
  3605                           ;incstack = 0
  3606                           ; Regs used in _display_set_setting_mode: [wreg+status,2]
  3607                           ;display_set_setting_mode@mode stored from wreg
  3608  0C82  1283               	bcf	3,5	;RP0=0, select bank0
  3609  0C83  1303               	bcf	3,6	;RP1=0, select bank0
  3610  0C84  00D5               	movwf	display_set_setting_mode@mode
  3611  0C85                     l2172:	
  3612                           
  3613                           ;display.c: 66:     settingModeFlag = mode;
  3614  0C85  0855               	movf	display_set_setting_mode@mode,w
  3615  0C86  00D4               	movwf	??_display_set_setting_mode
  3616  0C87  0854               	movf	??_display_set_setting_mode,w
  3617  0C88  00CC               	movwf	_settingModeFlag
  3618  0C89                     l2174:	
  3619                           
  3620                           ;display.c: 67:     settingModeCounter = 0;
  3621  0C89  01C9               	clrf	_settingModeCounter
  3622  0C8A  01CA               	clrf	_settingModeCounter+1
  3623  0C8B                     l180:	
  3624  0C8B  0008               	return
  3625  0C8C                     __end_of_display_set_setting_mode:	
  3626                           
  3627                           	psect	text15
  3628  0D31                     __ptext15:	
  3629 ;; *************** function _dio_u8_read_pin_value *****************
  3630 ;; Defined at:
  3631 ;;		line 75 in file "dio.c"
  3632 ;; Parameters:    Size  Location     Type
  3633 ;;  portNumber      1    wreg     unsigned char 
  3634 ;;  index           1    9[BANK0 ] unsigned char 
  3635 ;; Auto vars:     Size  Location     Type
  3636 ;;  portNumber      1   11[BANK0 ] unsigned char 
  3637 ;;  port            1   12[BANK0 ] unsigned char 
  3638 ;; Return value:  Size  Location     Type
  3639 ;;                  1    wreg      unsigned char 
  3640 ;; Registers used:
  3641 ;;		wreg, fsr0l, fsr0h, status,2, status,0, pclath, cstack
  3642 ;; Tracked objects:
  3643 ;;		On entry : 0/0
  3644 ;;		On exit  : 0/0
  3645 ;;		Unchanged: 0/0
  3646 ;; Data sizes:     COMMON   BANK0   BANK1   BANK3   BANK2
  3647 ;;      Params:         0       1       0       0       0
  3648 ;;      Locals:         0       2       0       0       0
  3649 ;;      Temps:          0       1       0       0       0
  3650 ;;      Totals:         0       4       0       0       0
  3651 ;;Total ram usage:        4 bytes
  3652 ;; Hardware stack levels used:    1
  3653 ;; Hardware stack levels required when called:    4
  3654 ;; This function calls:
  3655 ;;		_dio_u8_read_port_value
  3656 ;; This function is called by:
  3657 ;;		_counter_vid_update
  3658 ;;		_ssd_vid_update
  3659 ;; This function uses a non-reentrant model
  3660 ;;
  3661                           
  3662                           
  3663                           ;psect for function _dio_u8_read_pin_value
  3664  0D31                     _dio_u8_read_pin_value:	
  3665                           
  3666                           ;incstack = 0
  3667                           ; Regs used in _dio_u8_read_pin_value: [wreg-fsr0h+status,2+status,0+pclath+cstack]
  3668                           ;dio_u8_read_pin_value@portNumber stored from wreg
  3669  0D31  1283               	bcf	3,5	;RP0=0, select bank0
  3670  0D32  1303               	bcf	3,6	;RP1=0, select bank0
  3671  0D33  00D9               	movwf	dio_u8_read_pin_value@portNumber
  3672  0D34                     l2166:	
  3673                           
  3674                           ;dio.c: 76:  u8 port = dio_u8_read_port_value(portNumber);
  3675  0D34  0859               	movf	dio_u8_read_pin_value@portNumber,w
  3676  0D35  120A  158A  256F  120A  158A  	fcall	_dio_u8_read_port_value
  3677  0D3A  1283               	bcf	3,5	;RP0=0, select bank0
  3678  0D3B  1303               	bcf	3,6	;RP1=0, select bank0
  3679  0D3C  00D8               	movwf	??_dio_u8_read_pin_value
  3680  0D3D  0858               	movf	??_dio_u8_read_pin_value,w
  3681  0D3E  00DA               	movwf	dio_u8_read_pin_value@port
  3682  0D3F                     l2168:	
  3683                           
  3684                           ;dio.c: 77:  return ((port>>index)&1);
  3685  0D3F  085A               	movf	dio_u8_read_pin_value@port,w
  3686  0D40  00D8               	movwf	??_dio_u8_read_pin_value
  3687  0D41  0A57               	incf	dio_u8_read_pin_value@index,w
  3688  0D42  2D45               	goto	u1414
  3689  0D43                     u1415:	
  3690  0D43  1003               	clrc
  3691  0D44  0CD8               	rrf	??_dio_u8_read_pin_value,f
  3692  0D45                     u1414:	
  3693  0D45  3EFF               	addlw	-1
  3694  0D46  1D03               	skipz
  3695  0D47  2D43               	goto	u1415
  3696  0D48  0858               	movf	??_dio_u8_read_pin_value,w
  3697  0D49  3901               	andlw	1
  3698  0D4A                     l91:	
  3699  0D4A  0008               	return
  3700  0D4B                     __end_of_dio_u8_read_pin_value:	
  3701                           
  3702                           	psect	text16
  3703  0D6F                     __ptext16:	
  3704 ;; *************** function _dio_u8_read_port_value *****************
  3705 ;; Defined at:
  3706 ;;		line 53 in file "dio.c"
  3707 ;; Parameters:    Size  Location     Type
  3708 ;;  portNumber      1    wreg     unsigned char 
  3709 ;; Auto vars:     Size  Location     Type
  3710 ;;  portNumber      1    8[BANK0 ] unsigned char 
  3711 ;; Return value:  Size  Location     Type
  3712 ;;                  1    wreg      unsigned char 
  3713 ;; Registers used:
  3714 ;;		wreg, fsr0l, fsr0h, status,2, status,0
  3715 ;; Tracked objects:
  3716 ;;		On entry : 0/0
  3717 ;;		On exit  : 0/0
  3718 ;;		Unchanged: 0/0
  3719 ;; Data sizes:     COMMON   BANK0   BANK1   BANK3   BANK2
  3720 ;;      Params:         0       0       0       0       0
  3721 ;;      Locals:         0       1       0       0       0
  3722 ;;      Temps:          0       2       0       0       0
  3723 ;;      Totals:         0       3       0       0       0
  3724 ;;Total ram usage:        3 bytes
  3725 ;; Hardware stack levels used:    1
  3726 ;; Hardware stack levels required when called:    3
  3727 ;; This function calls:
  3728 ;;		Nothing
  3729 ;; This function is called by:
  3730 ;;		_dio_u8_read_pin_value
  3731 ;; This function uses a non-reentrant model
  3732 ;;
  3733                           
  3734                           
  3735                           ;psect for function _dio_u8_read_port_value
  3736  0D6F                     _dio_u8_read_port_value:	
  3737                           
  3738                           ;incstack = 0
  3739                           ; Regs used in _dio_u8_read_port_value: [wreg-fsr0h+status,2+status,0]
  3740                           ;dio_u8_read_port_value@portNumber stored from wreg
  3741  0D6F  1283               	bcf	3,5	;RP0=0, select bank0
  3742  0D70  1303               	bcf	3,6	;RP1=0, select bank0
  3743  0D71  00D6               	movwf	dio_u8_read_port_value@portNumber
  3744  0D72                     l2046:	
  3745                           
  3746                           ;dio.c: 54:  switch (portNumber) {
  3747  0D72  2D7D               	goto	l2080
  3748  0D73                     l2048:	
  3749                           
  3750                           ;dio.c: 56:   return PORTA;
  3751  0D73  0805               	movf	5,w	;volatile
  3752  0D74  2D97               	goto	l83
  3753  0D75                     l2054:	
  3754                           
  3755                           ;dio.c: 59:   return PORTB;
  3756  0D75  0806               	movf	6,w	;volatile
  3757  0D76  2D97               	goto	l83
  3758  0D77                     l2060:	
  3759                           
  3760                           ;dio.c: 62:   return PORTC;
  3761  0D77  0807               	movf	7,w	;volatile
  3762  0D78  2D97               	goto	l83
  3763  0D79                     l2066:	
  3764                           
  3765                           ;dio.c: 65:   return PORTD;
  3766  0D79  0808               	movf	8,w	;volatile
  3767  0D7A  2D97               	goto	l83
  3768  0D7B                     l2072:	
  3769                           
  3770                           ;dio.c: 68:   return PORTE;
  3771  0D7B  0809               	movf	9,w	;volatile
  3772  0D7C  2D97               	goto	l83
  3773  0D7D                     l2080:	
  3774  0D7D  0856               	movf	dio_u8_read_port_value@portNumber,w
  3775  0D7E  00D4               	movwf	??_dio_u8_read_port_value
  3776  0D7F  01D5               	clrf	??_dio_u8_read_port_value+1
  3777                           
  3778                           ; Switch on 2 bytes has been partitioned into a top level switch of size 1, and 1 sub-sw
      +                          itches
  3779                           ; Switch size 1, requested type "simple"
  3780                           ; Number of cases is 1, Range of values is 0 to 0
  3781                           ; switch strategies available:
  3782                           ; Name         Instructions Cycles
  3783                           ; simple_byte            4     3 (average)
  3784                           ; direct_byte           11     8 (fixed)
  3785                           ; jumptable            260     6 (fixed)
  3786                           ;	Chosen strategy is simple_byte
  3787  0D80  0855               	movf	??_dio_u8_read_port_value+1,w
  3788  0D81  3A00               	xorlw	0	; case 0
  3789  0D82  1903               	skipnz
  3790  0D83  2D85               	goto	l2916
  3791  0D84  2D96               	goto	l2082
  3792  0D85                     l2916:	
  3793                           
  3794                           ; Switch size 1, requested type "simple"
  3795                           ; Number of cases is 5, Range of values is 0 to 4
  3796                           ; switch strategies available:
  3797                           ; Name         Instructions Cycles
  3798                           ; simple_byte           16     9 (average)
  3799                           ; direct_byte           23     8 (fixed)
  3800                           ; jumptable            260     6 (fixed)
  3801                           ;	Chosen strategy is simple_byte
  3802  0D85  0854               	movf	??_dio_u8_read_port_value,w
  3803  0D86  3A00               	xorlw	0	; case 0
  3804  0D87  1903               	skipnz
  3805  0D88  2D73               	goto	l2048
  3806  0D89  3A01               	xorlw	1	; case 1
  3807  0D8A  1903               	skipnz
  3808  0D8B  2D75               	goto	l2054
  3809  0D8C  3A03               	xorlw	3	; case 2
  3810  0D8D  1903               	skipnz
  3811  0D8E  2D77               	goto	l2060
  3812  0D8F  3A01               	xorlw	1	; case 3
  3813  0D90  1903               	skipnz
  3814  0D91  2D79               	goto	l2066
  3815  0D92  3A07               	xorlw	7	; case 4
  3816  0D93  1903               	skipnz
  3817  0D94  2D7B               	goto	l2072
  3818  0D95  2D96               	goto	l2082
  3819  0D96                     l2082:	
  3820                           
  3821                           ;dio.c: 71:  return 0;
  3822  0D96  3000               	movlw	0
  3823  0D97                     l83:	
  3824  0D97  0008               	return
  3825  0D98                     __end_of_dio_u8_read_port_value:	
  3826                           
  3827                           	psect	text17
  3828  04F7                     __ptext17:	
  3829 ;; *************** function _sch_u8_add_task *****************
  3830 ;; Defined at:
  3831 ;;		line 49 in file "scheduler.c"
  3832 ;; Parameters:    Size  Location     Type
  3833 ;;  taskFunction    1    wreg     PTR FTN()void 
  3834 ;;		 -> ssd_vid_update(1), display_vid_update(1), counter_vid_update(1), 
  3835 ;;  delay           4   10[BANK0 ] const unsigned long 
  3836 ;;  period          4   14[BANK0 ] const unsigned long 
  3837 ;; Auto vars:     Size  Location     Type
  3838 ;;  taskFunction    1   20[BANK0 ] PTR FTN()void 
  3839 ;;		 -> ssd_vid_update(1), display_vid_update(1), counter_vid_update(1), 
  3840 ;;  index           1   21[BANK0 ] unsigned char 
  3841 ;; Return value:  Size  Location     Type
  3842 ;;                  1    wreg      unsigned char 
  3843 ;; Registers used:
  3844 ;;		wreg, fsr0l, fsr0h, status,2, status,0, pclath, cstack
  3845 ;; Tracked objects:
  3846 ;;		On entry : 0/0
  3847 ;;		On exit  : 0/0
  3848 ;;		Unchanged: 0/0
  3849 ;; Data sizes:     COMMON   BANK0   BANK1   BANK3   BANK2
  3850 ;;      Params:         0       8       0       0       0
  3851 ;;      Locals:         0       2       0       0       0
  3852 ;;      Temps:          0       2       0       0       0
  3853 ;;      Totals:         0      12       0       0       0
  3854 ;;Total ram usage:       12 bytes
  3855 ;; Hardware stack levels used:    1
  3856 ;; Hardware stack levels required when called:    4
  3857 ;; This function calls:
  3858 ;;		___bmul
  3859 ;; This function is called by:
  3860 ;;		_main
  3861 ;; This function uses a non-reentrant model
  3862 ;;
  3863                           
  3864                           
  3865                           ;psect for function _sch_u8_add_task
  3866  04F7                     _sch_u8_add_task:	
  3867                           
  3868                           ;incstack = 0
  3869                           ; Regs used in _sch_u8_add_task: [wreg-fsr0h+status,2+status,0+pclath+cstack]
  3870                           ;sch_u8_add_task@taskFunction stored from wreg
  3871  04F7  1283               	bcf	3,5	;RP0=0, select bank0
  3872  04F8  1303               	bcf	3,6	;RP1=0, select bank0
  3873  04F9  00E2               	movwf	sch_u8_add_task@taskFunction
  3874  04FA                     l2592:	
  3875                           
  3876                           ;scheduler.c: 49: u8 sch_u8_add_task(void ( * taskFunction)(),;scheduler.c: 50:         
      +                          const u64 delay,;scheduler.c: 51:         const u64 period) {;scheduler.c: 52:     u8 in
      +                          dex = 0;
  3877  04FA  01E3               	clrf	sch_u8_add_task@index
  3878                           
  3879                           ;scheduler.c: 55:     while ((sch_tasks[index].taskFunction != 0) && (index < 3)) {
  3880  04FB  2D00               	goto	l2596
  3881  04FC                     l2594:	
  3882                           
  3883                           ;scheduler.c: 56:         index++;
  3884  04FC  3001               	movlw	1
  3885  04FD  00E0               	movwf	??_sch_u8_add_task
  3886  04FE  0860               	movf	??_sch_u8_add_task,w
  3887  04FF  07E3               	addwf	sch_u8_add_task@index,f
  3888  0500                     l2596:	
  3889                           
  3890                           ;scheduler.c: 55:     while ((sch_tasks[index].taskFunction != 0) && (index < 3)) {
  3891  0500  300D               	movlw	13
  3892  0501  00E0               	movwf	??_sch_u8_add_task
  3893  0502  0860               	movf	??_sch_u8_add_task,w
  3894  0503  00D4               	movwf	___bmul@multiplicand
  3895  0504  0863               	movf	sch_u8_add_task@index,w
  3896  0505  120A  158A  2501  120A  118A  	fcall	___bmul
  3897  050A  3E20               	addlw	(low (_sch_tasks| 0))& (0+255)
  3898  050B  0084               	movwf	4
  3899  050C  1383               	bcf	3,7	;select IRP bank0
  3900  050D  0800               	movf	0,w
  3901  050E  1903               	btfsc	3,2
  3902  050F  2D11               	goto	u2101
  3903  0510  2D12               	goto	u2100
  3904  0511                     u2101:	
  3905  0511  2D1A               	goto	l2600
  3906  0512                     u2100:	
  3907  0512                     l2598:	
  3908  0512  3003               	movlw	3
  3909  0513  1283               	bcf	3,5	;RP0=0, select bank0
  3910  0514  1303               	bcf	3,6	;RP1=0, select bank0
  3911  0515  0263               	subwf	sch_u8_add_task@index,w
  3912  0516  1C03               	skipc
  3913  0517  2D19               	goto	u2111
  3914  0518  2D1A               	goto	u2110
  3915  0519                     u2111:	
  3916  0519  2CFC               	goto	l2594
  3917  051A                     u2110:	
  3918  051A                     l2600:	
  3919                           
  3920                           ;scheduler.c: 60:     if (index == 3) {
  3921  051A  3003               	movlw	3
  3922  051B  1283               	bcf	3,5	;RP0=0, select bank0
  3923  051C  1303               	bcf	3,6	;RP1=0, select bank0
  3924  051D  0663               	xorwf	sch_u8_add_task@index,w
  3925  051E  1D03               	btfss	3,2
  3926  051F  2D21               	goto	u2121
  3927  0520  2D22               	goto	u2120
  3928  0521                     u2121:	
  3929  0521  2D23               	goto	l2604
  3930  0522                     u2120:	
  3931  0522  2D82               	goto	l351
  3932  0523                     l2604:	
  3933                           
  3934                           ;scheduler.c: 66:     sch_tasks[index].taskFunction = taskFunction;
  3935  0523  0862               	movf	sch_u8_add_task@taskFunction,w
  3936  0524  00E0               	movwf	??_sch_u8_add_task
  3937  0525  300D               	movlw	13
  3938  0526  00E1               	movwf	??_sch_u8_add_task+1
  3939  0527  0861               	movf	??_sch_u8_add_task+1,w
  3940  0528  00D4               	movwf	___bmul@multiplicand
  3941  0529  0863               	movf	sch_u8_add_task@index,w
  3942  052A  120A  158A  2501  120A  118A  	fcall	___bmul
  3943  052F  3E20               	addlw	(low (_sch_tasks| 0))& (0+255)
  3944  0530  0084               	movwf	4
  3945  0531  1283               	bcf	3,5	;RP0=0, select bank0
  3946  0532  1303               	bcf	3,6	;RP1=0, select bank0
  3947  0533  0860               	movf	??_sch_u8_add_task,w
  3948  0534  1383               	bcf	3,7	;select IRP bank0
  3949  0535  0080               	movwf	0
  3950                           
  3951                           ;scheduler.c: 67:     sch_tasks[index].delay = delay;
  3952  0536  300D               	movlw	13
  3953  0537  00E0               	movwf	??_sch_u8_add_task
  3954  0538  0860               	movf	??_sch_u8_add_task,w
  3955  0539  00D4               	movwf	___bmul@multiplicand
  3956  053A  0863               	movf	sch_u8_add_task@index,w
  3957  053B  120A  158A  2501  120A  118A  	fcall	___bmul
  3958  0540  3E21               	addlw	(low ((_sch_tasks| 0+1)))& (0+255)
  3959  0541  0084               	movwf	4
  3960  0542  1283               	bcf	3,5	;RP0=0, select bank0
  3961  0543  1303               	bcf	3,6	;RP1=0, select bank0
  3962  0544  0858               	movf	sch_u8_add_task@delay,w
  3963  0545  1383               	bcf	3,7	;select IRP bank0
  3964  0546  0080               	movwf	0
  3965  0547  0A84               	incf	4,f
  3966  0548  0859               	movf	sch_u8_add_task@delay+1,w
  3967  0549  0080               	movwf	0
  3968  054A  0A84               	incf	4,f
  3969  054B  085A               	movf	sch_u8_add_task@delay+2,w
  3970  054C  0080               	movwf	0
  3971  054D  0A84               	incf	4,f
  3972  054E  085B               	movf	sch_u8_add_task@delay+3,w
  3973  054F  0080               	movwf	0
  3974                           
  3975                           ;scheduler.c: 68:     sch_tasks[index].period = period;
  3976  0550  300D               	movlw	13
  3977  0551  00E0               	movwf	??_sch_u8_add_task
  3978  0552  0860               	movf	??_sch_u8_add_task,w
  3979  0553  00D4               	movwf	___bmul@multiplicand
  3980  0554  0863               	movf	sch_u8_add_task@index,w
  3981  0555  120A  158A  2501  120A  118A  	fcall	___bmul
  3982  055A  3E25               	addlw	(low ((_sch_tasks| 0+5)))& (0+255)
  3983  055B  0084               	movwf	4
  3984  055C  1283               	bcf	3,5	;RP0=0, select bank0
  3985  055D  1303               	bcf	3,6	;RP1=0, select bank0
  3986  055E  085C               	movf	sch_u8_add_task@period,w
  3987  055F  1383               	bcf	3,7	;select IRP bank0
  3988  0560  0080               	movwf	0
  3989  0561  0A84               	incf	4,f
  3990  0562  085D               	movf	sch_u8_add_task@period+1,w
  3991  0563  0080               	movwf	0
  3992  0564  0A84               	incf	4,f
  3993  0565  085E               	movf	sch_u8_add_task@period+2,w
  3994  0566  0080               	movwf	0
  3995  0567  0A84               	incf	4,f
  3996  0568  085F               	movf	sch_u8_add_task@period+3,w
  3997  0569  0080               	movwf	0
  3998                           
  3999                           ;scheduler.c: 69:     sch_tasks[index].runMe = 0;
  4000  056A  300D               	movlw	13
  4001  056B  00E0               	movwf	??_sch_u8_add_task
  4002  056C  0860               	movf	??_sch_u8_add_task,w
  4003  056D  00D4               	movwf	___bmul@multiplicand
  4004  056E  0863               	movf	sch_u8_add_task@index,w
  4005  056F  120A  158A  2501  120A  118A  	fcall	___bmul
  4006  0574  3E29               	addlw	(low ((_sch_tasks| 0+9)))& (0+255)
  4007  0575  0084               	movwf	4
  4008  0576  3000               	movlw	0
  4009  0577  1383               	bcf	3,7	;select IRP bank0
  4010  0578  0080               	movwf	0
  4011  0579  0A84               	incf	4,f
  4012  057A  3000               	movlw	0
  4013  057B  0080               	movwf	0
  4014  057C  0A84               	incf	4,f
  4015  057D  3000               	movlw	0
  4016  057E  0080               	movwf	0
  4017  057F  0A84               	incf	4,f
  4018  0580  3000               	movlw	0
  4019  0581  0080               	movwf	0
  4020  0582                     l351:	
  4021  0582  0008               	return
  4022  0583                     __end_of_sch_u8_add_task:	
  4023                           
  4024                           	psect	text18
  4025  0D01                     __ptext18:	
  4026 ;; *************** function ___bmul *****************
  4027 ;; Defined at:
  4028 ;;		line 4 in file "C:\Program Files (x86)\Microchip\xc8\v2.10\pic\sources\c90\common\Umul8.c"
  4029 ;; Parameters:    Size  Location     Type
  4030 ;;  multiplier      1    wreg     unsigned char 
  4031 ;;  multiplicand    1    6[BANK0 ] unsigned char 
  4032 ;; Auto vars:     Size  Location     Type
  4033 ;;  multiplier      1    9[BANK0 ] unsigned char 
  4034 ;;  product         1    8[BANK0 ] unsigned char 
  4035 ;; Return value:  Size  Location     Type
  4036 ;;                  1    wreg      unsigned char 
  4037 ;; Registers used:
  4038 ;;		wreg, status,2, status,0
  4039 ;; Tracked objects:
  4040 ;;		On entry : 0/0
  4041 ;;		On exit  : 0/0
  4042 ;;		Unchanged: 0/0
  4043 ;; Data sizes:     COMMON   BANK0   BANK1   BANK3   BANK2
  4044 ;;      Params:         0       1       0       0       0
  4045 ;;      Locals:         0       2       0       0       0
  4046 ;;      Temps:          0       1       0       0       0
  4047 ;;      Totals:         0       4       0       0       0
  4048 ;;Total ram usage:        4 bytes
  4049 ;; Hardware stack levels used:    1
  4050 ;; Hardware stack levels required when called:    3
  4051 ;; This function calls:
  4052 ;;		Nothing
  4053 ;; This function is called by:
  4054 ;;		_sch_update
  4055 ;;		_sch_u8_add_task
  4056 ;;		_sch_vid_dispatch_tasks
  4057 ;;		_sch_vid_delete_task
  4058 ;; This function uses a non-reentrant model
  4059 ;;
  4060                           
  4061                           
  4062                           ;psect for function ___bmul
  4063  0D01                     ___bmul:	
  4064                           
  4065                           ;incstack = 0
  4066                           ; Regs used in ___bmul: [wreg+status,2+status,0]
  4067                           ;___bmul@multiplier stored from wreg
  4068  0D01  1283               	bcf	3,5	;RP0=0, select bank0
  4069  0D02  1303               	bcf	3,6	;RP1=0, select bank0
  4070  0D03  00D7               	movwf	___bmul@multiplier
  4071  0D04                     l2348:	
  4072  0D04  01D6               	clrf	___bmul@product
  4073  0D05                     l2350:	
  4074  0D05  1C57               	btfss	___bmul@multiplier,0
  4075  0D06  2D08               	goto	u1631
  4076  0D07  2D09               	goto	u1630
  4077  0D08                     u1631:	
  4078  0D08  2D0D               	goto	l2354
  4079  0D09                     u1630:	
  4080  0D09                     l2352:	
  4081  0D09  0854               	movf	___bmul@multiplicand,w
  4082  0D0A  00D5               	movwf	??___bmul
  4083  0D0B  0855               	movf	??___bmul,w
  4084  0D0C  07D6               	addwf	___bmul@product,f
  4085  0D0D                     l2354:	
  4086  0D0D  1003               	clrc
  4087  0D0E  0DD4               	rlf	___bmul@multiplicand,f
  4088  0D0F                     l2356:	
  4089  0D0F  1003               	clrc
  4090  0D10  0CD7               	rrf	___bmul@multiplier,f
  4091  0D11  0857               	movf	___bmul@multiplier,w
  4092  0D12  1D03               	btfss	3,2
  4093  0D13  2D15               	goto	u1641
  4094  0D14  2D16               	goto	u1640
  4095  0D15                     u1641:	
  4096  0D15  2D05               	goto	l2350
  4097  0D16                     u1640:	
  4098  0D16                     l2358:	
  4099  0D16  0856               	movf	___bmul@product,w
  4100  0D17                     l642:	
  4101  0D17  0008               	return
  4102  0D18                     __end_of___bmul:	
  4103                           
  4104                           	psect	text19
  4105  0FA7                     __ptext19:	
  4106 ;; *************** function _display_init *****************
  4107 ;; Defined at:
  4108 ;;		line 22 in file "display.c"
  4109 ;; Parameters:    Size  Location     Type
  4110 ;;		None
  4111 ;; Auto vars:     Size  Location     Type
  4112 ;;		None
  4113 ;; Return value:  Size  Location     Type
  4114 ;;                  1    wreg      void 
  4115 ;; Registers used:
  4116 ;;		wreg, fsr0l, fsr0h, status,2, status,0, pclath, cstack
  4117 ;; Tracked objects:
  4118 ;;		On entry : 0/0
  4119 ;;		On exit  : 0/0
  4120 ;;		Unchanged: 0/0
  4121 ;; Data sizes:     COMMON   BANK0   BANK1   BANK3   BANK2
  4122 ;;      Params:         0       0       0       0       0
  4123 ;;      Locals:         0       0       0       0       0
  4124 ;;      Temps:          0       1       0       0       0
  4125 ;;      Totals:         0       1       0       0       0
  4126 ;;Total ram usage:        1 bytes
  4127 ;; Hardware stack levels used:    1
  4128 ;; Hardware stack levels required when called:    7
  4129 ;; This function calls:
  4130 ;;		_counter_u8_get_counter
  4131 ;;		_counter_vid_init
  4132 ;;		_dio_vid_set_pin_direction
  4133 ;;		_dio_vid_set_pin_value
  4134 ;;		_dio_vid_set_port_value
  4135 ;;		_ssd_vid_init
  4136 ;;		_ssd_vid_set_state
  4137 ;;		_ssd_vid_set_symbol
  4138 ;; This function is called by:
  4139 ;;		_main
  4140 ;; This function uses a non-reentrant model
  4141 ;;
  4142                           
  4143                           
  4144                           ;psect for function _display_init
  4145  0FA7                     _display_init:	
  4146  0FA7                     l2570:	
  4147                           ;incstack = 0
  4148                           ; Regs used in _display_init: [wreg-fsr0h+status,2+status,0+pclath+cstack]
  4149                           
  4150                           
  4151                           ;display.c: 23:     counter_vid_init();
  4152  0FA7  120A  158A  270A  120A  158A  	fcall	_counter_vid_init
  4153  0FAC                     l2572:	
  4154                           
  4155                           ;display.c: 25:     ssd_vid_set_state(1);
  4156  0FAC  3001               	movlw	1
  4157  0FAD  120A  158A  244F  120A  158A  	fcall	_ssd_vid_set_state
  4158  0FB2                     l2574:	
  4159                           
  4160                           ;display.c: 26:     ssd_vid_set_symbol(counter_u8_get_counter());
  4161  0FB2  120A  158A  2447  120A  158A  	fcall	_counter_u8_get_counter
  4162  0FB7  120A  158A  248C  120A  158A  	fcall	_ssd_vid_set_symbol
  4163                           
  4164                           ;display.c: 27:     dio_vid_set_port_value(B, 0x00);
  4165  0FBC  1283               	bcf	3,5	;RP0=0, select bank0
  4166  0FBD  1303               	bcf	3,6	;RP1=0, select bank0
  4167  0FBE  01D7               	clrf	dio_vid_set_port_value@value
  4168  0FBF  3001               	movlw	1
  4169  0FC0  120A  158A  25ED  120A  158A  	fcall	_dio_vid_set_port_value
  4170                           
  4171                           ;display.c: 29:     ssd_vid_init();
  4172  0FC5  120A  158A  254B  120A  158A  	fcall	_ssd_vid_init
  4173                           
  4174                           ;display.c: 31:     dio_vid_set_pin_direction(B, 3, 0x00);
  4175  0FCA  3003               	movlw	3
  4176  0FCB  1283               	bcf	3,5	;RP0=0, select bank0
  4177  0FCC  1303               	bcf	3,6	;RP1=0, select bank0
  4178  0FCD  00DF               	movwf	??_display_init
  4179  0FCE  085F               	movf	??_display_init,w
  4180  0FCF  00D4               	movwf	dio_vid_set_pin_direction@index
  4181  0FD0  01D5               	clrf	dio_vid_set_pin_direction@direction
  4182  0FD1  3001               	movlw	1
  4183  0FD2  120A  118A  204F  120A  158A  	fcall	_dio_vid_set_pin_direction
  4184                           
  4185                           ;display.c: 32:     dio_vid_set_pin_direction(B, 4, 0x00);
  4186  0FD7  3004               	movlw	4
  4187  0FD8  1283               	bcf	3,5	;RP0=0, select bank0
  4188  0FD9  1303               	bcf	3,6	;RP1=0, select bank0
  4189  0FDA  00DF               	movwf	??_display_init
  4190  0FDB  085F               	movf	??_display_init,w
  4191  0FDC  00D4               	movwf	dio_vid_set_pin_direction@index
  4192  0FDD  01D5               	clrf	dio_vid_set_pin_direction@direction
  4193  0FDE  3001               	movlw	1
  4194  0FDF  120A  118A  204F  120A  158A  	fcall	_dio_vid_set_pin_direction
  4195                           
  4196                           ;display.c: 33:     dio_vid_set_pin_direction(B, 5, 0x00);
  4197  0FE4  3005               	movlw	5
  4198  0FE5  1283               	bcf	3,5	;RP0=0, select bank0
  4199  0FE6  1303               	bcf	3,6	;RP1=0, select bank0
  4200  0FE7  00DF               	movwf	??_display_init
  4201  0FE8  085F               	movf	??_display_init,w
  4202  0FE9  00D4               	movwf	dio_vid_set_pin_direction@index
  4203  0FEA  01D5               	clrf	dio_vid_set_pin_direction@direction
  4204  0FEB  3001               	movlw	1
  4205  0FEC  120A  118A  204F  120A  158A  	fcall	_dio_vid_set_pin_direction
  4206                           
  4207                           ;display.c: 34:     dio_vid_set_pin_value(B, 5, 0x01);
  4208  0FF1  3005               	movlw	5
  4209  0FF2  1283               	bcf	3,5	;RP0=0, select bank0
  4210  0FF3  1303               	bcf	3,6	;RP1=0, select bank0
  4211  0FF4  00DF               	movwf	??_display_init
  4212  0FF5  085F               	movf	??_display_init,w
  4213  0FF6  00D4               	movwf	dio_vid_set_pin_value@index
  4214  0FF7  01D5               	clrf	dio_vid_set_pin_value@value
  4215  0FF8  0AD5               	incf	dio_vid_set_pin_value@value,f
  4216  0FF9  3001               	movlw	1
  4217  0FFA  120A  118A  2144  120A  158A  	fcall	_dio_vid_set_pin_value
  4218  0FFF                     l168:	
  4219  0FFF  0008               	return
  4220  1000                     __end_of_display_init:	
  4221                           
  4222                           	psect	text20
  4223  0C8C                     __ptext20:	
  4224 ;; *************** function _ssd_vid_set_symbol *****************
  4225 ;; Defined at:
  4226 ;;		line 57 in file "ssd.c"
  4227 ;; Parameters:    Size  Location     Type
  4228 ;;  symbol          1    wreg     unsigned char 
  4229 ;; Auto vars:     Size  Location     Type
  4230 ;;  symbol          1    8[BANK0 ] unsigned char 
  4231 ;; Return value:  Size  Location     Type
  4232 ;;                  1    wreg      void 
  4233 ;; Registers used:
  4234 ;;		wreg
  4235 ;; Tracked objects:
  4236 ;;		On entry : 0/0
  4237 ;;		On exit  : 0/0
  4238 ;;		Unchanged: 0/0
  4239 ;; Data sizes:     COMMON   BANK0   BANK1   BANK3   BANK2
  4240 ;;      Params:         0       0       0       0       0
  4241 ;;      Locals:         0       1       0       0       0
  4242 ;;      Temps:          0       2       0       0       0
  4243 ;;      Totals:         0       3       0       0       0
  4244 ;;Total ram usage:        3 bytes
  4245 ;; Hardware stack levels used:    1
  4246 ;; Hardware stack levels required when called:    3
  4247 ;; This function calls:
  4248 ;;		Nothing
  4249 ;; This function is called by:
  4250 ;;		_counter_vid_update
  4251 ;;		_display_init
  4252 ;;		_display_vid_update
  4253 ;; This function uses a non-reentrant model
  4254 ;;
  4255                           
  4256                           
  4257                           ;psect for function _ssd_vid_set_symbol
  4258  0C8C                     _ssd_vid_set_symbol:	
  4259                           
  4260                           ;incstack = 0
  4261                           ; Regs used in _ssd_vid_set_symbol: [wreg]
  4262                           ;ssd_vid_set_symbol@symbol stored from wreg
  4263  0C8C  1283               	bcf	3,5	;RP0=0, select bank0
  4264  0C8D  1303               	bcf	3,6	;RP1=0, select bank0
  4265  0C8E  00D6               	movwf	ssd_vid_set_symbol@symbol
  4266  0C8F                     l2184:	
  4267                           
  4268                           ;ssd.c: 58:     ssdSymbol = symbol;
  4269  0C8F  0856               	movf	ssd_vid_set_symbol@symbol,w
  4270  0C90  00D4               	movwf	??_ssd_vid_set_symbol
  4271  0C91  01D5               	clrf	??_ssd_vid_set_symbol+1
  4272  0C92  0854               	movf	??_ssd_vid_set_symbol,w
  4273  0C93  00C7               	movwf	_ssdSymbol
  4274  0C94  0855               	movf	??_ssd_vid_set_symbol+1,w
  4275  0C95  00C8               	movwf	_ssdSymbol+1
  4276  0C96                     l393:	
  4277  0C96  0008               	return
  4278  0C97                     __end_of_ssd_vid_set_symbol:	
  4279                           
  4280                           	psect	text21
  4281  0C4F                     __ptext21:	
  4282 ;; *************** function _ssd_vid_set_state *****************
  4283 ;; Defined at:
  4284 ;;		line 65 in file "ssd.c"
  4285 ;; Parameters:    Size  Location     Type
  4286 ;;  state           1    wreg     unsigned char 
  4287 ;; Auto vars:     Size  Location     Type
  4288 ;;  state           1    7[BANK0 ] unsigned char 
  4289 ;; Return value:  Size  Location     Type
  4290 ;;                  1    wreg      void 
  4291 ;; Registers used:
  4292 ;;		wreg
  4293 ;; Tracked objects:
  4294 ;;		On entry : 0/0
  4295 ;;		On exit  : 0/0
  4296 ;;		Unchanged: 0/0
  4297 ;; Data sizes:     COMMON   BANK0   BANK1   BANK3   BANK2
  4298 ;;      Params:         0       0       0       0       0
  4299 ;;      Locals:         0       1       0       0       0
  4300 ;;      Temps:          0       1       0       0       0
  4301 ;;      Totals:         0       2       0       0       0
  4302 ;;Total ram usage:        2 bytes
  4303 ;; Hardware stack levels used:    1
  4304 ;; Hardware stack levels required when called:    3
  4305 ;; This function calls:
  4306 ;;		Nothing
  4307 ;; This function is called by:
  4308 ;;		_display_init
  4309 ;;		_display_vid_update
  4310 ;; This function uses a non-reentrant model
  4311 ;;
  4312                           
  4313                           
  4314                           ;psect for function _ssd_vid_set_state
  4315  0C4F                     _ssd_vid_set_state:	
  4316                           
  4317                           ;incstack = 0
  4318                           ; Regs used in _ssd_vid_set_state: [wreg]
  4319                           ;ssd_vid_set_state@state stored from wreg
  4320  0C4F  1283               	bcf	3,5	;RP0=0, select bank0
  4321  0C50  1303               	bcf	3,6	;RP1=0, select bank0
  4322  0C51  00D5               	movwf	ssd_vid_set_state@state
  4323  0C52                     l2286:	
  4324                           
  4325                           ;ssd.c: 66:     ssdState = state;
  4326  0C52  0855               	movf	ssd_vid_set_state@state,w
  4327  0C53  00D4               	movwf	??_ssd_vid_set_state
  4328  0C54  0854               	movf	??_ssd_vid_set_state,w
  4329  0C55  00E5               	movwf	_ssdState
  4330  0C56                     l399:	
  4331  0C56  0008               	return
  4332  0C57                     __end_of_ssd_vid_set_state:	
  4333                           
  4334                           	psect	text22
  4335  0D4B                     __ptext22:	
  4336 ;; *************** function _ssd_vid_init *****************
  4337 ;; Defined at:
  4338 ;;		line 24 in file "ssd.c"
  4339 ;; Parameters:    Size  Location     Type
  4340 ;;		None
  4341 ;; Auto vars:     Size  Location     Type
  4342 ;;		None
  4343 ;; Return value:  Size  Location     Type
  4344 ;;                  1    wreg      void 
  4345 ;; Registers used:
  4346 ;;		wreg, fsr0l, fsr0h, status,2, status,0, pclath, cstack
  4347 ;; Tracked objects:
  4348 ;;		On entry : 0/0
  4349 ;;		On exit  : 0/0
  4350 ;;		Unchanged: 0/0
  4351 ;; Data sizes:     COMMON   BANK0   BANK1   BANK3   BANK2
  4352 ;;      Params:         0       0       0       0       0
  4353 ;;      Locals:         0       0       0       0       0
  4354 ;;      Temps:          0       1       0       0       0
  4355 ;;      Totals:         0       1       0       0       0
  4356 ;;Total ram usage:        1 bytes
  4357 ;; Hardware stack levels used:    1
  4358 ;; Hardware stack levels required when called:    4
  4359 ;; This function calls:
  4360 ;;		_dio_vid_set_pin_direction
  4361 ;;		_dio_vid_set_port_direction
  4362 ;; This function is called by:
  4363 ;;		_display_init
  4364 ;; This function uses a non-reentrant model
  4365 ;;
  4366                           
  4367                           
  4368                           ;psect for function _ssd_vid_init
  4369  0D4B                     _ssd_vid_init:	
  4370  0D4B                     l2496:	
  4371                           ;incstack = 0
  4372                           ; Regs used in _ssd_vid_init: [wreg-fsr0h+status,2+status,0+pclath+cstack]
  4373                           
  4374                           
  4375                           ;ssd.c: 25:     dio_vid_set_port_direction(D, 0);
  4376  0D4B  1283               	bcf	3,5	;RP0=0, select bank0
  4377  0D4C  1303               	bcf	3,6	;RP1=0, select bank0
  4378  0D4D  01D4               	clrf	dio_vid_set_port_direction@direction
  4379  0D4E  3003               	movlw	3
  4380  0D4F  120A  158A  261A  120A  158A  	fcall	_dio_vid_set_port_direction
  4381                           
  4382                           ;ssd.c: 26:     dio_vid_set_pin_direction(A, 2, 0);
  4383  0D54  3002               	movlw	2
  4384  0D55  1283               	bcf	3,5	;RP0=0, select bank0
  4385  0D56  1303               	bcf	3,6	;RP1=0, select bank0
  4386  0D57  00D9               	movwf	??_ssd_vid_init
  4387  0D58  0859               	movf	??_ssd_vid_init,w
  4388  0D59  00D4               	movwf	dio_vid_set_pin_direction@index
  4389  0D5A  01D5               	clrf	dio_vid_set_pin_direction@direction
  4390  0D5B  3000               	movlw	0
  4391  0D5C  120A  118A  204F  120A  158A  	fcall	_dio_vid_set_pin_direction
  4392                           
  4393                           ;ssd.c: 27:     dio_vid_set_pin_direction(A, 3, 0);
  4394  0D61  3003               	movlw	3
  4395  0D62  1283               	bcf	3,5	;RP0=0, select bank0
  4396  0D63  1303               	bcf	3,6	;RP1=0, select bank0
  4397  0D64  00D9               	movwf	??_ssd_vid_init
  4398  0D65  0859               	movf	??_ssd_vid_init,w
  4399  0D66  00D4               	movwf	dio_vid_set_pin_direction@index
  4400  0D67  01D5               	clrf	dio_vid_set_pin_direction@direction
  4401  0D68  3000               	movlw	0
  4402  0D69  120A  118A  204F  120A  158A  	fcall	_dio_vid_set_pin_direction
  4403  0D6E                     l381:	
  4404  0D6E  0008               	return
  4405  0D6F                     __end_of_ssd_vid_init:	
  4406                           
  4407                           	psect	text23
  4408  0E1A                     __ptext23:	
  4409 ;; *************** function _dio_vid_set_port_direction *****************
  4410 ;; Defined at:
  4411 ;;		line 12 in file "dio.c"
  4412 ;; Parameters:    Size  Location     Type
  4413 ;;  portNumber      1    wreg     unsigned char 
  4414 ;;  direction       1    6[BANK0 ] unsigned char 
  4415 ;; Auto vars:     Size  Location     Type
  4416 ;;  portNumber      1    9[BANK0 ] unsigned char 
  4417 ;; Return value:  Size  Location     Type
  4418 ;;                  1    wreg      void 
  4419 ;; Registers used:
  4420 ;;		wreg, fsr0l, fsr0h, status,2, status,0
  4421 ;; Tracked objects:
  4422 ;;		On entry : 0/0
  4423 ;;		On exit  : 0/0
  4424 ;;		Unchanged: 0/0
  4425 ;; Data sizes:     COMMON   BANK0   BANK1   BANK3   BANK2
  4426 ;;      Params:         0       1       0       0       0
  4427 ;;      Locals:         0       1       0       0       0
  4428 ;;      Temps:          0       2       0       0       0
  4429 ;;      Totals:         0       4       0       0       0
  4430 ;;Total ram usage:        4 bytes
  4431 ;; Hardware stack levels used:    1
  4432 ;; Hardware stack levels required when called:    3
  4433 ;; This function calls:
  4434 ;;		Nothing
  4435 ;; This function is called by:
  4436 ;;		_ssd_vid_init
  4437 ;; This function uses a non-reentrant model
  4438 ;;
  4439                           
  4440                           
  4441                           ;psect for function _dio_vid_set_port_direction
  4442  0E1A                     _dio_vid_set_port_direction:	
  4443                           
  4444                           ;incstack = 0
  4445                           ; Regs used in _dio_vid_set_port_direction: [wreg-fsr0h+status,2+status,0]
  4446                           ;dio_vid_set_port_direction@portNumber stored from wreg
  4447  0E1A  1283               	bcf	3,5	;RP0=0, select bank0
  4448  0E1B  1303               	bcf	3,6	;RP1=0, select bank0
  4449  0E1C  00D7               	movwf	dio_vid_set_port_direction@portNumber
  4450  0E1D                     l2190:	
  4451                           
  4452                           ;dio.c: 13:  switch (portNumber) {
  4453  0E1D  2E37               	goto	l2204
  4454  0E1E                     l2192:	
  4455                           
  4456                           ;dio.c: 15:   TRISA = direction;
  4457  0E1E  0854               	movf	dio_vid_set_port_direction@direction,w
  4458  0E1F  1683               	bsf	3,5	;RP0=1, select bank1
  4459  0E20  1303               	bcf	3,6	;RP1=0, select bank1
  4460  0E21  0085               	movwf	5	;volatile
  4461                           
  4462                           ;dio.c: 16:   break;
  4463  0E22  2E50               	goto	l68
  4464  0E23                     l2194:	
  4465                           
  4466                           ;dio.c: 18:   TRISB = direction;
  4467  0E23  0854               	movf	dio_vid_set_port_direction@direction,w
  4468  0E24  1683               	bsf	3,5	;RP0=1, select bank1
  4469  0E25  1303               	bcf	3,6	;RP1=0, select bank1
  4470  0E26  0086               	movwf	6	;volatile
  4471                           
  4472                           ;dio.c: 19:   break;
  4473  0E27  2E50               	goto	l68
  4474  0E28                     l2196:	
  4475                           
  4476                           ;dio.c: 21:   TRISC = direction;
  4477  0E28  0854               	movf	dio_vid_set_port_direction@direction,w
  4478  0E29  1683               	bsf	3,5	;RP0=1, select bank1
  4479  0E2A  1303               	bcf	3,6	;RP1=0, select bank1
  4480  0E2B  0087               	movwf	7	;volatile
  4481                           
  4482                           ;dio.c: 22:   break;
  4483  0E2C  2E50               	goto	l68
  4484  0E2D                     l2198:	
  4485                           
  4486                           ;dio.c: 24:   TRISD = direction;
  4487  0E2D  0854               	movf	dio_vid_set_port_direction@direction,w
  4488  0E2E  1683               	bsf	3,5	;RP0=1, select bank1
  4489  0E2F  1303               	bcf	3,6	;RP1=0, select bank1
  4490  0E30  0088               	movwf	8	;volatile
  4491                           
  4492                           ;dio.c: 25:   break;
  4493  0E31  2E50               	goto	l68
  4494  0E32                     l2200:	
  4495                           
  4496                           ;dio.c: 27:   TRISE = direction;
  4497  0E32  0854               	movf	dio_vid_set_port_direction@direction,w
  4498  0E33  1683               	bsf	3,5	;RP0=1, select bank1
  4499  0E34  1303               	bcf	3,6	;RP1=0, select bank1
  4500  0E35  0089               	movwf	9	;volatile
  4501                           
  4502                           ;dio.c: 28:   break;
  4503  0E36  2E50               	goto	l68
  4504  0E37                     l2204:	
  4505  0E37  0857               	movf	dio_vid_set_port_direction@portNumber,w
  4506  0E38  00D5               	movwf	??_dio_vid_set_port_direction
  4507  0E39  01D6               	clrf	??_dio_vid_set_port_direction+1
  4508                           
  4509                           ; Switch on 2 bytes has been partitioned into a top level switch of size 1, and 1 sub-sw
      +                          itches
  4510                           ; Switch size 1, requested type "simple"
  4511                           ; Number of cases is 1, Range of values is 0 to 0
  4512                           ; switch strategies available:
  4513                           ; Name         Instructions Cycles
  4514                           ; simple_byte            4     3 (average)
  4515                           ; direct_byte           11     8 (fixed)
  4516                           ; jumptable            260     6 (fixed)
  4517                           ;	Chosen strategy is simple_byte
  4518  0E3A  0856               	movf	??_dio_vid_set_port_direction+1,w
  4519  0E3B  3A00               	xorlw	0	; case 0
  4520  0E3C  1903               	skipnz
  4521  0E3D  2E3F               	goto	l2918
  4522  0E3E  2E50               	goto	l68
  4523  0E3F                     l2918:	
  4524                           
  4525                           ; Switch size 1, requested type "simple"
  4526                           ; Number of cases is 5, Range of values is 0 to 4
  4527                           ; switch strategies available:
  4528                           ; Name         Instructions Cycles
  4529                           ; simple_byte           16     9 (average)
  4530                           ; direct_byte           23     8 (fixed)
  4531                           ; jumptable            260     6 (fixed)
  4532                           ;	Chosen strategy is simple_byte
  4533  0E3F  0855               	movf	??_dio_vid_set_port_direction,w
  4534  0E40  3A00               	xorlw	0	; case 0
  4535  0E41  1903               	skipnz
  4536  0E42  2E1E               	goto	l2192
  4537  0E43  3A01               	xorlw	1	; case 1
  4538  0E44  1903               	skipnz
  4539  0E45  2E23               	goto	l2194
  4540  0E46  3A03               	xorlw	3	; case 2
  4541  0E47  1903               	skipnz
  4542  0E48  2E28               	goto	l2196
  4543  0E49  3A01               	xorlw	1	; case 3
  4544  0E4A  1903               	skipnz
  4545  0E4B  2E2D               	goto	l2198
  4546  0E4C  3A07               	xorlw	7	; case 4
  4547  0E4D  1903               	skipnz
  4548  0E4E  2E32               	goto	l2200
  4549  0E4F  2E50               	goto	l68
  4550  0E50                     l68:	
  4551  0E50  0008               	return
  4552  0E51                     __end_of_dio_vid_set_port_direction:	
  4553                           
  4554                           	psect	text24
  4555  0DED                     __ptext24:	
  4556 ;; *************** function _dio_vid_set_port_value *****************
  4557 ;; Defined at:
  4558 ;;		line 33 in file "dio.c"
  4559 ;; Parameters:    Size  Location     Type
  4560 ;;  portNumber      1    wreg     unsigned char 
  4561 ;;  value           1    9[BANK0 ] unsigned char 
  4562 ;; Auto vars:     Size  Location     Type
  4563 ;;  portNumber      1   12[BANK0 ] unsigned char 
  4564 ;; Return value:  Size  Location     Type
  4565 ;;                  1    wreg      void 
  4566 ;; Registers used:
  4567 ;;		wreg, fsr0l, fsr0h, status,2, status,0
  4568 ;; Tracked objects:
  4569 ;;		On entry : 0/0
  4570 ;;		On exit  : 0/0
  4571 ;;		Unchanged: 0/0
  4572 ;; Data sizes:     COMMON   BANK0   BANK1   BANK3   BANK2
  4573 ;;      Params:         0       1       0       0       0
  4574 ;;      Locals:         0       1       0       0       0
  4575 ;;      Temps:          0       2       0       0       0
  4576 ;;      Totals:         0       4       0       0       0
  4577 ;;Total ram usage:        4 bytes
  4578 ;; Hardware stack levels used:    1
  4579 ;; Hardware stack levels required when called:    3
  4580 ;; This function calls:
  4581 ;;		Nothing
  4582 ;; This function is called by:
  4583 ;;		_display_init
  4584 ;;		_ssd_vid_update
  4585 ;; This function uses a non-reentrant model
  4586 ;;
  4587                           
  4588                           
  4589                           ;psect for function _dio_vid_set_port_value
  4590  0DED                     _dio_vid_set_port_value:	
  4591                           
  4592                           ;incstack = 0
  4593                           ; Regs used in _dio_vid_set_port_value: [wreg-fsr0h+status,2+status,0]
  4594                           ;dio_vid_set_port_value@portNumber stored from wreg
  4595  0DED  1283               	bcf	3,5	;RP0=0, select bank0
  4596  0DEE  1303               	bcf	3,6	;RP1=0, select bank0
  4597  0DEF  00DA               	movwf	dio_vid_set_port_value@portNumber
  4598  0DF0                     l2212:	
  4599                           
  4600                           ;dio.c: 34:  switch (portNumber) {
  4601  0DF0  2E00               	goto	l2226
  4602  0DF1                     l2214:	
  4603                           
  4604                           ;dio.c: 36:   PORTA = value;
  4605  0DF1  0857               	movf	dio_vid_set_port_value@value,w
  4606  0DF2  0085               	movwf	5	;volatile
  4607                           
  4608                           ;dio.c: 37:   break;
  4609  0DF3  2E19               	goto	l78
  4610  0DF4                     l2216:	
  4611                           
  4612                           ;dio.c: 39:   PORTB = value;
  4613  0DF4  0857               	movf	dio_vid_set_port_value@value,w
  4614  0DF5  0086               	movwf	6	;volatile
  4615                           
  4616                           ;dio.c: 40:   break;
  4617  0DF6  2E19               	goto	l78
  4618  0DF7                     l2218:	
  4619                           
  4620                           ;dio.c: 42:   PORTC = value;
  4621  0DF7  0857               	movf	dio_vid_set_port_value@value,w
  4622  0DF8  0087               	movwf	7	;volatile
  4623                           
  4624                           ;dio.c: 43:   break;
  4625  0DF9  2E19               	goto	l78
  4626  0DFA                     l2220:	
  4627                           
  4628                           ;dio.c: 45:   PORTD = value;
  4629  0DFA  0857               	movf	dio_vid_set_port_value@value,w
  4630  0DFB  0088               	movwf	8	;volatile
  4631                           
  4632                           ;dio.c: 46:   break;
  4633  0DFC  2E19               	goto	l78
  4634  0DFD                     l2222:	
  4635                           
  4636                           ;dio.c: 48:   PORTE = value;
  4637  0DFD  0857               	movf	dio_vid_set_port_value@value,w
  4638  0DFE  0089               	movwf	9	;volatile
  4639                           
  4640                           ;dio.c: 49:   break;
  4641  0DFF  2E19               	goto	l78
  4642  0E00                     l2226:	
  4643  0E00  085A               	movf	dio_vid_set_port_value@portNumber,w
  4644  0E01  00D8               	movwf	??_dio_vid_set_port_value
  4645  0E02  01D9               	clrf	??_dio_vid_set_port_value+1
  4646                           
  4647                           ; Switch on 2 bytes has been partitioned into a top level switch of size 1, and 1 sub-sw
      +                          itches
  4648                           ; Switch size 1, requested type "simple"
  4649                           ; Number of cases is 1, Range of values is 0 to 0
  4650                           ; switch strategies available:
  4651                           ; Name         Instructions Cycles
  4652                           ; simple_byte            4     3 (average)
  4653                           ; direct_byte           11     8 (fixed)
  4654                           ; jumptable            260     6 (fixed)
  4655                           ;	Chosen strategy is simple_byte
  4656  0E03  0859               	movf	??_dio_vid_set_port_value+1,w
  4657  0E04  3A00               	xorlw	0	; case 0
  4658  0E05  1903               	skipnz
  4659  0E06  2E08               	goto	l2920
  4660  0E07  2E19               	goto	l78
  4661  0E08                     l2920:	
  4662                           
  4663                           ; Switch size 1, requested type "simple"
  4664                           ; Number of cases is 5, Range of values is 0 to 4
  4665                           ; switch strategies available:
  4666                           ; Name         Instructions Cycles
  4667                           ; simple_byte           16     9 (average)
  4668                           ; direct_byte           23     8 (fixed)
  4669                           ; jumptable            260     6 (fixed)
  4670                           ;	Chosen strategy is simple_byte
  4671  0E08  0858               	movf	??_dio_vid_set_port_value,w
  4672  0E09  3A00               	xorlw	0	; case 0
  4673  0E0A  1903               	skipnz
  4674  0E0B  2DF1               	goto	l2214
  4675  0E0C  3A01               	xorlw	1	; case 1
  4676  0E0D  1903               	skipnz
  4677  0E0E  2DF4               	goto	l2216
  4678  0E0F  3A03               	xorlw	3	; case 2
  4679  0E10  1903               	skipnz
  4680  0E11  2DF7               	goto	l2218
  4681  0E12  3A01               	xorlw	1	; case 3
  4682  0E13  1903               	skipnz
  4683  0E14  2DFA               	goto	l2220
  4684  0E15  3A07               	xorlw	7	; case 4
  4685  0E16  1903               	skipnz
  4686  0E17  2DFD               	goto	l2222
  4687  0E18  2E19               	goto	l78
  4688  0E19                     l78:	
  4689  0E19  0008               	return
  4690  0E1A                     __end_of_dio_vid_set_port_value:	
  4691                           
  4692                           	psect	text25
  4693  0144                     __ptext25:	
  4694 ;; *************** function _dio_vid_set_pin_value *****************
  4695 ;; Defined at:
  4696 ;;		line 80 in file "dio.c"
  4697 ;; Parameters:    Size  Location     Type
  4698 ;;  portNumber      1    wreg     unsigned char 
  4699 ;;  index           1    6[BANK0 ] unsigned char 
  4700 ;;  value           1    7[BANK0 ] unsigned char 
  4701 ;; Auto vars:     Size  Location     Type
  4702 ;;  portNumber      1   10[BANK0 ] unsigned char 
  4703 ;; Return value:  Size  Location     Type
  4704 ;;                  1    wreg      void 
  4705 ;; Registers used:
  4706 ;;		wreg, fsr0l, fsr0h, status,2, status,0
  4707 ;; Tracked objects:
  4708 ;;		On entry : 0/0
  4709 ;;		On exit  : 0/0
  4710 ;;		Unchanged: 0/0
  4711 ;; Data sizes:     COMMON   BANK0   BANK1   BANK3   BANK2
  4712 ;;      Params:         0       2       0       0       0
  4713 ;;      Locals:         0       1       0       0       0
  4714 ;;      Temps:          0       2       0       0       0
  4715 ;;      Totals:         0       5       0       0       0
  4716 ;;Total ram usage:        5 bytes
  4717 ;; Hardware stack levels used:    1
  4718 ;; Hardware stack levels required when called:    3
  4719 ;; This function calls:
  4720 ;;		Nothing
  4721 ;; This function is called by:
  4722 ;;		_display_init
  4723 ;;		_ssd_vid_update
  4724 ;; This function uses a non-reentrant model
  4725 ;;
  4726                           
  4727                           
  4728                           ;psect for function _dio_vid_set_pin_value
  4729  0144                     _dio_vid_set_pin_value:	
  4730                           
  4731                           ;incstack = 0
  4732                           ; Regs used in _dio_vid_set_pin_value: [wreg-fsr0h+status,2+status,0]
  4733                           ;dio_vid_set_pin_value@portNumber stored from wreg
  4734  0144  1283               	bcf	3,5	;RP0=0, select bank0
  4735  0145  1303               	bcf	3,6	;RP1=0, select bank0
  4736  0146  00D8               	movwf	dio_vid_set_pin_value@portNumber
  4737  0147                     l2234:	
  4738                           
  4739                           ;dio.c: 81:  switch (portNumber) {
  4740  0147  2A0B               	goto	l2278
  4741  0148                     l2236:	
  4742                           
  4743                           ;dio.c: 83:   if (value == 1)
  4744  0148  0355               	decf	dio_vid_set_pin_value@value,w
  4745  0149  1D03               	btfss	3,2
  4746  014A  294C               	goto	u1431
  4747  014B  294D               	goto	u1430
  4748  014C                     u1431:	
  4749  014C  295B               	goto	l2240
  4750  014D                     u1430:	
  4751  014D                     l2238:	
  4752                           
  4753                           ;dio.c: 84:    PORTA|=(1<<index);
  4754  014D  3001               	movlw	1
  4755  014E  00D6               	movwf	??_dio_vid_set_pin_value
  4756  014F  0A54               	incf	dio_vid_set_pin_value@index,w
  4757  0150  2953               	goto	u1444
  4758  0151                     u1445:	
  4759  0151  1003               	clrc
  4760  0152  0DD6               	rlf	??_dio_vid_set_pin_value,f
  4761  0153                     u1444:	
  4762  0153  3EFF               	addlw	-1
  4763  0154  1D03               	skipz
  4764  0155  2951               	goto	u1445
  4765  0156  0856               	movf	??_dio_vid_set_pin_value,w
  4766  0157  00D7               	movwf	??_dio_vid_set_pin_value+1
  4767  0158  0857               	movf	??_dio_vid_set_pin_value+1,w
  4768  0159  0485               	iorwf	5,f	;volatile
  4769  015A  2A24               	goto	l116
  4770  015B                     l2240:	
  4771  015B  0855               	movf	dio_vid_set_pin_value@value,w
  4772  015C  1D03               	btfss	3,2
  4773  015D  295F               	goto	u1451
  4774  015E  2960               	goto	u1450
  4775  015F                     u1451:	
  4776  015F  2A24               	goto	l116
  4777  0160                     u1450:	
  4778  0160                     l2242:	
  4779                           
  4780                           ;dio.c: 86:    PORTA&=~(1<<index);
  4781  0160  3001               	movlw	1
  4782  0161  00D6               	movwf	??_dio_vid_set_pin_value
  4783  0162  0A54               	incf	dio_vid_set_pin_value@index,w
  4784  0163  2966               	goto	u1464
  4785  0164                     u1465:	
  4786  0164  1003               	clrc
  4787  0165  0DD6               	rlf	??_dio_vid_set_pin_value,f
  4788  0166                     u1464:	
  4789  0166  3EFF               	addlw	-1
  4790  0167  1D03               	skipz
  4791  0168  2964               	goto	u1465
  4792  0169  0856               	movf	??_dio_vid_set_pin_value,w
  4793  016A  3AFF               	xorlw	255
  4794  016B  00D7               	movwf	??_dio_vid_set_pin_value+1
  4795  016C  0857               	movf	??_dio_vid_set_pin_value+1,w
  4796  016D  0585               	andwf	5,f	;volatile
  4797  016E  2A24               	goto	l116
  4798  016F                     l2244:	
  4799                           
  4800                           ;dio.c: 89:   if (value == 1)
  4801  016F  0355               	decf	dio_vid_set_pin_value@value,w
  4802  0170  1D03               	btfss	3,2
  4803  0171  2973               	goto	u1471
  4804  0172  2974               	goto	u1470
  4805  0173                     u1471:	
  4806  0173  2982               	goto	l2248
  4807  0174                     u1470:	
  4808  0174                     l2246:	
  4809                           
  4810                           ;dio.c: 90:    PORTB|=(1<<index);
  4811  0174  3001               	movlw	1
  4812  0175  00D6               	movwf	??_dio_vid_set_pin_value
  4813  0176  0A54               	incf	dio_vid_set_pin_value@index,w
  4814  0177  297A               	goto	u1484
  4815  0178                     u1485:	
  4816  0178  1003               	clrc
  4817  0179  0DD6               	rlf	??_dio_vid_set_pin_value,f
  4818  017A                     u1484:	
  4819  017A  3EFF               	addlw	-1
  4820  017B  1D03               	skipz
  4821  017C  2978               	goto	u1485
  4822  017D  0856               	movf	??_dio_vid_set_pin_value,w
  4823  017E  00D7               	movwf	??_dio_vid_set_pin_value+1
  4824  017F  0857               	movf	??_dio_vid_set_pin_value+1,w
  4825  0180  0486               	iorwf	6,f	;volatile
  4826  0181  2A24               	goto	l116
  4827  0182                     l2248:	
  4828  0182  0855               	movf	dio_vid_set_pin_value@value,w
  4829  0183  1D03               	btfss	3,2
  4830  0184  2986               	goto	u1491
  4831  0185  2987               	goto	u1490
  4832  0186                     u1491:	
  4833  0186  2A24               	goto	l116
  4834  0187                     u1490:	
  4835  0187                     l2250:	
  4836                           
  4837                           ;dio.c: 92:    PORTB&=~(1<<index);
  4838  0187  3001               	movlw	1
  4839  0188  00D6               	movwf	??_dio_vid_set_pin_value
  4840  0189  0A54               	incf	dio_vid_set_pin_value@index,w
  4841  018A  298D               	goto	u1504
  4842  018B                     u1505:	
  4843  018B  1003               	clrc
  4844  018C  0DD6               	rlf	??_dio_vid_set_pin_value,f
  4845  018D                     u1504:	
  4846  018D  3EFF               	addlw	-1
  4847  018E  1D03               	skipz
  4848  018F  298B               	goto	u1505
  4849  0190  0856               	movf	??_dio_vid_set_pin_value,w
  4850  0191  3AFF               	xorlw	255
  4851  0192  00D7               	movwf	??_dio_vid_set_pin_value+1
  4852  0193  0857               	movf	??_dio_vid_set_pin_value+1,w
  4853  0194  0586               	andwf	6,f	;volatile
  4854  0195  2A24               	goto	l116
  4855  0196                     l2252:	
  4856                           
  4857                           ;dio.c: 95:   if (value == 1)
  4858  0196  0355               	decf	dio_vid_set_pin_value@value,w
  4859  0197  1D03               	btfss	3,2
  4860  0198  299A               	goto	u1511
  4861  0199  299B               	goto	u1510
  4862  019A                     u1511:	
  4863  019A  29A9               	goto	l2256
  4864  019B                     u1510:	
  4865  019B                     l2254:	
  4866                           
  4867                           ;dio.c: 96:    PORTC|=(1<<index);
  4868  019B  3001               	movlw	1
  4869  019C  00D6               	movwf	??_dio_vid_set_pin_value
  4870  019D  0A54               	incf	dio_vid_set_pin_value@index,w
  4871  019E  29A1               	goto	u1524
  4872  019F                     u1525:	
  4873  019F  1003               	clrc
  4874  01A0  0DD6               	rlf	??_dio_vid_set_pin_value,f
  4875  01A1                     u1524:	
  4876  01A1  3EFF               	addlw	-1
  4877  01A2  1D03               	skipz
  4878  01A3  299F               	goto	u1525
  4879  01A4  0856               	movf	??_dio_vid_set_pin_value,w
  4880  01A5  00D7               	movwf	??_dio_vid_set_pin_value+1
  4881  01A6  0857               	movf	??_dio_vid_set_pin_value+1,w
  4882  01A7  0487               	iorwf	7,f	;volatile
  4883  01A8  2A24               	goto	l116
  4884  01A9                     l2256:	
  4885  01A9  0855               	movf	dio_vid_set_pin_value@value,w
  4886  01AA  1D03               	btfss	3,2
  4887  01AB  29AD               	goto	u1531
  4888  01AC  29AE               	goto	u1530
  4889  01AD                     u1531:	
  4890  01AD  2A24               	goto	l116
  4891  01AE                     u1530:	
  4892  01AE                     l2258:	
  4893                           
  4894                           ;dio.c: 98:    PORTC&=~(1<<index);
  4895  01AE  3001               	movlw	1
  4896  01AF  00D6               	movwf	??_dio_vid_set_pin_value
  4897  01B0  0A54               	incf	dio_vid_set_pin_value@index,w
  4898  01B1  29B4               	goto	u1544
  4899  01B2                     u1545:	
  4900  01B2  1003               	clrc
  4901  01B3  0DD6               	rlf	??_dio_vid_set_pin_value,f
  4902  01B4                     u1544:	
  4903  01B4  3EFF               	addlw	-1
  4904  01B5  1D03               	skipz
  4905  01B6  29B2               	goto	u1545
  4906  01B7  0856               	movf	??_dio_vid_set_pin_value,w
  4907  01B8  3AFF               	xorlw	255
  4908  01B9  00D7               	movwf	??_dio_vid_set_pin_value+1
  4909  01BA  0857               	movf	??_dio_vid_set_pin_value+1,w
  4910  01BB  0587               	andwf	7,f	;volatile
  4911  01BC  2A24               	goto	l116
  4912  01BD                     l2260:	
  4913                           
  4914                           ;dio.c: 101:   if (value == 1)
  4915  01BD  0355               	decf	dio_vid_set_pin_value@value,w
  4916  01BE  1D03               	btfss	3,2
  4917  01BF  29C1               	goto	u1551
  4918  01C0  29C2               	goto	u1550
  4919  01C1                     u1551:	
  4920  01C1  29D0               	goto	l2264
  4921  01C2                     u1550:	
  4922  01C2                     l2262:	
  4923                           
  4924                           ;dio.c: 102:    PORTD|=(1<<index);
  4925  01C2  3001               	movlw	1
  4926  01C3  00D6               	movwf	??_dio_vid_set_pin_value
  4927  01C4  0A54               	incf	dio_vid_set_pin_value@index,w
  4928  01C5  29C8               	goto	u1564
  4929  01C6                     u1565:	
  4930  01C6  1003               	clrc
  4931  01C7  0DD6               	rlf	??_dio_vid_set_pin_value,f
  4932  01C8                     u1564:	
  4933  01C8  3EFF               	addlw	-1
  4934  01C9  1D03               	skipz
  4935  01CA  29C6               	goto	u1565
  4936  01CB  0856               	movf	??_dio_vid_set_pin_value,w
  4937  01CC  00D7               	movwf	??_dio_vid_set_pin_value+1
  4938  01CD  0857               	movf	??_dio_vid_set_pin_value+1,w
  4939  01CE  0488               	iorwf	8,f	;volatile
  4940  01CF  2A24               	goto	l116
  4941  01D0                     l2264:	
  4942  01D0  0855               	movf	dio_vid_set_pin_value@value,w
  4943  01D1  1D03               	btfss	3,2
  4944  01D2  29D4               	goto	u1571
  4945  01D3  29D5               	goto	u1570
  4946  01D4                     u1571:	
  4947  01D4  2A24               	goto	l116
  4948  01D5                     u1570:	
  4949  01D5                     l2266:	
  4950                           
  4951                           ;dio.c: 104:    PORTD&=~(1<<index);
  4952  01D5  3001               	movlw	1
  4953  01D6  00D6               	movwf	??_dio_vid_set_pin_value
  4954  01D7  0A54               	incf	dio_vid_set_pin_value@index,w
  4955  01D8  29DB               	goto	u1584
  4956  01D9                     u1585:	
  4957  01D9  1003               	clrc
  4958  01DA  0DD6               	rlf	??_dio_vid_set_pin_value,f
  4959  01DB                     u1584:	
  4960  01DB  3EFF               	addlw	-1
  4961  01DC  1D03               	skipz
  4962  01DD  29D9               	goto	u1585
  4963  01DE  0856               	movf	??_dio_vid_set_pin_value,w
  4964  01DF  3AFF               	xorlw	255
  4965  01E0  00D7               	movwf	??_dio_vid_set_pin_value+1
  4966  01E1  0857               	movf	??_dio_vid_set_pin_value+1,w
  4967  01E2  0588               	andwf	8,f	;volatile
  4968  01E3  2A24               	goto	l116
  4969  01E4                     l2268:	
  4970                           
  4971                           ;dio.c: 107:   if (value == 1)
  4972  01E4  0355               	decf	dio_vid_set_pin_value@value,w
  4973  01E5  1D03               	btfss	3,2
  4974  01E6  29E8               	goto	u1591
  4975  01E7  29E9               	goto	u1590
  4976  01E8                     u1591:	
  4977  01E8  29F7               	goto	l2272
  4978  01E9                     u1590:	
  4979  01E9                     l2270:	
  4980                           
  4981                           ;dio.c: 108:    PORTE|=(1<<index);
  4982  01E9  3001               	movlw	1
  4983  01EA  00D6               	movwf	??_dio_vid_set_pin_value
  4984  01EB  0A54               	incf	dio_vid_set_pin_value@index,w
  4985  01EC  29EF               	goto	u1604
  4986  01ED                     u1605:	
  4987  01ED  1003               	clrc
  4988  01EE  0DD6               	rlf	??_dio_vid_set_pin_value,f
  4989  01EF                     u1604:	
  4990  01EF  3EFF               	addlw	-1
  4991  01F0  1D03               	skipz
  4992  01F1  29ED               	goto	u1605
  4993  01F2  0856               	movf	??_dio_vid_set_pin_value,w
  4994  01F3  00D7               	movwf	??_dio_vid_set_pin_value+1
  4995  01F4  0857               	movf	??_dio_vid_set_pin_value+1,w
  4996  01F5  0489               	iorwf	9,f	;volatile
  4997  01F6  2A24               	goto	l116
  4998  01F7                     l2272:	
  4999  01F7  0855               	movf	dio_vid_set_pin_value@value,w
  5000  01F8  1D03               	btfss	3,2
  5001  01F9  29FB               	goto	u1611
  5002  01FA  29FC               	goto	u1610
  5003  01FB                     u1611:	
  5004  01FB  2A24               	goto	l116
  5005  01FC                     u1610:	
  5006  01FC                     l2274:	
  5007                           
  5008                           ;dio.c: 110:    PORTE&=~(1<<index);
  5009  01FC  3001               	movlw	1
  5010  01FD  00D6               	movwf	??_dio_vid_set_pin_value
  5011  01FE  0A54               	incf	dio_vid_set_pin_value@index,w
  5012  01FF  2A02               	goto	u1624
  5013  0200                     u1625:	
  5014  0200  1003               	clrc
  5015  0201  0DD6               	rlf	??_dio_vid_set_pin_value,f
  5016  0202                     u1624:	
  5017  0202  3EFF               	addlw	-1
  5018  0203  1D03               	skipz
  5019  0204  2A00               	goto	u1625
  5020  0205  0856               	movf	??_dio_vid_set_pin_value,w
  5021  0206  3AFF               	xorlw	255
  5022  0207  00D7               	movwf	??_dio_vid_set_pin_value+1
  5023  0208  0857               	movf	??_dio_vid_set_pin_value+1,w
  5024  0209  0589               	andwf	9,f	;volatile
  5025  020A  2A24               	goto	l116
  5026  020B                     l2278:	
  5027  020B  0858               	movf	dio_vid_set_pin_value@portNumber,w
  5028  020C  00D6               	movwf	??_dio_vid_set_pin_value
  5029  020D  01D7               	clrf	??_dio_vid_set_pin_value+1
  5030                           
  5031                           ; Switch on 2 bytes has been partitioned into a top level switch of size 1, and 1 sub-sw
      +                          itches
  5032                           ; Switch size 1, requested type "simple"
  5033                           ; Number of cases is 1, Range of values is 0 to 0
  5034                           ; switch strategies available:
  5035                           ; Name         Instructions Cycles
  5036                           ; simple_byte            4     3 (average)
  5037                           ; direct_byte           11     8 (fixed)
  5038                           ; jumptable            260     6 (fixed)
  5039                           ;	Chosen strategy is simple_byte
  5040  020E  0857               	movf	??_dio_vid_set_pin_value+1,w
  5041  020F  3A00               	xorlw	0	; case 0
  5042  0210  1903               	skipnz
  5043  0211  2A13               	goto	l2922
  5044  0212  2A24               	goto	l116
  5045  0213                     l2922:	
  5046                           
  5047                           ; Switch size 1, requested type "simple"
  5048                           ; Number of cases is 5, Range of values is 0 to 4
  5049                           ; switch strategies available:
  5050                           ; Name         Instructions Cycles
  5051                           ; simple_byte           16     9 (average)
  5052                           ; direct_byte           23     8 (fixed)
  5053                           ; jumptable            260     6 (fixed)
  5054                           ;	Chosen strategy is simple_byte
  5055  0213  0856               	movf	??_dio_vid_set_pin_value,w
  5056  0214  3A00               	xorlw	0	; case 0
  5057  0215  1903               	skipnz
  5058  0216  2948               	goto	l2236
  5059  0217  3A01               	xorlw	1	; case 1
  5060  0218  1903               	skipnz
  5061  0219  296F               	goto	l2244
  5062  021A  3A03               	xorlw	3	; case 2
  5063  021B  1903               	skipnz
  5064  021C  2996               	goto	l2252
  5065  021D  3A01               	xorlw	1	; case 3
  5066  021E  1903               	skipnz
  5067  021F  29BD               	goto	l2260
  5068  0220  3A07               	xorlw	7	; case 4
  5069  0221  1903               	skipnz
  5070  0222  29E4               	goto	l2268
  5071  0223  2A24               	goto	l116
  5072  0224                     l116:	
  5073  0224  0008               	return
  5074  0225                     __end_of_dio_vid_set_pin_value:	
  5075                           
  5076                           	psect	text26
  5077  0F0A                     __ptext26:	
  5078 ;; *************** function _counter_vid_init *****************
  5079 ;; Defined at:
  5080 ;;		line 26 in file "counter.c"
  5081 ;; Parameters:    Size  Location     Type
  5082 ;;		None
  5083 ;; Auto vars:     Size  Location     Type
  5084 ;;		None
  5085 ;; Return value:  Size  Location     Type
  5086 ;;                  1    wreg      void 
  5087 ;; Registers used:
  5088 ;;		wreg, fsr0l, fsr0h, status,2, status,0, pclath, cstack
  5089 ;; Tracked objects:
  5090 ;;		On entry : 0/0
  5091 ;;		On exit  : 0/0
  5092 ;;		Unchanged: 0/0
  5093 ;; Data sizes:     COMMON   BANK0   BANK1   BANK3   BANK2
  5094 ;;      Params:         0       0       0       0       0
  5095 ;;      Locals:         0       0       0       0       0
  5096 ;;      Temps:          0       2       0       0       0
  5097 ;;      Totals:         0       2       0       0       0
  5098 ;;Total ram usage:        2 bytes
  5099 ;; Hardware stack levels used:    1
  5100 ;; Hardware stack levels required when called:    6
  5101 ;; This function calls:
  5102 ;;		___awmod
  5103 ;;		_dio_vid_set_pin_direction
  5104 ;;		_eeprom_external_vid_read
  5105 ;; This function is called by:
  5106 ;;		_display_init
  5107 ;; This function uses a non-reentrant model
  5108 ;;
  5109                           
  5110                           
  5111                           ;psect for function _counter_vid_init
  5112  0F0A                     _counter_vid_init:	
  5113  0F0A                     l2448:	
  5114                           ;incstack = 0
  5115                           ; Regs used in _counter_vid_init: [wreg-fsr0h+status,2+status,0+pclath+cstack]
  5116                           
  5117                           
  5118                           ;counter.c: 27:     dio_vid_set_pin_direction(B, 2, 0x01);
  5119  0F0A  3002               	movlw	2
  5120  0F0B  1283               	bcf	3,5	;RP0=0, select bank0
  5121  0F0C  1303               	bcf	3,6	;RP1=0, select bank0
  5122  0F0D  00DD               	movwf	??_counter_vid_init
  5123  0F0E  085D               	movf	??_counter_vid_init,w
  5124  0F0F  00D4               	movwf	dio_vid_set_pin_direction@index
  5125  0F10  01D5               	clrf	dio_vid_set_pin_direction@direction
  5126  0F11  0AD5               	incf	dio_vid_set_pin_direction@direction,f
  5127  0F12  3001               	movlw	1
  5128  0F13  120A  118A  204F  120A  158A  	fcall	_dio_vid_set_pin_direction
  5129                           
  5130                           ;counter.c: 28:     dio_vid_set_pin_direction(B, 1, 0x01);
  5131  0F18  1283               	bcf	3,5	;RP0=0, select bank0
  5132  0F19  1303               	bcf	3,6	;RP1=0, select bank0
  5133  0F1A  01D4               	clrf	dio_vid_set_pin_direction@index
  5134  0F1B  0AD4               	incf	dio_vid_set_pin_direction@index,f
  5135  0F1C  01D5               	clrf	dio_vid_set_pin_direction@direction
  5136  0F1D  0AD5               	incf	dio_vid_set_pin_direction@direction,f
  5137  0F1E  3001               	movlw	1
  5138  0F1F  120A  118A  204F  120A  158A  	fcall	_dio_vid_set_pin_direction
  5139                           
  5140                           ;counter.c: 29:     counter = eeprom_external_vid_read(0);
  5141  0F24  3000               	movlw	0
  5142  0F25  120A  158A  2758  120A  158A  	fcall	_eeprom_external_vid_read
  5143  0F2A  1283               	bcf	3,5	;RP0=0, select bank0
  5144  0F2B  1303               	bcf	3,6	;RP1=0, select bank0
  5145  0F2C  00DD               	movwf	??_counter_vid_init
  5146  0F2D  085D               	movf	??_counter_vid_init,w
  5147  0F2E  00E6               	movwf	_counter
  5148  0F2F                     l2450:	
  5149                           
  5150                           ;counter.c: 30:     if (counter < 35 || counter > 75 || counter % 5 != 0)
  5151  0F2F  3023               	movlw	35
  5152  0F30  0266               	subwf	_counter,w
  5153  0F31  1C03               	skipc
  5154  0F32  2F34               	goto	u1871
  5155  0F33  2F35               	goto	u1870
  5156  0F34                     u1871:	
  5157  0F34  2F53               	goto	l2456
  5158  0F35                     u1870:	
  5159  0F35                     l2452:	
  5160  0F35  304C               	movlw	76
  5161  0F36  0266               	subwf	_counter,w
  5162  0F37  1803               	skipnc
  5163  0F38  2F3A               	goto	u1881
  5164  0F39  2F3B               	goto	u1880
  5165  0F3A                     u1881:	
  5166  0F3A  2F53               	goto	l2456
  5167  0F3B                     u1880:	
  5168  0F3B                     l2454:	
  5169  0F3B  3005               	movlw	5
  5170  0F3C  00D4               	movwf	___awmod@divisor
  5171  0F3D  3000               	movlw	0
  5172  0F3E  00D5               	movwf	___awmod@divisor+1
  5173  0F3F  0866               	movf	_counter,w
  5174  0F40  00DD               	movwf	??_counter_vid_init
  5175  0F41  01DE               	clrf	??_counter_vid_init+1
  5176  0F42  085D               	movf	??_counter_vid_init,w
  5177  0F43  00D6               	movwf	___awmod@dividend
  5178  0F44  085E               	movf	??_counter_vid_init+1,w
  5179  0F45  00D7               	movwf	___awmod@dividend+1
  5180  0F46  120A  118A  26A9  120A  158A  	fcall	___awmod
  5181  0F4B  1283               	bcf	3,5	;RP0=0, select bank0
  5182  0F4C  1303               	bcf	3,6	;RP1=0, select bank0
  5183  0F4D  0854               	movf	?___awmod,w
  5184  0F4E  0455               	iorwf	?___awmod+1,w
  5185  0F4F  1903               	btfsc	3,2
  5186  0F50  2F52               	goto	u1891
  5187  0F51  2F53               	goto	u1890
  5188  0F52                     u1891:	
  5189  0F52  2F57               	goto	l26
  5190  0F53                     u1890:	
  5191  0F53                     l2456:	
  5192                           
  5193                           ;counter.c: 31:         counter = 60;
  5194  0F53  303C               	movlw	60
  5195  0F54  00DD               	movwf	??_counter_vid_init
  5196  0F55  085D               	movf	??_counter_vid_init,w
  5197  0F56  00E6               	movwf	_counter
  5198  0F57                     l26:	
  5199  0F57  0008               	return
  5200  0F58                     __end_of_counter_vid_init:	
  5201                           
  5202                           	psect	text27
  5203  0F58                     __ptext27:	
  5204 ;; *************** function _eeprom_external_vid_read *****************
  5205 ;; Defined at:
  5206 ;;		line 21 in file "eeprom_external.c"
  5207 ;; Parameters:    Size  Location     Type
  5208 ;;  address         1    wreg     unsigned char 
  5209 ;; Auto vars:     Size  Location     Type
  5210 ;;  address         1   13[BANK0 ] unsigned char 
  5211 ;;  data            1   14[BANK0 ] unsigned char 
  5212 ;; Return value:  Size  Location     Type
  5213 ;;                  1    wreg      unsigned char 
  5214 ;; Registers used:
  5215 ;;		wreg, fsr0l, fsr0h, status,2, status,0, pclath, cstack
  5216 ;; Tracked objects:
  5217 ;;		On entry : 0/0
  5218 ;;		On exit  : 0/0
  5219 ;;		Unchanged: 0/0
  5220 ;; Data sizes:     COMMON   BANK0   BANK1   BANK3   BANK2
  5221 ;;      Params:         0       0       0       0       0
  5222 ;;      Locals:         0       2       0       0       0
  5223 ;;      Temps:          0       1       0       0       0
  5224 ;;      Totals:         0       3       0       0       0
  5225 ;;Total ram usage:        3 bytes
  5226 ;; Hardware stack levels used:    1
  5227 ;; Hardware stack levels required when called:    5
  5228 ;; This function calls:
  5229 ;;		_i2c_u8_master_read_byte
  5230 ;;		_i2c_u8_master_write_byte
  5231 ;;		_i2c_u8_master_write_slave_address_with_read_req
  5232 ;;		_i2c_u8_master_write_slave_address_with_write_req
  5233 ;;		_i2c_vid_master_init
  5234 ;;		_i2c_vid_nack
  5235 ;;		_i2c_vid_restart
  5236 ;;		_i2c_vid_start
  5237 ;;		_i2c_vid_stop
  5238 ;; This function is called by:
  5239 ;;		_counter_vid_init
  5240 ;; This function uses a non-reentrant model
  5241 ;;
  5242                           
  5243                           
  5244                           ;psect for function _eeprom_external_vid_read
  5245  0F58                     _eeprom_external_vid_read:	
  5246                           
  5247                           ;incstack = 0
  5248                           ; Regs used in _eeprom_external_vid_read: [wreg-fsr0h+status,2+status,0+pclath+cstack]
  5249                           ;eeprom_external_vid_read@address stored from wreg
  5250  0F58  1283               	bcf	3,5	;RP0=0, select bank0
  5251  0F59  1303               	bcf	3,6	;RP1=0, select bank0
  5252  0F5A  00DB               	movwf	eeprom_external_vid_read@address
  5253  0F5B                     l2154:	
  5254                           
  5255                           ;eeprom_external.c: 22:     i2c_vid_master_init();
  5256  0F5B  120A  158A  25C1  120A  158A  	fcall	_i2c_vid_master_init
  5257  0F60                     l2156:	
  5258                           
  5259                           ;eeprom_external.c: 23:     u8 data;;eeprom_external.c: 24:     i2c_vid_start();
  5260  0F60  120A  158A  2470  120A  158A  	fcall	_i2c_vid_start
  5261                           
  5262                           ;eeprom_external.c: 25:     while(i2c_u8_master_write_slave_address_with_write_req(0x50)
      +                          )
  5263  0F65  2F6B               	goto	l207
  5264  0F66                     l2158:	
  5265                           
  5266                           ;eeprom_external.c: 26:     i2c_vid_restart();
  5267  0F66  120A  158A  2467  120A  158A  	fcall	_i2c_vid_restart
  5268  0F6B                     l207:	
  5269                           
  5270                           ;eeprom_external.c: 25:     while(i2c_u8_master_write_slave_address_with_write_req(0x50)
      +                          )
  5271  0F6B  3050               	movlw	80
  5272  0F6C  120A  158A  2518  120A  158A  	fcall	_i2c_u8_master_write_slave_address_with_write_req
  5273  0F71  3A00               	xorlw	0
  5274  0F72  1D03               	skipz
  5275  0F73  2F75               	goto	u1401
  5276  0F74  2F76               	goto	u1400
  5277  0F75                     u1401:	
  5278  0F75  2F66               	goto	l2158
  5279  0F76                     u1400:	
  5280  0F76                     l2160:	
  5281                           
  5282                           ;eeprom_external.c: 27:     i2c_u8_master_write_byte(address >> 8);
  5283  0F76  3000               	movlw	0
  5284  0F77  120A  158A  24B0  120A  158A  	fcall	_i2c_u8_master_write_byte
  5285                           
  5286                           ;eeprom_external.c: 28:     i2c_u8_master_write_byte((u8) address);
  5287  0F7C  1283               	bcf	3,5	;RP0=0, select bank0
  5288  0F7D  1303               	bcf	3,6	;RP1=0, select bank0
  5289  0F7E  085B               	movf	eeprom_external_vid_read@address,w
  5290  0F7F  120A  158A  24B0  120A  158A  	fcall	_i2c_u8_master_write_byte
  5291                           
  5292                           ;eeprom_external.c: 29:     i2c_vid_restart();
  5293  0F84  120A  158A  2467  120A  158A  	fcall	_i2c_vid_restart
  5294                           
  5295                           ;eeprom_external.c: 30:     i2c_u8_master_write_slave_address_with_read_req(0x50);
  5296  0F89  3050               	movlw	80
  5297  0F8A  120A  158A  24C2  120A  158A  	fcall	_i2c_u8_master_write_slave_address_with_read_req
  5298                           
  5299                           ;eeprom_external.c: 31:     data = i2c_u8_master_read_byte();
  5300  0F8F  120A  158A  24EA  120A  158A  	fcall	_i2c_u8_master_read_byte
  5301  0F94  1283               	bcf	3,5	;RP0=0, select bank0
  5302  0F95  1303               	bcf	3,6	;RP1=0, select bank0
  5303  0F96  00DA               	movwf	??_eeprom_external_vid_read
  5304  0F97  085A               	movf	??_eeprom_external_vid_read,w
  5305  0F98  00DC               	movwf	eeprom_external_vid_read@data
  5306                           
  5307                           ;eeprom_external.c: 32:     i2c_vid_nack();
  5308  0F99  120A  158A  2497  120A  158A  	fcall	_i2c_vid_nack
  5309                           
  5310                           ;eeprom_external.c: 33:     i2c_vid_stop();
  5311  0F9E  120A  158A  2479  120A  158A  	fcall	_i2c_vid_stop
  5312  0FA3                     l2162:	
  5313                           
  5314                           ;eeprom_external.c: 34:     return data;
  5315  0FA3  1283               	bcf	3,5	;RP0=0, select bank0
  5316  0FA4  1303               	bcf	3,6	;RP1=0, select bank0
  5317  0FA5  085C               	movf	eeprom_external_vid_read@data,w
  5318  0FA6                     l210:	
  5319  0FA6  0008               	return
  5320  0FA7                     __end_of_eeprom_external_vid_read:	
  5321                           
  5322                           	psect	text28
  5323  0C79                     __ptext28:	
  5324 ;; *************** function _i2c_vid_stop *****************
  5325 ;; Defined at:
  5326 ;;		line 43 in file "i2c.c"
  5327 ;; Parameters:    Size  Location     Type
  5328 ;;		None
  5329 ;; Auto vars:     Size  Location     Type
  5330 ;;		None
  5331 ;; Return value:  Size  Location     Type
  5332 ;;                  1    wreg      void 
  5333 ;; Registers used:
  5334 ;;		wreg, status,2, status,0, pclath, cstack
  5335 ;; Tracked objects:
  5336 ;;		On entry : 0/0
  5337 ;;		On exit  : 0/0
  5338 ;;		Unchanged: 0/0
  5339 ;; Data sizes:     COMMON   BANK0   BANK1   BANK3   BANK2
  5340 ;;      Params:         0       0       0       0       0
  5341 ;;      Locals:         0       0       0       0       0
  5342 ;;      Temps:          0       0       0       0       0
  5343 ;;      Totals:         0       0       0       0       0
  5344 ;;Total ram usage:        0 bytes
  5345 ;; Hardware stack levels used:    1
  5346 ;; Hardware stack levels required when called:    4
  5347 ;; This function calls:
  5348 ;;		_i2c_vid_wait
  5349 ;; This function is called by:
  5350 ;;		_eeprom_external_vid_write
  5351 ;;		_eeprom_external_vid_read
  5352 ;; This function uses a non-reentrant model
  5353 ;;
  5354                           
  5355                           
  5356                           ;psect for function _i2c_vid_stop
  5357  0C79                     _i2c_vid_stop:	
  5358  0C79                     l2130:	
  5359                           ;incstack = 0
  5360                           ; Regs used in _i2c_vid_stop: [wreg+status,2+status,0+pclath+cstack]
  5361                           
  5362                           
  5363                           ;i2c.c: 44:     i2c_vid_wait();
  5364  0C79  120A  158A  24A3  120A  158A  	fcall	_i2c_vid_wait
  5365  0C7E                     l2132:	
  5366                           
  5367                           ;i2c.c: 46:     PEN = 1;
  5368  0C7E  1683               	bsf	3,5	;RP0=1, select bank1
  5369  0C7F  1303               	bcf	3,6	;RP1=0, select bank1
  5370  0C80  1511               	bsf	17,2	;volatile
  5371  0C81                     l257:	
  5372  0C81  0008               	return
  5373  0C82                     __end_of_i2c_vid_stop:	
  5374                           
  5375                           	psect	text29
  5376  0C70                     __ptext29:	
  5377 ;; *************** function _i2c_vid_start *****************
  5378 ;; Defined at:
  5379 ;;		line 37 in file "i2c.c"
  5380 ;; Parameters:    Size  Location     Type
  5381 ;;		None
  5382 ;; Auto vars:     Size  Location     Type
  5383 ;;		None
  5384 ;; Return value:  Size  Location     Type
  5385 ;;                  1    wreg      void 
  5386 ;; Registers used:
  5387 ;;		wreg, status,2, status,0, pclath, cstack
  5388 ;; Tracked objects:
  5389 ;;		On entry : 0/0
  5390 ;;		On exit  : 0/0
  5391 ;;		Unchanged: 0/0
  5392 ;; Data sizes:     COMMON   BANK0   BANK1   BANK3   BANK2
  5393 ;;      Params:         0       0       0       0       0
  5394 ;;      Locals:         0       0       0       0       0
  5395 ;;      Temps:          0       0       0       0       0
  5396 ;;      Totals:         0       0       0       0       0
  5397 ;;Total ram usage:        0 bytes
  5398 ;; Hardware stack levels used:    1
  5399 ;; Hardware stack levels required when called:    4
  5400 ;; This function calls:
  5401 ;;		_i2c_vid_wait
  5402 ;; This function is called by:
  5403 ;;		_eeprom_external_vid_write
  5404 ;;		_eeprom_external_vid_read
  5405 ;; This function uses a non-reentrant model
  5406 ;;
  5407                           
  5408                           
  5409                           ;psect for function _i2c_vid_start
  5410  0C70                     _i2c_vid_start:	
  5411  0C70                     l2110:	
  5412                           ;incstack = 0
  5413                           ; Regs used in _i2c_vid_start: [wreg+status,2+status,0+pclath+cstack]
  5414                           
  5415                           
  5416                           ;i2c.c: 38:     i2c_vid_wait();
  5417  0C70  120A  158A  24A3  120A  158A  	fcall	_i2c_vid_wait
  5418  0C75                     l2112:	
  5419                           
  5420                           ;i2c.c: 40:     SEN = 1;
  5421  0C75  1683               	bsf	3,5	;RP0=1, select bank1
  5422  0C76  1303               	bcf	3,6	;RP1=0, select bank1
  5423  0C77  1411               	bsf	17,0	;volatile
  5424  0C78                     l254:	
  5425  0C78  0008               	return
  5426  0C79                     __end_of_i2c_vid_start:	
  5427                           
  5428                           	psect	text30
  5429  0C67                     __ptext30:	
  5430 ;; *************** function _i2c_vid_restart *****************
  5431 ;; Defined at:
  5432 ;;		line 49 in file "i2c.c"
  5433 ;; Parameters:    Size  Location     Type
  5434 ;;		None
  5435 ;; Auto vars:     Size  Location     Type
  5436 ;;		None
  5437 ;; Return value:  Size  Location     Type
  5438 ;;                  1    wreg      void 
  5439 ;; Registers used:
  5440 ;;		wreg, status,2, status,0, pclath, cstack
  5441 ;; Tracked objects:
  5442 ;;		On entry : 0/0
  5443 ;;		On exit  : 0/0
  5444 ;;		Unchanged: 0/0
  5445 ;; Data sizes:     COMMON   BANK0   BANK1   BANK3   BANK2
  5446 ;;      Params:         0       0       0       0       0
  5447 ;;      Locals:         0       0       0       0       0
  5448 ;;      Temps:          0       0       0       0       0
  5449 ;;      Totals:         0       0       0       0       0
  5450 ;;Total ram usage:        0 bytes
  5451 ;; Hardware stack levels used:    1
  5452 ;; Hardware stack levels required when called:    4
  5453 ;; This function calls:
  5454 ;;		_i2c_vid_wait
  5455 ;; This function is called by:
  5456 ;;		_eeprom_external_vid_write
  5457 ;;		_eeprom_external_vid_read
  5458 ;; This function uses a non-reentrant model
  5459 ;;
  5460                           
  5461                           
  5462                           ;psect for function _i2c_vid_restart
  5463  0C67                     _i2c_vid_restart:	
  5464  0C67                     l2114:	
  5465                           ;incstack = 0
  5466                           ; Regs used in _i2c_vid_restart: [wreg+status,2+status,0+pclath+cstack]
  5467                           
  5468                           
  5469                           ;i2c.c: 50:     i2c_vid_wait();
  5470  0C67  120A  158A  24A3  120A  158A  	fcall	_i2c_vid_wait
  5471  0C6C                     l2116:	
  5472                           
  5473                           ;i2c.c: 52:     RSEN = 1;
  5474  0C6C  1683               	bsf	3,5	;RP0=1, select bank1
  5475  0C6D  1303               	bcf	3,6	;RP1=0, select bank1
  5476  0C6E  1491               	bsf	17,1	;volatile
  5477  0C6F                     l260:	
  5478  0C6F  0008               	return
  5479  0C70                     __end_of_i2c_vid_restart:	
  5480                           
  5481                           	psect	text31
  5482  0C97                     __ptext31:	
  5483 ;; *************** function _i2c_vid_nack *****************
  5484 ;; Defined at:
  5485 ;;		line 65 in file "i2c.c"
  5486 ;; Parameters:    Size  Location     Type
  5487 ;;		None
  5488 ;; Auto vars:     Size  Location     Type
  5489 ;;		None
  5490 ;; Return value:  Size  Location     Type
  5491 ;;                  1    wreg      void 
  5492 ;; Registers used:
  5493 ;;		wreg, status,2, status,0, pclath, cstack
  5494 ;; Tracked objects:
  5495 ;;		On entry : 0/0
  5496 ;;		On exit  : 0/0
  5497 ;;		Unchanged: 0/0
  5498 ;; Data sizes:     COMMON   BANK0   BANK1   BANK3   BANK2
  5499 ;;      Params:         0       0       0       0       0
  5500 ;;      Locals:         0       0       0       0       0
  5501 ;;      Temps:          0       0       0       0       0
  5502 ;;      Totals:         0       0       0       0       0
  5503 ;;Total ram usage:        0 bytes
  5504 ;; Hardware stack levels used:    1
  5505 ;; Hardware stack levels required when called:    4
  5506 ;; This function calls:
  5507 ;;		_i2c_vid_wait
  5508 ;; This function is called by:
  5509 ;;		_eeprom_external_vid_read
  5510 ;; This function uses a non-reentrant model
  5511 ;;
  5512                           
  5513                           
  5514                           ;psect for function _i2c_vid_nack
  5515  0C97                     _i2c_vid_nack:	
  5516  0C97                     l2148:	
  5517                           ;incstack = 0
  5518                           ; Regs used in _i2c_vid_nack: [wreg+status,2+status,0+pclath+cstack]
  5519                           
  5520                           
  5521                           ;i2c.c: 66:     ACKDT = 1;
  5522  0C97  1683               	bsf	3,5	;RP0=1, select bank1
  5523  0C98  1303               	bcf	3,6	;RP1=0, select bank1
  5524  0C99  1691               	bsf	17,5	;volatile
  5525  0C9A                     l2150:	
  5526                           
  5527                           ;i2c.c: 67:     i2c_vid_wait();
  5528  0C9A  120A  158A  24A3  120A  158A  	fcall	_i2c_vid_wait
  5529  0C9F                     l2152:	
  5530                           
  5531                           ;i2c.c: 68:     ACKEN = 1;
  5532  0C9F  1683               	bsf	3,5	;RP0=1, select bank1
  5533  0CA0  1303               	bcf	3,6	;RP1=0, select bank1
  5534  0CA1  1611               	bsf	17,4	;volatile
  5535  0CA2                     l272:	
  5536  0CA2  0008               	return
  5537  0CA3                     __end_of_i2c_vid_nack:	
  5538                           
  5539                           	psect	text32
  5540  0DC1                     __ptext32:	
  5541 ;; *************** function _i2c_vid_master_init *****************
  5542 ;; Defined at:
  5543 ;;		line 16 in file "i2c.c"
  5544 ;; Parameters:    Size  Location     Type
  5545 ;;		None
  5546 ;; Auto vars:     Size  Location     Type
  5547 ;;		None
  5548 ;; Return value:  Size  Location     Type
  5549 ;;                  1    wreg      void 
  5550 ;; Registers used:
  5551 ;;		wreg, fsr0l, fsr0h, status,2, status,0, pclath, cstack
  5552 ;; Tracked objects:
  5553 ;;		On entry : 0/0
  5554 ;;		On exit  : 0/0
  5555 ;;		Unchanged: 0/0
  5556 ;; Data sizes:     COMMON   BANK0   BANK1   BANK3   BANK2
  5557 ;;      Params:         0       0       0       0       0
  5558 ;;      Locals:         0       0       0       0       0
  5559 ;;      Temps:          0       1       0       0       0
  5560 ;;      Totals:         0       1       0       0       0
  5561 ;;Total ram usage:        1 bytes
  5562 ;; Hardware stack levels used:    1
  5563 ;; Hardware stack levels required when called:    4
  5564 ;; This function calls:
  5565 ;;		_dio_vid_set_pin_direction
  5566 ;; This function is called by:
  5567 ;;		_eeprom_external_vid_write
  5568 ;;		_eeprom_external_vid_read
  5569 ;; This function uses a non-reentrant model
  5570 ;;
  5571                           
  5572                           
  5573                           ;psect for function _i2c_vid_master_init
  5574  0DC1                     _i2c_vid_master_init:	
  5575  0DC1                     l2092:	
  5576                           ;incstack = 0
  5577                           ; Regs used in _i2c_vid_master_init: [wreg-fsr0h+status,2+status,0+pclath+cstack]
  5578                           
  5579                           
  5580                           ;i2c.c: 18:     dio_vid_set_pin_direction(C, 3, 0x01);
  5581  0DC1  3003               	movlw	3
  5582  0DC2  1283               	bcf	3,5	;RP0=0, select bank0
  5583  0DC3  1303               	bcf	3,6	;RP1=0, select bank0
  5584  0DC4  00D9               	movwf	??_i2c_vid_master_init
  5585  0DC5  0859               	movf	??_i2c_vid_master_init,w
  5586  0DC6  00D4               	movwf	dio_vid_set_pin_direction@index
  5587  0DC7  01D5               	clrf	dio_vid_set_pin_direction@direction
  5588  0DC8  0AD5               	incf	dio_vid_set_pin_direction@direction,f
  5589  0DC9  3002               	movlw	2
  5590  0DCA  120A  118A  204F  120A  158A  	fcall	_dio_vid_set_pin_direction
  5591                           
  5592                           ;i2c.c: 19:     dio_vid_set_pin_direction(C, 4, 0x01);
  5593  0DCF  3004               	movlw	4
  5594  0DD0  1283               	bcf	3,5	;RP0=0, select bank0
  5595  0DD1  1303               	bcf	3,6	;RP1=0, select bank0
  5596  0DD2  00D9               	movwf	??_i2c_vid_master_init
  5597  0DD3  0859               	movf	??_i2c_vid_master_init,w
  5598  0DD4  00D4               	movwf	dio_vid_set_pin_direction@index
  5599  0DD5  01D5               	clrf	dio_vid_set_pin_direction@direction
  5600  0DD6  0AD5               	incf	dio_vid_set_pin_direction@direction,f
  5601  0DD7  3002               	movlw	2
  5602  0DD8  120A  118A  204F  120A  158A  	fcall	_dio_vid_set_pin_direction
  5603  0DDD                     l2094:	
  5604                           
  5605                           ;i2c.c: 21:     SSPCON2 = 0x00;
  5606  0DDD  1683               	bsf	3,5	;RP0=1, select bank1
  5607  0DDE  1303               	bcf	3,6	;RP1=0, select bank1
  5608  0DDF  0191               	clrf	17	;volatile
  5609  0DE0                     l2096:	
  5610                           
  5611                           ;i2c.c: 22:     SSPSTAT = 0x00;
  5612  0DE0  0194               	clrf	20	;volatile
  5613  0DE1                     l2098:	
  5614                           
  5615                           ;i2c.c: 25:     SSPEN = 1;
  5616  0DE1  1283               	bcf	3,5	;RP0=0, select bank0
  5617  0DE2  1303               	bcf	3,6	;RP1=0, select bank0
  5618  0DE3  1694               	bsf	20,5	;volatile
  5619  0DE4                     l2100:	
  5620                           
  5621                           ;i2c.c: 28:     SSPM3 = 1;
  5622  0DE4  1594               	bsf	20,3	;volatile
  5623  0DE5                     l2102:	
  5624                           
  5625                           ;i2c.c: 29:     SSPM2 = 0;
  5626  0DE5  1114               	bcf	20,2	;volatile
  5627  0DE6                     l2104:	
  5628                           
  5629                           ;i2c.c: 30:     SSPM1 = 0;
  5630  0DE6  1094               	bcf	20,1	;volatile
  5631  0DE7                     l2106:	
  5632                           
  5633                           ;i2c.c: 31:     SSPM0 = 0;
  5634  0DE7  1014               	bcf	20,0	;volatile
  5635  0DE8                     l2108:	
  5636                           
  5637                           ;i2c.c: 34:     SSPADD = ((8000000 / 4) / 9600) - 1;
  5638  0DE8  30CF               	movlw	207
  5639  0DE9  1683               	bsf	3,5	;RP0=1, select bank1
  5640  0DEA  1303               	bcf	3,6	;RP1=0, select bank1
  5641  0DEB  0093               	movwf	19	;volatile
  5642  0DEC                     l251:	
  5643  0DEC  0008               	return
  5644  0DED                     __end_of_i2c_vid_master_init:	
  5645                           
  5646                           	psect	text33
  5647  004F                     __ptext33:	
  5648 ;; *************** function _dio_vid_set_pin_direction *****************
  5649 ;; Defined at:
  5650 ;;		line 116 in file "dio.c"
  5651 ;; Parameters:    Size  Location     Type
  5652 ;;  portNumber      1    wreg     unsigned char 
  5653 ;;  index           1    6[BANK0 ] unsigned char 
  5654 ;;  direction       1    7[BANK0 ] unsigned char 
  5655 ;; Auto vars:     Size  Location     Type
  5656 ;;  portNumber      1   10[BANK0 ] unsigned char 
  5657 ;; Return value:  Size  Location     Type
  5658 ;;                  1    wreg      void 
  5659 ;; Registers used:
  5660 ;;		wreg, fsr0l, fsr0h, status,2, status,0
  5661 ;; Tracked objects:
  5662 ;;		On entry : 0/0
  5663 ;;		On exit  : 0/0
  5664 ;;		Unchanged: 0/0
  5665 ;; Data sizes:     COMMON   BANK0   BANK1   BANK3   BANK2
  5666 ;;      Params:         0       2       0       0       0
  5667 ;;      Locals:         0       1       0       0       0
  5668 ;;      Temps:          0       2       0       0       0
  5669 ;;      Totals:         0       5       0       0       0
  5670 ;;Total ram usage:        5 bytes
  5671 ;; Hardware stack levels used:    1
  5672 ;; Hardware stack levels required when called:    3
  5673 ;; This function calls:
  5674 ;;		Nothing
  5675 ;; This function is called by:
  5676 ;;		_counter_vid_init
  5677 ;;		_display_init
  5678 ;;		_i2c_vid_master_init
  5679 ;;		_ssd_vid_init
  5680 ;;		_pwm_vid_init
  5681 ;; This function uses a non-reentrant model
  5682 ;;
  5683                           
  5684                           
  5685                           ;psect for function _dio_vid_set_pin_direction
  5686  004F                     _dio_vid_set_pin_direction:	
  5687                           
  5688                           ;incstack = 0
  5689                           ; Regs used in _dio_vid_set_pin_direction: [wreg-fsr0h+status,2+status,0]
  5690                           ;dio_vid_set_pin_direction@portNumber stored from wreg
  5691  004F  1283               	bcf	3,5	;RP0=0, select bank0
  5692  0050  1303               	bcf	3,6	;RP1=0, select bank0
  5693  0051  00D8               	movwf	dio_vid_set_pin_direction@portNumber
  5694  0052                     l1990:	
  5695                           
  5696                           ;dio.c: 117:  switch (portNumber) {
  5697  0052  292A               	goto	l2034
  5698  0053                     l1992:	
  5699                           
  5700                           ;dio.c: 119:   if (direction == 1)
  5701  0053  0355               	decf	dio_vid_set_pin_direction@direction,w
  5702  0054  1D03               	btfss	3,2
  5703  0055  2857               	goto	u1141
  5704  0056  2858               	goto	u1140
  5705  0057                     u1141:	
  5706  0057  2868               	goto	l1996
  5707  0058                     u1140:	
  5708  0058                     l1994:	
  5709                           
  5710                           ;dio.c: 120:    TRISA|=(1<<index);
  5711  0058  3001               	movlw	1
  5712  0059  00D6               	movwf	??_dio_vid_set_pin_direction
  5713  005A  0A54               	incf	dio_vid_set_pin_direction@index,w
  5714  005B  285E               	goto	u1154
  5715  005C                     u1155:	
  5716  005C  1003               	clrc
  5717  005D  0DD6               	rlf	??_dio_vid_set_pin_direction,f
  5718  005E                     u1154:	
  5719  005E  3EFF               	addlw	-1
  5720  005F  1D03               	skipz
  5721  0060  285C               	goto	u1155
  5722  0061  0856               	movf	??_dio_vid_set_pin_direction,w
  5723  0062  00D7               	movwf	??_dio_vid_set_pin_direction+1
  5724  0063  0857               	movf	??_dio_vid_set_pin_direction+1,w
  5725  0064  1683               	bsf	3,5	;RP0=1, select bank1
  5726  0065  1303               	bcf	3,6	;RP1=0, select bank1
  5727  0066  0485               	iorwf	5,f	;volatile
  5728  0067  2943               	goto	l141
  5729  0068                     l1996:	
  5730  0068  0855               	movf	dio_vid_set_pin_direction@direction,w
  5731  0069  1D03               	btfss	3,2
  5732  006A  286C               	goto	u1161
  5733  006B  286D               	goto	u1160
  5734  006C                     u1161:	
  5735  006C  2943               	goto	l141
  5736  006D                     u1160:	
  5737  006D                     l1998:	
  5738                           
  5739                           ;dio.c: 122:    TRISA&=~(1<<index);
  5740  006D  3001               	movlw	1
  5741  006E  00D6               	movwf	??_dio_vid_set_pin_direction
  5742  006F  0A54               	incf	dio_vid_set_pin_direction@index,w
  5743  0070  2873               	goto	u1174
  5744  0071                     u1175:	
  5745  0071  1003               	clrc
  5746  0072  0DD6               	rlf	??_dio_vid_set_pin_direction,f
  5747  0073                     u1174:	
  5748  0073  3EFF               	addlw	-1
  5749  0074  1D03               	skipz
  5750  0075  2871               	goto	u1175
  5751  0076  0856               	movf	??_dio_vid_set_pin_direction,w
  5752  0077  3AFF               	xorlw	255
  5753  0078  00D7               	movwf	??_dio_vid_set_pin_direction+1
  5754  0079  0857               	movf	??_dio_vid_set_pin_direction+1,w
  5755  007A  1683               	bsf	3,5	;RP0=1, select bank1
  5756  007B  1303               	bcf	3,6	;RP1=0, select bank1
  5757  007C  0585               	andwf	5,f	;volatile
  5758  007D  2943               	goto	l141
  5759  007E                     l2000:	
  5760                           
  5761                           ;dio.c: 125:   if (direction == 1)
  5762  007E  0355               	decf	dio_vid_set_pin_direction@direction,w
  5763  007F  1D03               	btfss	3,2
  5764  0080  2882               	goto	u1181
  5765  0081  2883               	goto	u1180
  5766  0082                     u1181:	
  5767  0082  2893               	goto	l2004
  5768  0083                     u1180:	
  5769  0083                     l2002:	
  5770                           
  5771                           ;dio.c: 126:    TRISB|=(1<<index);
  5772  0083  3001               	movlw	1
  5773  0084  00D6               	movwf	??_dio_vid_set_pin_direction
  5774  0085  0A54               	incf	dio_vid_set_pin_direction@index,w
  5775  0086  2889               	goto	u1194
  5776  0087                     u1195:	
  5777  0087  1003               	clrc
  5778  0088  0DD6               	rlf	??_dio_vid_set_pin_direction,f
  5779  0089                     u1194:	
  5780  0089  3EFF               	addlw	-1
  5781  008A  1D03               	skipz
  5782  008B  2887               	goto	u1195
  5783  008C  0856               	movf	??_dio_vid_set_pin_direction,w
  5784  008D  00D7               	movwf	??_dio_vid_set_pin_direction+1
  5785  008E  0857               	movf	??_dio_vid_set_pin_direction+1,w
  5786  008F  1683               	bsf	3,5	;RP0=1, select bank1
  5787  0090  1303               	bcf	3,6	;RP1=0, select bank1
  5788  0091  0486               	iorwf	6,f	;volatile
  5789  0092  2943               	goto	l141
  5790  0093                     l2004:	
  5791  0093  0855               	movf	dio_vid_set_pin_direction@direction,w
  5792  0094  1D03               	btfss	3,2
  5793  0095  2897               	goto	u1201
  5794  0096  2898               	goto	u1200
  5795  0097                     u1201:	
  5796  0097  2943               	goto	l141
  5797  0098                     u1200:	
  5798  0098                     l2006:	
  5799                           
  5800                           ;dio.c: 128:    TRISB&=~(1<<index);
  5801  0098  3001               	movlw	1
  5802  0099  00D6               	movwf	??_dio_vid_set_pin_direction
  5803  009A  0A54               	incf	dio_vid_set_pin_direction@index,w
  5804  009B  289E               	goto	u1214
  5805  009C                     u1215:	
  5806  009C  1003               	clrc
  5807  009D  0DD6               	rlf	??_dio_vid_set_pin_direction,f
  5808  009E                     u1214:	
  5809  009E  3EFF               	addlw	-1
  5810  009F  1D03               	skipz
  5811  00A0  289C               	goto	u1215
  5812  00A1  0856               	movf	??_dio_vid_set_pin_direction,w
  5813  00A2  3AFF               	xorlw	255
  5814  00A3  00D7               	movwf	??_dio_vid_set_pin_direction+1
  5815  00A4  0857               	movf	??_dio_vid_set_pin_direction+1,w
  5816  00A5  1683               	bsf	3,5	;RP0=1, select bank1
  5817  00A6  1303               	bcf	3,6	;RP1=0, select bank1
  5818  00A7  0586               	andwf	6,f	;volatile
  5819  00A8  2943               	goto	l141
  5820  00A9                     l2008:	
  5821                           
  5822                           ;dio.c: 131:   if (direction == 1)
  5823  00A9  0355               	decf	dio_vid_set_pin_direction@direction,w
  5824  00AA  1D03               	btfss	3,2
  5825  00AB  28AD               	goto	u1221
  5826  00AC  28AE               	goto	u1220
  5827  00AD                     u1221:	
  5828  00AD  28BE               	goto	l2012
  5829  00AE                     u1220:	
  5830  00AE                     l2010:	
  5831                           
  5832                           ;dio.c: 132:    TRISC|=(1<<index);
  5833  00AE  3001               	movlw	1
  5834  00AF  00D6               	movwf	??_dio_vid_set_pin_direction
  5835  00B0  0A54               	incf	dio_vid_set_pin_direction@index,w
  5836  00B1  28B4               	goto	u1234
  5837  00B2                     u1235:	
  5838  00B2  1003               	clrc
  5839  00B3  0DD6               	rlf	??_dio_vid_set_pin_direction,f
  5840  00B4                     u1234:	
  5841  00B4  3EFF               	addlw	-1
  5842  00B5  1D03               	skipz
  5843  00B6  28B2               	goto	u1235
  5844  00B7  0856               	movf	??_dio_vid_set_pin_direction,w
  5845  00B8  00D7               	movwf	??_dio_vid_set_pin_direction+1
  5846  00B9  0857               	movf	??_dio_vid_set_pin_direction+1,w
  5847  00BA  1683               	bsf	3,5	;RP0=1, select bank1
  5848  00BB  1303               	bcf	3,6	;RP1=0, select bank1
  5849  00BC  0487               	iorwf	7,f	;volatile
  5850  00BD  2943               	goto	l141
  5851  00BE                     l2012:	
  5852  00BE  0855               	movf	dio_vid_set_pin_direction@direction,w
  5853  00BF  1D03               	btfss	3,2
  5854  00C0  28C2               	goto	u1241
  5855  00C1  28C3               	goto	u1240
  5856  00C2                     u1241:	
  5857  00C2  2943               	goto	l141
  5858  00C3                     u1240:	
  5859  00C3                     l2014:	
  5860                           
  5861                           ;dio.c: 134:    TRISC&=~(1<<index);
  5862  00C3  3001               	movlw	1
  5863  00C4  00D6               	movwf	??_dio_vid_set_pin_direction
  5864  00C5  0A54               	incf	dio_vid_set_pin_direction@index,w
  5865  00C6  28C9               	goto	u1254
  5866  00C7                     u1255:	
  5867  00C7  1003               	clrc
  5868  00C8  0DD6               	rlf	??_dio_vid_set_pin_direction,f
  5869  00C9                     u1254:	
  5870  00C9  3EFF               	addlw	-1
  5871  00CA  1D03               	skipz
  5872  00CB  28C7               	goto	u1255
  5873  00CC  0856               	movf	??_dio_vid_set_pin_direction,w
  5874  00CD  3AFF               	xorlw	255
  5875  00CE  00D7               	movwf	??_dio_vid_set_pin_direction+1
  5876  00CF  0857               	movf	??_dio_vid_set_pin_direction+1,w
  5877  00D0  1683               	bsf	3,5	;RP0=1, select bank1
  5878  00D1  1303               	bcf	3,6	;RP1=0, select bank1
  5879  00D2  0587               	andwf	7,f	;volatile
  5880  00D3  2943               	goto	l141
  5881  00D4                     l2016:	
  5882                           
  5883                           ;dio.c: 137:   if (direction == 1)
  5884  00D4  0355               	decf	dio_vid_set_pin_direction@direction,w
  5885  00D5  1D03               	btfss	3,2
  5886  00D6  28D8               	goto	u1261
  5887  00D7  28D9               	goto	u1260
  5888  00D8                     u1261:	
  5889  00D8  28E9               	goto	l2020
  5890  00D9                     u1260:	
  5891  00D9                     l2018:	
  5892                           
  5893                           ;dio.c: 138:    TRISD|=(1<<index);
  5894  00D9  3001               	movlw	1
  5895  00DA  00D6               	movwf	??_dio_vid_set_pin_direction
  5896  00DB  0A54               	incf	dio_vid_set_pin_direction@index,w
  5897  00DC  28DF               	goto	u1274
  5898  00DD                     u1275:	
  5899  00DD  1003               	clrc
  5900  00DE  0DD6               	rlf	??_dio_vid_set_pin_direction,f
  5901  00DF                     u1274:	
  5902  00DF  3EFF               	addlw	-1
  5903  00E0  1D03               	skipz
  5904  00E1  28DD               	goto	u1275
  5905  00E2  0856               	movf	??_dio_vid_set_pin_direction,w
  5906  00E3  00D7               	movwf	??_dio_vid_set_pin_direction+1
  5907  00E4  0857               	movf	??_dio_vid_set_pin_direction+1,w
  5908  00E5  1683               	bsf	3,5	;RP0=1, select bank1
  5909  00E6  1303               	bcf	3,6	;RP1=0, select bank1
  5910  00E7  0488               	iorwf	8,f	;volatile
  5911  00E8  2943               	goto	l141
  5912  00E9                     l2020:	
  5913  00E9  0855               	movf	dio_vid_set_pin_direction@direction,w
  5914  00EA  1D03               	btfss	3,2
  5915  00EB  28ED               	goto	u1281
  5916  00EC  28EE               	goto	u1280
  5917  00ED                     u1281:	
  5918  00ED  2943               	goto	l141
  5919  00EE                     u1280:	
  5920  00EE                     l2022:	
  5921                           
  5922                           ;dio.c: 140:    TRISD&=~(1<<index);
  5923  00EE  3001               	movlw	1
  5924  00EF  00D6               	movwf	??_dio_vid_set_pin_direction
  5925  00F0  0A54               	incf	dio_vid_set_pin_direction@index,w
  5926  00F1  28F4               	goto	u1294
  5927  00F2                     u1295:	
  5928  00F2  1003               	clrc
  5929  00F3  0DD6               	rlf	??_dio_vid_set_pin_direction,f
  5930  00F4                     u1294:	
  5931  00F4  3EFF               	addlw	-1
  5932  00F5  1D03               	skipz
  5933  00F6  28F2               	goto	u1295
  5934  00F7  0856               	movf	??_dio_vid_set_pin_direction,w
  5935  00F8  3AFF               	xorlw	255
  5936  00F9  00D7               	movwf	??_dio_vid_set_pin_direction+1
  5937  00FA  0857               	movf	??_dio_vid_set_pin_direction+1,w
  5938  00FB  1683               	bsf	3,5	;RP0=1, select bank1
  5939  00FC  1303               	bcf	3,6	;RP1=0, select bank1
  5940  00FD  0588               	andwf	8,f	;volatile
  5941  00FE  2943               	goto	l141
  5942  00FF                     l2024:	
  5943                           
  5944                           ;dio.c: 143:   if (direction == 1)
  5945  00FF  0355               	decf	dio_vid_set_pin_direction@direction,w
  5946  0100  1D03               	btfss	3,2
  5947  0101  2903               	goto	u1301
  5948  0102  2904               	goto	u1300
  5949  0103                     u1301:	
  5950  0103  2914               	goto	l2028
  5951  0104                     u1300:	
  5952  0104                     l2026:	
  5953                           
  5954                           ;dio.c: 144:    TRISE|=(1<<index);
  5955  0104  3001               	movlw	1
  5956  0105  00D6               	movwf	??_dio_vid_set_pin_direction
  5957  0106  0A54               	incf	dio_vid_set_pin_direction@index,w
  5958  0107  290A               	goto	u1314
  5959  0108                     u1315:	
  5960  0108  1003               	clrc
  5961  0109  0DD6               	rlf	??_dio_vid_set_pin_direction,f
  5962  010A                     u1314:	
  5963  010A  3EFF               	addlw	-1
  5964  010B  1D03               	skipz
  5965  010C  2908               	goto	u1315
  5966  010D  0856               	movf	??_dio_vid_set_pin_direction,w
  5967  010E  00D7               	movwf	??_dio_vid_set_pin_direction+1
  5968  010F  0857               	movf	??_dio_vid_set_pin_direction+1,w
  5969  0110  1683               	bsf	3,5	;RP0=1, select bank1
  5970  0111  1303               	bcf	3,6	;RP1=0, select bank1
  5971  0112  0489               	iorwf	9,f	;volatile
  5972  0113  2943               	goto	l141
  5973  0114                     l2028:	
  5974  0114  0855               	movf	dio_vid_set_pin_direction@direction,w
  5975  0115  1D03               	btfss	3,2
  5976  0116  2918               	goto	u1321
  5977  0117  2919               	goto	u1320
  5978  0118                     u1321:	
  5979  0118  2943               	goto	l141
  5980  0119                     u1320:	
  5981  0119                     l2030:	
  5982                           
  5983                           ;dio.c: 146:    TRISE&=~(1<<index);
  5984  0119  3001               	movlw	1
  5985  011A  00D6               	movwf	??_dio_vid_set_pin_direction
  5986  011B  0A54               	incf	dio_vid_set_pin_direction@index,w
  5987  011C  291F               	goto	u1334
  5988  011D                     u1335:	
  5989  011D  1003               	clrc
  5990  011E  0DD6               	rlf	??_dio_vid_set_pin_direction,f
  5991  011F                     u1334:	
  5992  011F  3EFF               	addlw	-1
  5993  0120  1D03               	skipz
  5994  0121  291D               	goto	u1335
  5995  0122  0856               	movf	??_dio_vid_set_pin_direction,w
  5996  0123  3AFF               	xorlw	255
  5997  0124  00D7               	movwf	??_dio_vid_set_pin_direction+1
  5998  0125  0857               	movf	??_dio_vid_set_pin_direction+1,w
  5999  0126  1683               	bsf	3,5	;RP0=1, select bank1
  6000  0127  1303               	bcf	3,6	;RP1=0, select bank1
  6001  0128  0589               	andwf	9,f	;volatile
  6002  0129  2943               	goto	l141
  6003  012A                     l2034:	
  6004  012A  0858               	movf	dio_vid_set_pin_direction@portNumber,w
  6005  012B  00D6               	movwf	??_dio_vid_set_pin_direction
  6006  012C  01D7               	clrf	??_dio_vid_set_pin_direction+1
  6007                           
  6008                           ; Switch on 2 bytes has been partitioned into a top level switch of size 1, and 1 sub-sw
      +                          itches
  6009                           ; Switch size 1, requested type "simple"
  6010                           ; Number of cases is 1, Range of values is 0 to 0
  6011                           ; switch strategies available:
  6012                           ; Name         Instructions Cycles
  6013                           ; simple_byte            4     3 (average)
  6014                           ; direct_byte           11     8 (fixed)
  6015                           ; jumptable            260     6 (fixed)
  6016                           ;	Chosen strategy is simple_byte
  6017  012D  0857               	movf	??_dio_vid_set_pin_direction+1,w
  6018  012E  3A00               	xorlw	0	; case 0
  6019  012F  1903               	skipnz
  6020  0130  2932               	goto	l2924
  6021  0131  2943               	goto	l141
  6022  0132                     l2924:	
  6023                           
  6024                           ; Switch size 1, requested type "simple"
  6025                           ; Number of cases is 5, Range of values is 0 to 4
  6026                           ; switch strategies available:
  6027                           ; Name         Instructions Cycles
  6028                           ; simple_byte           16     9 (average)
  6029                           ; direct_byte           23     8 (fixed)
  6030                           ; jumptable            260     6 (fixed)
  6031                           ;	Chosen strategy is simple_byte
  6032  0132  0856               	movf	??_dio_vid_set_pin_direction,w
  6033  0133  3A00               	xorlw	0	; case 0
  6034  0134  1903               	skipnz
  6035  0135  2853               	goto	l1992
  6036  0136  3A01               	xorlw	1	; case 1
  6037  0137  1903               	skipnz
  6038  0138  287E               	goto	l2000
  6039  0139  3A03               	xorlw	3	; case 2
  6040  013A  1903               	skipnz
  6041  013B  28A9               	goto	l2008
  6042  013C  3A01               	xorlw	1	; case 3
  6043  013D  1903               	skipnz
  6044  013E  28D4               	goto	l2016
  6045  013F  3A07               	xorlw	7	; case 4
  6046  0140  1903               	skipnz
  6047  0141  28FF               	goto	l2024
  6048  0142  2943               	goto	l141
  6049  0143                     l141:	
  6050  0143  0008               	return
  6051  0144                     __end_of_dio_vid_set_pin_direction:	
  6052                           
  6053                           	psect	text34
  6054  0D18                     __ptext34:	
  6055 ;; *************** function _i2c_u8_master_write_slave_address_with_write_req *****************
  6056 ;; Defined at:
  6057 ;;		line 71 in file "i2c.c"
  6058 ;; Parameters:    Size  Location     Type
  6059 ;;  address         1    wreg     unsigned char 
  6060 ;; Auto vars:     Size  Location     Type
  6061 ;;  address         1    7[BANK0 ] unsigned char 
  6062 ;; Return value:  Size  Location     Type
  6063 ;;                  1    wreg      unsigned char 
  6064 ;; Registers used:
  6065 ;;		wreg, status,2, status,0, pclath, cstack
  6066 ;; Tracked objects:
  6067 ;;		On entry : 0/0
  6068 ;;		On exit  : 0/0
  6069 ;;		Unchanged: 0/0
  6070 ;; Data sizes:     COMMON   BANK0   BANK1   BANK3   BANK2
  6071 ;;      Params:         0       0       0       0       0
  6072 ;;      Locals:         0       1       0       0       0
  6073 ;;      Temps:          0       1       0       0       0
  6074 ;;      Totals:         0       2       0       0       0
  6075 ;;Total ram usage:        2 bytes
  6076 ;; Hardware stack levels used:    1
  6077 ;; Hardware stack levels required when called:    4
  6078 ;; This function calls:
  6079 ;;		_i2c_vid_wait
  6080 ;; This function is called by:
  6081 ;;		_eeprom_external_vid_write
  6082 ;;		_eeprom_external_vid_read
  6083 ;; This function uses a non-reentrant model
  6084 ;;
  6085                           
  6086                           
  6087                           ;psect for function _i2c_u8_master_write_slave_address_with_write_req
  6088  0D18                     _i2c_u8_master_write_slave_address_with_write_req:	
  6089                           
  6090                           ;incstack = 0
  6091                           ; Regs used in _i2c_u8_master_write_slave_address_with_write_req: [wreg+status,2+status,
      +                          0+pclath+cstack]
  6092                           ;i2c_u8_master_write_slave_address_with_write_req@address stored from wreg
  6093  0D18  1283               	bcf	3,5	;RP0=0, select bank0
  6094  0D19  1303               	bcf	3,6	;RP1=0, select bank0
  6095  0D1A  00D5               	movwf	i2c_u8_master_write_slave_address_with_write_req@address
  6096  0D1B                     l2118:	
  6097                           
  6098                           ;i2c.c: 72:     i2c_vid_wait();
  6099  0D1B  120A  158A  24A3  120A  158A  	fcall	_i2c_vid_wait
  6100  0D20                     l2120:	
  6101                           
  6102                           ;i2c.c: 74:     SSPBUF = (address << 1);
  6103  0D20  1283               	bcf	3,5	;RP0=0, select bank0
  6104  0D21  1303               	bcf	3,6	;RP1=0, select bank0
  6105  0D22  0855               	movf	i2c_u8_master_write_slave_address_with_write_req@address,w
  6106  0D23  00D4               	movwf	??_i2c_u8_master_write_slave_address_with_write_req
  6107  0D24  0754               	addwf	??_i2c_u8_master_write_slave_address_with_write_req,w
  6108  0D25  0093               	movwf	19	;volatile
  6109  0D26                     l275:	
  6110                           ;i2c.c: 76:     while(!SSPIF);
  6111                           
  6112  0D26  1D8C               	btfss	12,3	;volatile
  6113  0D27  2D29               	goto	u1361
  6114  0D28  2D2A               	goto	u1360
  6115  0D29                     u1361:	
  6116  0D29  2D26               	goto	l275
  6117  0D2A                     u1360:	
  6118  0D2A                     l277:	
  6119                           
  6120                           ;i2c.c: 78:     SSPIF = 0;
  6121  0D2A  118C               	bcf	12,3	;volatile
  6122  0D2B                     l2122:	
  6123                           
  6124                           ;i2c.c: 79:     return ACKSTAT;
  6125  0D2B  3000               	movlw	0
  6126  0D2C  1683               	bsf	3,5	;RP0=1, select bank1
  6127  0D2D  1303               	bcf	3,6	;RP1=0, select bank1
  6128  0D2E  1B11               	btfsc	17,6	;volatile
  6129  0D2F  3001               	movlw	1
  6130  0D30                     l278:	
  6131  0D30  0008               	return
  6132  0D31                     __end_of_i2c_u8_master_write_slave_address_with_write_req:	
  6133                           
  6134                           	psect	text35
  6135  0CC2                     __ptext35:	
  6136 ;; *************** function _i2c_u8_master_write_slave_address_with_read_req *****************
  6137 ;; Defined at:
  6138 ;;		line 82 in file "i2c.c"
  6139 ;; Parameters:    Size  Location     Type
  6140 ;;  address         1    wreg     unsigned char 
  6141 ;; Auto vars:     Size  Location     Type
  6142 ;;  address         1    6[BANK0 ] unsigned char 
  6143 ;; Return value:  Size  Location     Type
  6144 ;;                  1    wreg      unsigned char 
  6145 ;; Registers used:
  6146 ;;		wreg, status,2, status,0, pclath, cstack
  6147 ;; Tracked objects:
  6148 ;;		On entry : 0/0
  6149 ;;		On exit  : 0/0
  6150 ;;		Unchanged: 0/0
  6151 ;; Data sizes:     COMMON   BANK0   BANK1   BANK3   BANK2
  6152 ;;      Params:         0       0       0       0       0
  6153 ;;      Locals:         0       1       0       0       0
  6154 ;;      Temps:          0       0       0       0       0
  6155 ;;      Totals:         0       1       0       0       0
  6156 ;;Total ram usage:        1 bytes
  6157 ;; Hardware stack levels used:    1
  6158 ;; Hardware stack levels required when called:    4
  6159 ;; This function calls:
  6160 ;;		_i2c_vid_wait
  6161 ;; This function is called by:
  6162 ;;		_eeprom_external_vid_read
  6163 ;; This function uses a non-reentrant model
  6164 ;;
  6165                           
  6166                           
  6167                           ;psect for function _i2c_u8_master_write_slave_address_with_read_req
  6168  0CC2                     _i2c_u8_master_write_slave_address_with_read_req:	
  6169                           
  6170                           ;incstack = 0
  6171                           ; Regs used in _i2c_u8_master_write_slave_address_with_read_req: [wreg+status,2+status,0
      +                          +pclath+cstack]
  6172                           ;i2c_u8_master_write_slave_address_with_read_req@address stored from wreg
  6173  0CC2  1283               	bcf	3,5	;RP0=0, select bank0
  6174  0CC3  1303               	bcf	3,6	;RP1=0, select bank0
  6175  0CC4  00D4               	movwf	i2c_u8_master_write_slave_address_with_read_req@address
  6176  0CC5                     l2134:	
  6177                           
  6178                           ;i2c.c: 83:     i2c_vid_wait();
  6179  0CC5  120A  158A  24A3  120A  158A  	fcall	_i2c_vid_wait
  6180  0CCA                     l2136:	
  6181                           
  6182                           ;i2c.c: 85:     SSPBUF = ( (address << 1) | 1);
  6183  0CCA  1403               	setc
  6184  0CCB  1283               	bcf	3,5	;RP0=0, select bank0
  6185  0CCC  1303               	bcf	3,6	;RP1=0, select bank0
  6186  0CCD  0D54               	rlf	i2c_u8_master_write_slave_address_with_read_req@address,w
  6187  0CCE  0093               	movwf	19	;volatile
  6188  0CCF                     l281:	
  6189                           ;i2c.c: 87:     while(!SSPIF);
  6190                           
  6191  0CCF  1D8C               	btfss	12,3	;volatile
  6192  0CD0  2CD2               	goto	u1381
  6193  0CD1  2CD3               	goto	u1380
  6194  0CD2                     u1381:	
  6195  0CD2  2CCF               	goto	l281
  6196  0CD3                     u1380:	
  6197  0CD3                     l283:	
  6198                           
  6199                           ;i2c.c: 89:     SSPIF = 0;
  6200  0CD3  118C               	bcf	12,3	;volatile
  6201  0CD4                     l284:	
  6202                           ;i2c.c: 90:     return ACKSTAT;;	Return value of _i2c_u8_master_write_slave_address_with
      +                          _read_req is never used
  6203                           
  6204  0CD4  0008               	return
  6205  0CD5                     __end_of_i2c_u8_master_write_slave_address_with_read_req:	
  6206                           
  6207                           	psect	text36
  6208  0CB0                     __ptext36:	
  6209 ;; *************** function _i2c_u8_master_write_byte *****************
  6210 ;; Defined at:
  6211 ;;		line 93 in file "i2c.c"
  6212 ;; Parameters:    Size  Location     Type
  6213 ;;  data            1    wreg     unsigned char 
  6214 ;; Auto vars:     Size  Location     Type
  6215 ;;  data            1    6[BANK0 ] unsigned char 
  6216 ;; Return value:  Size  Location     Type
  6217 ;;                  1    wreg      unsigned char 
  6218 ;; Registers used:
  6219 ;;		wreg, status,2, status,0, pclath, cstack
  6220 ;; Tracked objects:
  6221 ;;		On entry : 0/0
  6222 ;;		On exit  : 0/0
  6223 ;;		Unchanged: 0/0
  6224 ;; Data sizes:     COMMON   BANK0   BANK1   BANK3   BANK2
  6225 ;;      Params:         0       0       0       0       0
  6226 ;;      Locals:         0       1       0       0       0
  6227 ;;      Temps:          0       0       0       0       0
  6228 ;;      Totals:         0       1       0       0       0
  6229 ;;Total ram usage:        1 bytes
  6230 ;; Hardware stack levels used:    1
  6231 ;; Hardware stack levels required when called:    4
  6232 ;; This function calls:
  6233 ;;		_i2c_vid_wait
  6234 ;; This function is called by:
  6235 ;;		_eeprom_external_vid_write
  6236 ;;		_eeprom_external_vid_read
  6237 ;; This function uses a non-reentrant model
  6238 ;;
  6239                           
  6240                           
  6241                           ;psect for function _i2c_u8_master_write_byte
  6242  0CB0                     _i2c_u8_master_write_byte:	
  6243                           
  6244                           ;incstack = 0
  6245                           ; Regs used in _i2c_u8_master_write_byte: [wreg+status,2+status,0+pclath+cstack]
  6246                           ;i2c_u8_master_write_byte@data stored from wreg
  6247  0CB0  1283               	bcf	3,5	;RP0=0, select bank0
  6248  0CB1  1303               	bcf	3,6	;RP1=0, select bank0
  6249  0CB2  00D4               	movwf	i2c_u8_master_write_byte@data
  6250  0CB3                     l2126:	
  6251                           
  6252                           ;i2c.c: 94:     i2c_vid_wait();
  6253  0CB3  120A  158A  24A3  120A  158A  	fcall	_i2c_vid_wait
  6254  0CB8                     l2128:	
  6255                           
  6256                           ;i2c.c: 95:     SSPBUF = data;
  6257  0CB8  1283               	bcf	3,5	;RP0=0, select bank0
  6258  0CB9  1303               	bcf	3,6	;RP1=0, select bank0
  6259  0CBA  0854               	movf	i2c_u8_master_write_byte@data,w
  6260  0CBB  0093               	movwf	19	;volatile
  6261  0CBC                     l287:	
  6262                           ;i2c.c: 97:     while(!SSPIF);
  6263                           
  6264  0CBC  1D8C               	btfss	12,3	;volatile
  6265  0CBD  2CBF               	goto	u1371
  6266  0CBE  2CC0               	goto	u1370
  6267  0CBF                     u1371:	
  6268  0CBF  2CBC               	goto	l287
  6269  0CC0                     u1370:	
  6270  0CC0                     l289:	
  6271                           
  6272                           ;i2c.c: 99:     SSPIF = 0;
  6273  0CC0  118C               	bcf	12,3	;volatile
  6274  0CC1                     l290:	
  6275                           ;i2c.c: 100:     return ACKSTAT;;	Return value of _i2c_u8_master_write_byte is never use
      +                          d
  6276                           
  6277  0CC1  0008               	return
  6278  0CC2                     __end_of_i2c_u8_master_write_byte:	
  6279                           
  6280                           	psect	text37
  6281  0CEA                     __ptext37:	
  6282 ;; *************** function _i2c_u8_master_read_byte *****************
  6283 ;; Defined at:
  6284 ;;		line 103 in file "i2c.c"
  6285 ;; Parameters:    Size  Location     Type
  6286 ;;		None
  6287 ;; Auto vars:     Size  Location     Type
  6288 ;;		None
  6289 ;; Return value:  Size  Location     Type
  6290 ;;                  1    wreg      unsigned char 
  6291 ;; Registers used:
  6292 ;;		wreg, status,2, status,0, pclath, cstack
  6293 ;; Tracked objects:
  6294 ;;		On entry : 0/0
  6295 ;;		On exit  : 0/0
  6296 ;;		Unchanged: 0/0
  6297 ;; Data sizes:     COMMON   BANK0   BANK1   BANK3   BANK2
  6298 ;;      Params:         0       0       0       0       0
  6299 ;;      Locals:         0       0       0       0       0
  6300 ;;      Temps:          0       0       0       0       0
  6301 ;;      Totals:         0       0       0       0       0
  6302 ;;Total ram usage:        0 bytes
  6303 ;; Hardware stack levels used:    1
  6304 ;; Hardware stack levels required when called:    4
  6305 ;; This function calls:
  6306 ;;		_i2c_vid_wait
  6307 ;; This function is called by:
  6308 ;;		_eeprom_external_vid_read
  6309 ;; This function uses a non-reentrant model
  6310 ;;
  6311                           
  6312                           
  6313                           ;psect for function _i2c_u8_master_read_byte
  6314  0CEA                     _i2c_u8_master_read_byte:	
  6315  0CEA                     l2138:	
  6316                           ;incstack = 0
  6317                           ; Regs used in _i2c_u8_master_read_byte: [wreg+status,2+status,0+pclath+cstack]
  6318                           
  6319                           
  6320                           ;i2c.c: 104:     i2c_vid_wait();
  6321  0CEA  120A  158A  24A3  120A  158A  	fcall	_i2c_vid_wait
  6322  0CEF                     l2140:	
  6323                           
  6324                           ;i2c.c: 106:     RCEN = 1;
  6325  0CEF  1683               	bsf	3,5	;RP0=1, select bank1
  6326  0CF0  1303               	bcf	3,6	;RP1=0, select bank1
  6327  0CF1  1591               	bsf	17,3	;volatile
  6328  0CF2                     l293:	
  6329                           ;i2c.c: 108:     while(!SSPIF);
  6330                           
  6331  0CF2  1283               	bcf	3,5	;RP0=0, select bank0
  6332  0CF3  1D8C               	btfss	12,3	;volatile
  6333  0CF4  2CF6               	goto	u1391
  6334  0CF5  2CF7               	goto	u1390
  6335  0CF6                     u1391:	
  6336  0CF6  2CF2               	goto	l293
  6337  0CF7                     u1390:	
  6338  0CF7                     l295:	
  6339                           
  6340                           ;i2c.c: 110:     SSPIF = 0;
  6341  0CF7  118C               	bcf	12,3	;volatile
  6342  0CF8                     l2142:	
  6343                           
  6344                           ;i2c.c: 111:     i2c_vid_wait();
  6345  0CF8  120A  158A  24A3  120A  158A  	fcall	_i2c_vid_wait
  6346  0CFD                     l2144:	
  6347                           
  6348                           ;i2c.c: 112:     return SSPBUF;
  6349  0CFD  1283               	bcf	3,5	;RP0=0, select bank0
  6350  0CFE  1303               	bcf	3,6	;RP1=0, select bank0
  6351  0CFF  0813               	movf	19,w	;volatile
  6352  0D00                     l296:	
  6353  0D00  0008               	return
  6354  0D01                     __end_of_i2c_u8_master_read_byte:	
  6355                           
  6356                           	psect	text38
  6357  0CA3                     __ptext38:	
  6358 ;; *************** function _i2c_vid_wait *****************
  6359 ;; Defined at:
  6360 ;;		line 55 in file "i2c.c"
  6361 ;; Parameters:    Size  Location     Type
  6362 ;;		None
  6363 ;; Auto vars:     Size  Location     Type
  6364 ;;		None
  6365 ;; Return value:  Size  Location     Type
  6366 ;;                  1    wreg      void 
  6367 ;; Registers used:
  6368 ;;		wreg, status,2
  6369 ;; Tracked objects:
  6370 ;;		On entry : 0/0
  6371 ;;		On exit  : 0/0
  6372 ;;		Unchanged: 0/0
  6373 ;; Data sizes:     COMMON   BANK0   BANK1   BANK3   BANK2
  6374 ;;      Params:         0       0       0       0       0
  6375 ;;      Locals:         0       0       0       0       0
  6376 ;;      Temps:          0       0       0       0       0
  6377 ;;      Totals:         0       0       0       0       0
  6378 ;;Total ram usage:        0 bytes
  6379 ;; Hardware stack levels used:    1
  6380 ;; Hardware stack levels required when called:    3
  6381 ;; This function calls:
  6382 ;;		Nothing
  6383 ;; This function is called by:
  6384 ;;		_i2c_vid_start
  6385 ;;		_i2c_vid_stop
  6386 ;;		_i2c_vid_restart
  6387 ;;		_i2c_vid_nack
  6388 ;;		_i2c_u8_master_write_slave_address_with_write_req
  6389 ;;		_i2c_u8_master_write_slave_address_with_read_req
  6390 ;;		_i2c_u8_master_write_byte
  6391 ;;		_i2c_u8_master_read_byte
  6392 ;;		_i2c_vid_ack
  6393 ;; This function uses a non-reentrant model
  6394 ;;
  6395                           
  6396                           
  6397                           ;psect for function _i2c_vid_wait
  6398  0CA3                     _i2c_vid_wait:	
  6399  0CA3                     l2042:	
  6400                           ;incstack = 0
  6401                           ; Regs used in _i2c_vid_wait: [wreg+status,2]
  6402                           
  6403  0CA3                     l263:	
  6404                           ;i2c.c: 56:     while ((SSPSTAT & 0x04) || (SSPCON2 & 0x1F));
  6405                           
  6406  0CA3  1683               	bsf	3,5	;RP0=1, select bank1
  6407  0CA4  1303               	bcf	3,6	;RP1=0, select bank1
  6408  0CA5  1914               	btfsc	20,2	;volatile
  6409  0CA6  2CA8               	goto	u1341
  6410  0CA7  2CA9               	goto	u1340
  6411  0CA8                     u1341:	
  6412  0CA8  2CA3               	goto	l263
  6413  0CA9                     u1340:	
  6414  0CA9                     l2044:	
  6415  0CA9  0811               	movf	17,w	;volatile
  6416  0CAA  391F               	andlw	31
  6417  0CAB  1D03               	btfss	3,2
  6418  0CAC  2CAE               	goto	u1351
  6419  0CAD  2CAF               	goto	u1350
  6420  0CAE                     u1351:	
  6421  0CAE  2CA3               	goto	l263
  6422  0CAF                     u1350:	
  6423  0CAF                     l266:	
  6424  0CAF  0008               	return
  6425  0CB0                     __end_of_i2c_vid_wait:	
  6426                           
  6427                           	psect	text39
  6428  06A9                     __ptext39:	
  6429 ;; *************** function ___awmod *****************
  6430 ;; Defined at:
  6431 ;;		line 5 in file "C:\Program Files (x86)\Microchip\xc8\v2.10\pic\sources\c90\common\awmod.c"
  6432 ;; Parameters:    Size  Location     Type
  6433 ;;  divisor         2    6[BANK0 ] int 
  6434 ;;  dividend        2    8[BANK0 ] int 
  6435 ;; Auto vars:     Size  Location     Type
  6436 ;;  sign            1   12[BANK0 ] unsigned char 
  6437 ;;  counter         1   11[BANK0 ] unsigned char 
  6438 ;; Return value:  Size  Location     Type
  6439 ;;                  2    6[BANK0 ] int 
  6440 ;; Registers used:
  6441 ;;		wreg, status,2, status,0
  6442 ;; Tracked objects:
  6443 ;;		On entry : 0/0
  6444 ;;		On exit  : 0/0
  6445 ;;		Unchanged: 0/0
  6446 ;; Data sizes:     COMMON   BANK0   BANK1   BANK3   BANK2
  6447 ;;      Params:         0       4       0       0       0
  6448 ;;      Locals:         0       2       0       0       0
  6449 ;;      Temps:          0       1       0       0       0
  6450 ;;      Totals:         0       7       0       0       0
  6451 ;;Total ram usage:        7 bytes
  6452 ;; Hardware stack levels used:    1
  6453 ;; Hardware stack levels required when called:    3
  6454 ;; This function calls:
  6455 ;;		Nothing
  6456 ;; This function is called by:
  6457 ;;		_counter_vid_init
  6458 ;; This function uses a non-reentrant model
  6459 ;;
  6460                           
  6461                           
  6462                           ;psect for function ___awmod
  6463  06A9                     ___awmod:	
  6464  06A9                     l2362:	
  6465                           ;incstack = 0
  6466                           ; Regs used in ___awmod: [wreg+status,2+status,0]
  6467                           
  6468  06A9  1283               	bcf	3,5	;RP0=0, select bank0
  6469  06AA  1303               	bcf	3,6	;RP1=0, select bank0
  6470  06AB  01DA               	clrf	___awmod@sign
  6471  06AC                     l2364:	
  6472  06AC  1FD7               	btfss	___awmod@dividend+1,7
  6473  06AD  2EAF               	goto	u1651
  6474  06AE  2EB0               	goto	u1650
  6475  06AF                     u1651:	
  6476  06AF  2EB7               	goto	l2370
  6477  06B0                     u1650:	
  6478  06B0                     l2366:	
  6479  06B0  09D6               	comf	___awmod@dividend,f
  6480  06B1  09D7               	comf	___awmod@dividend+1,f
  6481  06B2  0AD6               	incf	___awmod@dividend,f
  6482  06B3  1903               	skipnz
  6483  06B4  0AD7               	incf	___awmod@dividend+1,f
  6484  06B5                     l2368:	
  6485  06B5  01DA               	clrf	___awmod@sign
  6486  06B6  0ADA               	incf	___awmod@sign,f
  6487  06B7                     l2370:	
  6488  06B7  1FD5               	btfss	___awmod@divisor+1,7
  6489  06B8  2EBA               	goto	u1661
  6490  06B9  2EBB               	goto	u1660
  6491  06BA                     u1661:	
  6492  06BA  2EC0               	goto	l2374
  6493  06BB                     u1660:	
  6494  06BB                     l2372:	
  6495  06BB  09D4               	comf	___awmod@divisor,f
  6496  06BC  09D5               	comf	___awmod@divisor+1,f
  6497  06BD  0AD4               	incf	___awmod@divisor,f
  6498  06BE  1903               	skipnz
  6499  06BF  0AD5               	incf	___awmod@divisor+1,f
  6500  06C0                     l2374:	
  6501  06C0  0854               	movf	___awmod@divisor,w
  6502  06C1  0455               	iorwf	___awmod@divisor+1,w
  6503  06C2  1903               	btfsc	3,2
  6504  06C3  2EC5               	goto	u1671
  6505  06C4  2EC6               	goto	u1670
  6506  06C5                     u1671:	
  6507  06C5  2EF5               	goto	l2392
  6508  06C6                     u1670:	
  6509  06C6                     l2376:	
  6510  06C6  01D9               	clrf	___awmod@counter
  6511  06C7  0AD9               	incf	___awmod@counter,f
  6512  06C8  2ED4               	goto	l2382
  6513  06C9                     l2378:	
  6514  06C9  3001               	movlw	1
  6515  06CA                     u1685:	
  6516  06CA  1003               	clrc
  6517  06CB  0DD4               	rlf	___awmod@divisor,f
  6518  06CC  0DD5               	rlf	___awmod@divisor+1,f
  6519  06CD  3EFF               	addlw	-1
  6520  06CE  1D03               	skipz
  6521  06CF  2ECA               	goto	u1685
  6522  06D0                     l2380:	
  6523  06D0  3001               	movlw	1
  6524  06D1  00D8               	movwf	??___awmod
  6525  06D2  0858               	movf	??___awmod,w
  6526  06D3  07D9               	addwf	___awmod@counter,f
  6527  06D4                     l2382:	
  6528  06D4  1FD5               	btfss	___awmod@divisor+1,7
  6529  06D5  2ED7               	goto	u1691
  6530  06D6  2ED8               	goto	u1690
  6531  06D7                     u1691:	
  6532  06D7  2EC9               	goto	l2378
  6533  06D8                     u1690:	
  6534  06D8                     l2384:	
  6535  06D8  0855               	movf	___awmod@divisor+1,w
  6536  06D9  0257               	subwf	___awmod@dividend+1,w
  6537  06DA  1D03               	skipz
  6538  06DB  2EDE               	goto	u1705
  6539  06DC  0854               	movf	___awmod@divisor,w
  6540  06DD  0256               	subwf	___awmod@dividend,w
  6541  06DE                     u1705:	
  6542  06DE  1C03               	skipc
  6543  06DF  2EE1               	goto	u1701
  6544  06E0  2EE2               	goto	u1700
  6545  06E1                     u1701:	
  6546  06E1  2EE8               	goto	l2388
  6547  06E2                     u1700:	
  6548  06E2                     l2386:	
  6549  06E2  0854               	movf	___awmod@divisor,w
  6550  06E3  02D6               	subwf	___awmod@dividend,f
  6551  06E4  0855               	movf	___awmod@divisor+1,w
  6552  06E5  1C03               	skipc
  6553  06E6  03D7               	decf	___awmod@dividend+1,f
  6554  06E7  02D7               	subwf	___awmod@dividend+1,f
  6555  06E8                     l2388:	
  6556  06E8  3001               	movlw	1
  6557  06E9                     u1715:	
  6558  06E9  1003               	clrc
  6559  06EA  0CD5               	rrf	___awmod@divisor+1,f
  6560  06EB  0CD4               	rrf	___awmod@divisor,f
  6561  06EC  3EFF               	addlw	-1
  6562  06ED  1D03               	skipz
  6563  06EE  2EE9               	goto	u1715
  6564  06EF                     l2390:	
  6565  06EF  3001               	movlw	1
  6566  06F0  02D9               	subwf	___awmod@counter,f
  6567  06F1  1D03               	btfss	3,2
  6568  06F2  2EF4               	goto	u1721
  6569  06F3  2EF5               	goto	u1720
  6570  06F4                     u1721:	
  6571  06F4  2ED8               	goto	l2384
  6572  06F5                     u1720:	
  6573  06F5                     l2392:	
  6574  06F5  085A               	movf	___awmod@sign,w
  6575  06F6  1903               	btfsc	3,2
  6576  06F7  2EF9               	goto	u1731
  6577  06F8  2EFA               	goto	u1730
  6578  06F9                     u1731:	
  6579  06F9  2EFF               	goto	l2396
  6580  06FA                     u1730:	
  6581  06FA                     l2394:	
  6582  06FA  09D6               	comf	___awmod@dividend,f
  6583  06FB  09D7               	comf	___awmod@dividend+1,f
  6584  06FC  0AD6               	incf	___awmod@dividend,f
  6585  06FD  1903               	skipnz
  6586  06FE  0AD7               	incf	___awmod@dividend+1,f
  6587  06FF                     l2396:	
  6588  06FF  0857               	movf	___awmod@dividend+1,w
  6589  0700  00D5               	movwf	?___awmod+1
  6590  0701  0856               	movf	___awmod@dividend,w
  6591  0702  00D4               	movwf	?___awmod
  6592  0703                     l782:	
  6593  0703  0008               	return
  6594  0704                     __end_of___awmod:	
  6595                           
  6596                           	psect	text40
  6597  0C47                     __ptext40:	
  6598 ;; *************** function _counter_u8_get_counter *****************
  6599 ;; Defined at:
  6600 ;;		line 60 in file "counter.c"
  6601 ;; Parameters:    Size  Location     Type
  6602 ;;		None
  6603 ;; Auto vars:     Size  Location     Type
  6604 ;;		None
  6605 ;; Return value:  Size  Location     Type
  6606 ;;                  1    wreg      unsigned char 
  6607 ;; Registers used:
  6608 ;;		wreg
  6609 ;; Tracked objects:
  6610 ;;		On entry : 0/0
  6611 ;;		On exit  : 0/0
  6612 ;;		Unchanged: 0/0
  6613 ;; Data sizes:     COMMON   BANK0   BANK1   BANK3   BANK2
  6614 ;;      Params:         0       0       0       0       0
  6615 ;;      Locals:         0       0       0       0       0
  6616 ;;      Temps:          0       0       0       0       0
  6617 ;;      Totals:         0       0       0       0       0
  6618 ;;Total ram usage:        0 bytes
  6619 ;; Hardware stack levels used:    1
  6620 ;; Hardware stack levels required when called:    3
  6621 ;; This function calls:
  6622 ;;		Nothing
  6623 ;; This function is called by:
  6624 ;;		_display_init
  6625 ;;		_display_vid_update
  6626 ;; This function uses a non-reentrant model
  6627 ;;
  6628                           
  6629                           
  6630                           ;psect for function _counter_u8_get_counter
  6631  0C47                     _counter_u8_get_counter:	
  6632  0C47                     l2186:	
  6633                           ;incstack = 0
  6634                           ; Regs used in _counter_u8_get_counter: [wreg]
  6635                           
  6636                           
  6637                           ;counter.c: 61:     return counter;
  6638  0C47  1283               	bcf	3,5	;RP0=0, select bank0
  6639  0C48  1303               	bcf	3,6	;RP1=0, select bank0
  6640  0C49  0866               	movf	_counter,w
  6641  0C4A                     l38:	
  6642  0C4A  0008               	return
  6643  0C4B                     __end_of_counter_u8_get_counter:	
  6644                           
  6645                           	psect	text41
  6646  075E                     __ptext41:	
  6647 ;; *************** function _timer_isr *****************
  6648 ;; Defined at:
  6649 ;;		line 21 in file "timer.c"
  6650 ;; Parameters:    Size  Location     Type
  6651 ;;		None
  6652 ;; Auto vars:     Size  Location     Type
  6653 ;;		None
  6654 ;; Return value:  Size  Location     Type
  6655 ;;                  1    wreg      void 
  6656 ;; Registers used:
  6657 ;;		wreg, fsr0l, fsr0h, status,2, status,0, pclath, cstack
  6658 ;; Tracked objects:
  6659 ;;		On entry : 0/0
  6660 ;;		On exit  : 0/0
  6661 ;;		Unchanged: 0/0
  6662 ;; Data sizes:     COMMON   BANK0   BANK1   BANK3   BANK2
  6663 ;;      Params:         0       0       0       0       0
  6664 ;;      Locals:         0       0       0       0       0
  6665 ;;      Temps:          0       6       0       0       0
  6666 ;;      Totals:         0       6       0       0       0
  6667 ;;Total ram usage:        6 bytes
  6668 ;; Hardware stack levels used:    1
  6669 ;; Hardware stack levels required when called:    2
  6670 ;; This function calls:
  6671 ;;		Absolute function
  6672 ;;		_sch_update
  6673 ;; This function is called by:
  6674 ;;		Interrupt level 1
  6675 ;; This function uses a non-reentrant model
  6676 ;;
  6677                           
  6678                           
  6679                           ;psect for function _timer_isr
  6680  075E                     _timer_isr:	
  6681  075E                     i1l2658:	
  6682                           
  6683                           ;timer.c: 22:     if (TMR0IF == 1) {
  6684  075E  1D0B               	btfss	11,2	;volatile
  6685  075F  2F61               	goto	u220_21
  6686  0760  2F62               	goto	u220_20
  6687  0761                     u220_21:	
  6688  0761  2F69               	goto	i1l2664
  6689  0762                     u220_20:	
  6690  0762                     i1l2660:	
  6691                           
  6692                           ;timer.c: 23:         TMR0IF = 0;
  6693  0762  110B               	bcf	11,2	;volatile
  6694  0763                     i1l2662:	
  6695                           
  6696                           ;timer.c: 24:         timer0_isr();
  6697  0763  087C               	movf	_timer0_isr,w
  6698  0764  120A  118A  2046  120A  118A  	fcall	i1fptable
  6699  0769                     i1l2664:	
  6700                           
  6701                           ;timer.c: 26:     if (((PIR1>>TMR1IF)&1) == 1) {
  6702  0769  1283               	bcf	3,5	;RP0=0, select bank0
  6703  076A  1303               	bcf	3,6	;RP1=0, select bank0
  6704  076B  080C               	movf	12,w	;volatile
  6705  076C  00CE               	movwf	??_timer_isr
  6706  076D  3000               	movlw	0
  6707  076E  180C               	btfsc	12,0	;volatile
  6708  076F  3001               	movlw	1
  6709  0770  3E01               	addlw	1
  6710  0771  2F74               	goto	u221_24
  6711  0772                     u221_25:	
  6712  0772  1003               	clrc
  6713  0773  0CCE               	rrf	??_timer_isr,f
  6714  0774                     u221_24:	
  6715  0774  3EFF               	addlw	-1
  6716  0775  1D03               	skipz
  6717  0776  2F72               	goto	u221_25
  6718  0777  1C4E               	btfss	??_timer_isr,0
  6719  0778  2F7A               	goto	u222_21
  6720  0779  2F7B               	goto	u222_20
  6721  077A                     u222_21:	
  6722  077A  2F8C               	goto	i1l451
  6723  077B                     u222_20:	
  6724  077B                     i1l2666:	
  6725                           
  6726                           ;timer.c: 28:         timer1_isr();
  6727  077B  3001               	movlw	1
  6728  077C  00CE               	movwf	??_timer_isr
  6729  077D  3000               	movlw	0
  6730  077E  180C               	btfsc	12,0	;volatile
  6731  077F  3001               	movlw	1
  6732  0780  3E01               	addlw	1
  6733  0781  2F84               	goto	u223_24
  6734  0782                     u223_25:	
  6735  0782  1003               	clrc
  6736  0783  0DCE               	rlf	??_timer_isr,f
  6737  0784                     u223_24:	
  6738  0784  3EFF               	addlw	-1
  6739  0785  1D03               	skipz
  6740  0786  2F82               	goto	u223_25
  6741  0787  084E               	movf	??_timer_isr,w
  6742  0788  3AFF               	xorlw	255
  6743  0789  00CF               	movwf	??_timer_isr+1
  6744  078A  084F               	movf	??_timer_isr+1,w
  6745  078B  058C               	andwf	12,f	;volatile
  6746  078C                     i1l451:	
  6747                           ;timer.c: 29:     }
  6748                           
  6749                           
  6750                           ;timer.c: 30:     if (((PIR1>>TMR2IF)&1) == 1) {
  6751  078C  080C               	movf	12,w	;volatile
  6752  078D  00CE               	movwf	??_timer_isr
  6753  078E  3000               	movlw	0
  6754  078F  188C               	btfsc	12,1	;volatile
  6755  0790  3001               	movlw	1
  6756  0791  3E01               	addlw	1
  6757  0792  2F95               	goto	u224_24
  6758  0793                     u224_25:	
  6759  0793  1003               	clrc
  6760  0794  0CCE               	rrf	??_timer_isr,f
  6761  0795                     u224_24:	
  6762  0795  3EFF               	addlw	-1
  6763  0796  1D03               	skipz
  6764  0797  2F93               	goto	u224_25
  6765  0798  1C4E               	btfss	??_timer_isr,0
  6766  0799  2F9B               	goto	u225_21
  6767  079A  2F9C               	goto	u225_20
  6768  079B                     u225_21:	
  6769  079B  2FAD               	goto	i1l453
  6770  079C                     u225_20:	
  6771  079C                     i1l2668:	
  6772                           
  6773                           ;timer.c: 32:         timer2_isr();
  6774  079C  3001               	movlw	1
  6775  079D  00CE               	movwf	??_timer_isr
  6776  079E  3000               	movlw	0
  6777  079F  188C               	btfsc	12,1	;volatile
  6778  07A0  3001               	movlw	1
  6779  07A1  3E01               	addlw	1
  6780  07A2  2FA5               	goto	u226_24
  6781  07A3                     u226_25:	
  6782  07A3  1003               	clrc
  6783  07A4  0DCE               	rlf	??_timer_isr,f
  6784  07A5                     u226_24:	
  6785  07A5  3EFF               	addlw	-1
  6786  07A6  1D03               	skipz
  6787  07A7  2FA3               	goto	u226_25
  6788  07A8  084E               	movf	??_timer_isr,w
  6789  07A9  3AFF               	xorlw	255
  6790  07AA  00CF               	movwf	??_timer_isr+1
  6791  07AB  084F               	movf	??_timer_isr+1,w
  6792  07AC  058C               	andwf	12,f	;volatile
  6793  07AD                     i1l453:	
  6794  07AD  0853               	movf	??_timer_isr+5,w
  6795  07AE  00FF               	movwf	btemp+1
  6796  07AF  0852               	movf	??_timer_isr+4,w
  6797  07B0  008A               	movwf	10
  6798  07B1  0851               	movf	??_timer_isr+3,w
  6799  07B2  0084               	movwf	4
  6800  07B3  0E50               	swapf	(??_timer_isr+2)^0,w
  6801  07B4  0083               	movwf	3
  6802  07B5  0EFE               	swapf	btemp,f
  6803  07B6  0E7E               	swapf	btemp,w
  6804  07B7  0009               	retfie
  6805  07B8                     __end_of_timer_isr:	
  6806                           
  6807                           	psect	intentry
  6808  0004                     __pintentry:	
  6809                           ;incstack = 0
  6810                           ; Regs used in _timer_isr: [wreg-fsr0h+status,2+status,0+pclath+cstack]
  6811                           
  6812  0004                     interrupt_function:	
  6813  007E                     saved_w	set	btemp
  6814  0004  00FE               	movwf	btemp
  6815  0005  0E03               	swapf	3,w
  6816  0006  1283               	bcf	3,5	;RP0=0, select bank0
  6817  0007  1303               	bcf	3,6	;RP1=0, select bank0
  6818  0008  00D0               	movwf	??_timer_isr+2
  6819  0009  0804               	movf	4,w
  6820  000A  00D1               	movwf	??_timer_isr+3
  6821  000B  080A               	movf	10,w
  6822  000C  00D2               	movwf	??_timer_isr+4
  6823  000D  087F               	movf	btemp+1,w
  6824  000E  00D3               	movwf	??_timer_isr+5
  6825  000F  120A  118A  2F5E   	ljmp	_timer_isr
  6826                           
  6827                           	psect	text42
  6828  0225                     __ptext42:	
  6829 ;; *************** function _sch_update *****************
  6830 ;; Defined at:
  6831 ;;		line 29 in file "scheduler.c"
  6832 ;; Parameters:    Size  Location     Type
  6833 ;;		None
  6834 ;; Auto vars:     Size  Location     Type
  6835 ;;  index           1   10[COMMON] unsigned char 
  6836 ;; Return value:  Size  Location     Type
  6837 ;;                  1    wreg      void 
  6838 ;; Registers used:
  6839 ;;		wreg, fsr0l, fsr0h, status,2, status,0, pclath, cstack
  6840 ;; Tracked objects:
  6841 ;;		On entry : 0/0
  6842 ;;		On exit  : 0/0
  6843 ;;		Unchanged: 0/0
  6844 ;; Data sizes:     COMMON   BANK0   BANK1   BANK3   BANK2
  6845 ;;      Params:         0       0       0       0       0
  6846 ;;      Locals:         1       0       0       0       0
  6847 ;;      Temps:          6       0       0       0       0
  6848 ;;      Totals:         7       0       0       0       0
  6849 ;;Total ram usage:        7 bytes
  6850 ;; Hardware stack levels used:    1
  6851 ;; Hardware stack levels required when called:    1
  6852 ;; This function calls:
  6853 ;;		i1___bmul
  6854 ;; This function is called by:
  6855 ;;		_sch_vid_init
  6856 ;;		_timer_isr
  6857 ;; This function uses a non-reentrant model
  6858 ;;
  6859                           
  6860                           
  6861                           ;psect for function _sch_update
  6862  0225                     _sch_update:	
  6863  0225                     i1l2628:	
  6864                           ;incstack = 0
  6865                           ; Regs used in _sch_update: [wreg-fsr0h+status,2+status,0+pclath+cstack]
  6866                           
  6867                           
  6868                           ;scheduler.c: 30:     u8 index;;scheduler.c: 31:     for (index = 0; index < 3; index++)
      +                           {
  6869  0225  01FA               	clrf	sch_update@index
  6870  0226                     i1l2634:	
  6871                           
  6872                           ;scheduler.c: 33:         if (sch_tasks[index].taskFunction) {
  6873  0226  300D               	movlw	13
  6874  0227  00F4               	movwf	??_sch_update
  6875  0228  0874               	movf	??_sch_update,w
  6876  0229  00F0               	movwf	i1___bmul@multiplicand
  6877  022A  087A               	movf	sch_update@index,w
  6878  022B  120A  158A  24D5  120A  118A  	fcall	i1___bmul
  6879  0230  3E20               	addlw	(low (_sch_tasks| 0))& (0+255)
  6880  0231  0084               	movwf	4
  6881  0232  1383               	bcf	3,7	;select IRP bank0
  6882  0233  0800               	movf	0,w
  6883  0234  1903               	btfsc	3,2
  6884  0235  2A37               	goto	u216_21
  6885  0236  2A38               	goto	u216_20
  6886  0237                     u216_21:	
  6887  0237  2AE9               	goto	i1l2644
  6888  0238                     u216_20:	
  6889  0238                     i1l2636:	
  6890                           
  6891                           ;scheduler.c: 34:             if (sch_tasks[index].delay == 0) {
  6892  0238  300D               	movlw	13
  6893  0239  00F4               	movwf	??_sch_update
  6894  023A  0874               	movf	??_sch_update,w
  6895  023B  00F0               	movwf	i1___bmul@multiplicand
  6896  023C  087A               	movf	sch_update@index,w
  6897  023D  120A  158A  24D5  120A  118A  	fcall	i1___bmul
  6898  0242  3E21               	addlw	(low ((_sch_tasks| 0+1)))& (0+255)
  6899  0243  0084               	movwf	4
  6900  0244  1383               	bcf	3,7	;select IRP bank0
  6901  0245  0800               	movf	0,w
  6902  0246  00F5               	movwf	??_sch_update+1
  6903  0247  0A84               	incf	4,f
  6904  0248  0800               	movf	0,w
  6905  0249  00F6               	movwf	??_sch_update+2
  6906  024A  0A84               	incf	4,f
  6907  024B  0800               	movf	0,w
  6908  024C  00F7               	movwf	??_sch_update+3
  6909  024D  0A84               	incf	4,f
  6910  024E  0800               	movf	0,w
  6911  024F  00F8               	movwf	??_sch_update+4
  6912  0250  0878               	movf	??_sch_update+4,w
  6913  0251  0477               	iorwf	??_sch_update+3,w
  6914  0252  0476               	iorwf	??_sch_update+2,w
  6915  0253  0475               	iorwf	??_sch_update+1,w
  6916  0254  1D03               	skipz
  6917  0255  2A57               	goto	u217_21
  6918  0256  2A58               	goto	u217_20
  6919  0257                     u217_21:	
  6920  0257  2AC9               	goto	i1l2642
  6921  0258                     u217_20:	
  6922  0258                     i1l2638:	
  6923                           
  6924                           ;scheduler.c: 36:                 sch_tasks[index].runMe += 1;
  6925  0258  300D               	movlw	13
  6926  0259  00F4               	movwf	??_sch_update
  6927  025A  0874               	movf	??_sch_update,w
  6928  025B  00F0               	movwf	i1___bmul@multiplicand
  6929  025C  087A               	movf	sch_update@index,w
  6930  025D  120A  158A  24D5  120A  118A  	fcall	i1___bmul
  6931  0262  3E29               	addlw	(low ((_sch_tasks| 0+9)))& (0+255)
  6932  0263  0084               	movwf	4
  6933  0264  3001               	movlw	1
  6934  0265  1383               	bcf	3,7	;select IRP bank0
  6935  0266  0780               	addwf	0,f
  6936  0267  0A84               	incf	4,f
  6937  0268  3000               	movlw	0
  6938  0269  1803               	skipnc
  6939  026A  3E01               	addlw	1
  6940  026B  1D03               	skipz
  6941  026C  0780               	addwf	0,f
  6942  026D  0A84               	incf	4,f
  6943  026E  3000               	movlw	0
  6944  026F  1803               	skipnc
  6945  0270  3E01               	addlw	1
  6946  0271  1D03               	skipz
  6947  0272  0780               	addwf	0,f
  6948  0273  0A84               	incf	4,f
  6949  0274  3000               	movlw	0
  6950  0275  1803               	skipnc
  6951  0276  3E01               	addlw	1
  6952  0277  0780               	addwf	0,f
  6953                           
  6954                           ;scheduler.c: 37:                 if (sch_tasks[index].period) {
  6955  0278  300D               	movlw	13
  6956  0279  00F4               	movwf	??_sch_update
  6957  027A  0874               	movf	??_sch_update,w
  6958  027B  00F0               	movwf	i1___bmul@multiplicand
  6959  027C  087A               	movf	sch_update@index,w
  6960  027D  120A  158A  24D5  120A  118A  	fcall	i1___bmul
  6961  0282  3E25               	addlw	(low ((_sch_tasks| 0+5)))& (0+255)
  6962  0283  0084               	movwf	4
  6963  0284  1383               	bcf	3,7	;select IRP bank0
  6964  0285  0800               	movf	0,w
  6965  0286  00F5               	movwf	??_sch_update+1
  6966  0287  0A84               	incf	4,f
  6967  0288  0800               	movf	0,w
  6968  0289  00F6               	movwf	??_sch_update+2
  6969  028A  0A84               	incf	4,f
  6970  028B  0800               	movf	0,w
  6971  028C  00F7               	movwf	??_sch_update+3
  6972  028D  0A84               	incf	4,f
  6973  028E  0800               	movf	0,w
  6974  028F  00F8               	movwf	??_sch_update+4
  6975  0290  0878               	movf	??_sch_update+4,w
  6976  0291  0477               	iorwf	??_sch_update+3,w
  6977  0292  0476               	iorwf	??_sch_update+2,w
  6978  0293  0475               	iorwf	??_sch_update+1,w
  6979  0294  1903               	skipnz
  6980  0295  2A97               	goto	u218_21
  6981  0296  2A98               	goto	u218_20
  6982  0297                     u218_21:	
  6983  0297  2AE9               	goto	i1l2644
  6984  0298                     u218_20:	
  6985  0298                     i1l2640:	
  6986                           
  6987                           ;scheduler.c: 39:                     sch_tasks[index].delay = sch_tasks[index].period;
  6988  0298  300D               	movlw	13
  6989  0299  00F4               	movwf	??_sch_update
  6990  029A  0874               	movf	??_sch_update,w
  6991  029B  00F0               	movwf	i1___bmul@multiplicand
  6992  029C  087A               	movf	sch_update@index,w
  6993  029D  120A  158A  24D5  120A  118A  	fcall	i1___bmul
  6994  02A2  3E25               	addlw	(low ((_sch_tasks| 0+5)))& (0+255)
  6995  02A3  0084               	movwf	4
  6996  02A4  1383               	bcf	3,7	;select IRP bank0
  6997  02A5  0800               	movf	0,w
  6998  02A6  00F5               	movwf	??_sch_update+1
  6999  02A7  0A84               	incf	4,f
  7000  02A8  0800               	movf	0,w
  7001  02A9  00F6               	movwf	??_sch_update+2
  7002  02AA  0A84               	incf	4,f
  7003  02AB  0800               	movf	0,w
  7004  02AC  00F7               	movwf	??_sch_update+3
  7005  02AD  0A84               	incf	4,f
  7006  02AE  0800               	movf	0,w
  7007  02AF  00F8               	movwf	??_sch_update+4
  7008  02B0  300D               	movlw	13
  7009  02B1  00F9               	movwf	??_sch_update+5
  7010  02B2  0879               	movf	??_sch_update+5,w
  7011  02B3  00F0               	movwf	i1___bmul@multiplicand
  7012  02B4  087A               	movf	sch_update@index,w
  7013  02B5  120A  158A  24D5  120A  118A  	fcall	i1___bmul
  7014  02BA  3E21               	addlw	(low ((_sch_tasks| 0+1)))& (0+255)
  7015  02BB  0084               	movwf	4
  7016  02BC  0875               	movf	??_sch_update+1,w
  7017  02BD  1383               	bcf	3,7	;select IRP bank0
  7018  02BE  0080               	movwf	0
  7019  02BF  0A84               	incf	4,f
  7020  02C0  0876               	movf	??_sch_update+2,w
  7021  02C1  0080               	movwf	0
  7022  02C2  0A84               	incf	4,f
  7023  02C3  0877               	movf	??_sch_update+3,w
  7024  02C4  0080               	movwf	0
  7025  02C5  0A84               	incf	4,f
  7026  02C6  0878               	movf	??_sch_update+4,w
  7027  02C7  0080               	movwf	0
  7028  02C8  2AE9               	goto	i1l2644
  7029  02C9                     i1l2642:	
  7030                           
  7031                           ;scheduler.c: 43:                 sch_tasks[index].delay -= 1;
  7032  02C9  300D               	movlw	13
  7033  02CA  00F4               	movwf	??_sch_update
  7034  02CB  0874               	movf	??_sch_update,w
  7035  02CC  00F0               	movwf	i1___bmul@multiplicand
  7036  02CD  087A               	movf	sch_update@index,w
  7037  02CE  120A  158A  24D5  120A  118A  	fcall	i1___bmul
  7038  02D3  3E21               	addlw	(low ((_sch_tasks| 0+1)))& (0+255)
  7039  02D4  0084               	movwf	4
  7040  02D5  3001               	movlw	1
  7041  02D6  1383               	bcf	3,7	;select IRP bank0
  7042  02D7  0280               	subwf	0,f
  7043  02D8  0A84               	incf	4,f
  7044  02D9  3000               	movlw	0
  7045  02DA  1C03               	skipc
  7046  02DB  3001               	movlw	1
  7047  02DC  0280               	subwf	0,f
  7048  02DD  0A84               	incf	4,f
  7049  02DE  3000               	movlw	0
  7050  02DF  1C03               	skipc
  7051  02E0  3001               	movlw	1
  7052  02E1  0280               	subwf	0,f
  7053  02E2  0A84               	incf	4,f
  7054  02E3  3000               	movlw	0
  7055  02E4  1C03               	skipc
  7056  02E5  3001               	movlw	1
  7057  02E6  0280               	subwf	0,f
  7058  02E7  3003               	movlw	3
  7059  02E8  0284               	subwf	4,f
  7060  02E9                     i1l2644:	
  7061                           
  7062                           ;scheduler.c: 46:     }
  7063  02E9  3001               	movlw	1
  7064  02EA  00F4               	movwf	??_sch_update
  7065  02EB  0874               	movf	??_sch_update,w
  7066  02EC  07FA               	addwf	sch_update@index,f
  7067  02ED                     i1l2646:	
  7068  02ED  3003               	movlw	3
  7069  02EE  027A               	subwf	sch_update@index,w
  7070  02EF  1C03               	skipc
  7071  02F0  2AF2               	goto	u219_21
  7072  02F1  2AF3               	goto	u219_20
  7073  02F2                     u219_21:	
  7074  02F2  2A26               	goto	i1l2634
  7075  02F3                     u219_20:	
  7076  02F3                     i1l342:	
  7077  02F3  0008               	return
  7078  02F4                     __end_of_sch_update:	
  7079                           
  7080                           	psect	text43
  7081  0CD5                     __ptext43:	
  7082 ;; *************** function i1___bmul *****************
  7083 ;; Defined at:
  7084 ;;		line 4 in file "C:\Program Files (x86)\Microchip\xc8\v2.10\pic\sources\c90\common\Umul8.c"
  7085 ;; Parameters:    Size  Location     Type
  7086 ;;  multiplier      1    wreg     unsigned char 
  7087 ;;  multiplicand    1    0[COMMON] unsigned char 
  7088 ;; Auto vars:     Size  Location     Type
  7089 ;;  multiplier      1    2[COMMON] unsigned char 
  7090 ;;  __bmul          1    3[COMMON] unsigned char 
  7091 ;; Return value:  Size  Location     Type
  7092 ;;                  1    wreg      unsigned char 
  7093 ;; Registers used:
  7094 ;;		wreg, status,2, status,0
  7095 ;; Tracked objects:
  7096 ;;		On entry : 0/0
  7097 ;;		On exit  : 0/0
  7098 ;;		Unchanged: 0/0
  7099 ;; Data sizes:     COMMON   BANK0   BANK1   BANK3   BANK2
  7100 ;;      Params:         1       0       0       0       0
  7101 ;;      Locals:         2       0       0       0       0
  7102 ;;      Temps:          1       0       0       0       0
  7103 ;;      Totals:         4       0       0       0       0
  7104 ;;Total ram usage:        4 bytes
  7105 ;; Hardware stack levels used:    1
  7106 ;; This function calls:
  7107 ;;		Nothing
  7108 ;; This function is called by:
  7109 ;;		_sch_update
  7110 ;; This function uses a non-reentrant model
  7111 ;;
  7112                           
  7113                           
  7114                           ;psect for function i1___bmul
  7115  0CD5                     i1___bmul:	
  7116                           
  7117                           ;incstack = 0
  7118                           ; Regs used in i1___bmul: [wreg+status,2+status,0]
  7119                           ;i1___bmul@multiplier stored from wreg
  7120  0CD5  00F2               	movwf	i1___bmul@multiplier
  7121  0CD6                     i1l2556:	
  7122  0CD6  01F3               	clrf	i1___bmul@product
  7123  0CD7                     i1l2558:	
  7124  0CD7  1C72               	btfss	i1___bmul@multiplier,0
  7125  0CD8  2CDA               	goto	u207_21
  7126  0CD9  2CDB               	goto	u207_20
  7127  0CDA                     u207_21:	
  7128  0CDA  2CDF               	goto	i1l2562
  7129  0CDB                     u207_20:	
  7130  0CDB                     i1l2560:	
  7131  0CDB  0870               	movf	i1___bmul@multiplicand,w
  7132  0CDC  00F1               	movwf	??i1___bmul
  7133  0CDD  0871               	movf	??i1___bmul,w
  7134  0CDE  07F3               	addwf	i1___bmul@product,f
  7135  0CDF                     i1l2562:	
  7136  0CDF  1003               	clrc
  7137  0CE0  0DF0               	rlf	i1___bmul@multiplicand,f
  7138  0CE1                     i1l2564:	
  7139  0CE1  1003               	clrc
  7140  0CE2  0CF2               	rrf	i1___bmul@multiplier,f
  7141  0CE3  0872               	movf	i1___bmul@multiplier,w
  7142  0CE4  1D03               	btfss	3,2
  7143  0CE5  2CE7               	goto	u208_21
  7144  0CE6  2CE8               	goto	u208_20
  7145  0CE7                     u208_21:	
  7146  0CE7  2CD7               	goto	i1l2558
  7147  0CE8                     u208_20:	
  7148  0CE8                     i1l2566:	
  7149  0CE8  0873               	movf	i1___bmul@product,w
  7150  0CE9                     i1l642:	
  7151  0CE9  0008               	return
  7152  0CEA                     __end_ofi1___bmul:	
  7153  0002                     
  7154                           	psect	functab
  7155  0036                     __pfunctab:	
  7156  0036                     __fptable:	
  7157  0036                     fptable:	
  7158  0036  00FF               	movwf	(btemp+1)& (0+127)
  7159  0037  3000               	movlw	high fptable
  7160  0038  008A               	movwf	10
  7161  0039  087F               	movf	(btemp+1)& (0+127),w
  7162  003A  0782               	addwf	2,f
  7163  003B                     fpbase:	
  7164  003B  283B               	goto	fpbase	; Call via a null pointer and you will get stuck here.
  7165  003C                     fp_u0:	
  7166  003C  283C               	ljmp	fp_u0	; unused
  7167  003D                     fp__ssd_vid_update:	
  7168  003D  120A  118A  2BB3   	ljmp	_ssd_vid_update
  7169  0040                     fp__counter_vid_update:	
  7170  0040  120A  118A  2AF4   	ljmp	_counter_vid_update
  7171  0043                     fp__display_vid_update:	
  7172  0043  120A  118A  2F04   	ljmp	_display_vid_update
  7173  0046                     __end_of__fptable:	
  7174  0046                     __i1fptable:	
  7175  0046                     i1fptable:	
  7176  0046  00FF               	movwf	(btemp+1)& (0+127)
  7177  0047  3000               	movlw	high i1fptable
  7178  0048  008A               	movwf	10
  7179  0049  087F               	movf	(btemp+1)& (0+127),w
  7180  004A  0782               	addwf	2,f
  7181  004B                     i1fpbase:	
  7182  004B  284B               	goto	i1fpbase	; Call via a null pointer and you will get stuck here.
  7183  004C                     fp__sch_update:	
  7184  004C  120A  118A  2A25   	ljmp	_sch_update
  7185  004F                     __end_of__i1fptable:	
  7186  007E                     btemp	set	126	;btemp
  7187  007E                     wtemp0	set	126


Data Sizes:
    Strings     0
    Constant    0
    Data        3
    BSS         48
    Persistent  0
    Stack       0

Auto Spaces:
    Space          Size  Autos    Used
    COMMON           14     11      14
    BANK0            80     23      71
    BANK1            80      0       0
    BANK3            96      0       0
    BANK2            96      0       0

Pointer List with Targets:

    timer_vid_set_isr_0@callback_function	PTR FTN()void  size(1) Largest target is 1
		 -> sch_update(), 

    timer2_isr	PTR FTN()void  size(1) Largest target is 1
		 -> Absolute function(), 

    timer1_isr	PTR FTN()void  size(1) Largest target is 1
		 -> Absolute function(), 

    timer0_isr	PTR FTN()void  size(1) Largest target is 1
		 -> Absolute function(), sch_update(), 

    sch_u8_add_task@taskFunction	PTR FTN()void  size(1) Largest target is 1
		 -> ssd_vid_update(), display_vid_update(), counter_vid_update(), 

    S255data$taskFunction	PTR FTN()void  size(1) Largest target is 1
		 -> Absolute function(), ssd_vid_update(), display_vid_update(), counter_vid_update(), 

    sch_tasks.taskFunction	PTR FTN()void  size(1) Largest target is 1
		 -> Absolute function(), ssd_vid_update(), display_vid_update(), counter_vid_update(), 


Critical Paths under _main in COMMON

    None.

Critical Paths under _timer_isr in COMMON

    _timer_isr->_sch_update
    _sch_update->i1___bmul

Critical Paths under _main in BANK0

    _main->_sch_vid_dispatch_tasks
    _sch_vid_init->_sch_vid_delete_task
    _sch_vid_dispatch_tasks->_ssd_vid_update
    _ssd_vid_update->___lwdiv
    _sch_vid_delete_task->___bmul
    _display_vid_update->___lwmod
    _counter_vid_update->_eeprom_external_vid_write
    _eeprom_external_vid_write->_i2c_vid_master_init
    _dio_u8_read_pin_value->_dio_u8_read_port_value
    _sch_u8_add_task->___bmul
    _display_init->_counter_vid_init
    _ssd_vid_init->_dio_vid_set_pin_direction
    _dio_vid_set_port_value->_ssd_u8_get_code
    _counter_vid_init->_eeprom_external_vid_read
    _eeprom_external_vid_read->_i2c_vid_master_init
    _i2c_vid_master_init->_dio_vid_set_pin_direction

Critical Paths under _timer_isr in BANK0

    None.

Critical Paths under _main in BANK1

    None.

Critical Paths under _timer_isr in BANK1

    None.

Critical Paths under _main in BANK3

    None.

Critical Paths under _timer_isr in BANK3

    None.

Critical Paths under _main in BANK2

    None.

Critical Paths under _timer_isr in BANK2

    None.

Call Graph Tables:

 ---------------------------------------------------------------------------------
 (Depth) Function   	        Calls       Base Space   Used Autos Params    Refs
 ---------------------------------------------------------------------------------
 (0) _main                                                 0     0      0   21089
                       _display_init
                    _sch_u8_add_task
             _sch_vid_dispatch_tasks
                       _sch_vid_init
 ---------------------------------------------------------------------------------
 (1) _sch_vid_init                                         2     2      0     875
                                             12 BANK0      2     2      0
                _sch_vid_delete_task
                   _timer_vid_init_0
                _timer_vid_set_isr_0
 ---------------------------------------------------------------------------------
 (2) _timer_vid_set_isr_0                                  2     2      0      22
                                              6 BANK0      2     2      0
 ---------------------------------------------------------------------------------
 (2) _timer_vid_init_0                                     3     0      3     196
                                              6 BANK0      3     0      3
 ---------------------------------------------------------------------------------
 (1) _sch_vid_dispatch_tasks                               6     6      0    7818
                                             17 BANK0      6     6      0
                   Absolute function *
                             ___bmul
                 _counter_vid_update *
                 _display_vid_update *
                _sch_vid_delete_task
                     _ssd_vid_update *
 ---------------------------------------------------------------------------------
 (2) _ssd_vid_update                                       3     3      0    3200
                                             14 BANK0      3     3      0
                            ___lwdiv
                            ___lwmod
              _dio_u8_read_pin_value
              _dio_vid_set_pin_value
             _dio_vid_set_port_value
                    _ssd_u8_get_code
 ---------------------------------------------------------------------------------
 (3) _ssd_u8_get_code                                      3     3      0      22
                                              6 BANK0      3     3      0
 ---------------------------------------------------------------------------------
 (3) ___lwdiv                                              8     4      4     314
                                              6 BANK0      8     4      4
 ---------------------------------------------------------------------------------
 (2) _sch_vid_delete_task                                  2     2      0     589
                                             10 BANK0      2     2      0
                             ___bmul
 ---------------------------------------------------------------------------------
 (2) _display_vid_update                                   0     0      0     507
                            ___lwmod
             _counter_u8_get_counter
                   _ssd_u8_get_state
                  _ssd_vid_set_state
                 _ssd_vid_set_symbol
 ---------------------------------------------------------------------------------
 (3) _ssd_u8_get_state                                     0     0      0       0
 ---------------------------------------------------------------------------------
 (3) ___lwmod                                              6     2      4     463
                                              6 BANK0      6     2      4
 ---------------------------------------------------------------------------------
 (2) _counter_vid_update                                   2     2      0    2887
                                             14 BANK0      2     2      0
              _dio_u8_read_pin_value
           _display_set_setting_mode
          _eeprom_external_vid_write
                 _ssd_vid_set_symbol
 ---------------------------------------------------------------------------------
 (3) _eeprom_external_vid_write                            2     1      1    2374
                                             12 BANK0      2     1      1
           _i2c_u8_master_write_byte
_i2c_u8_master_write_slave_address_w
                _i2c_vid_master_init
                    _i2c_vid_restart
                      _i2c_vid_start
                       _i2c_vid_stop
 ---------------------------------------------------------------------------------
 (3) _display_set_setting_mode                             2     2      0      22
                                              6 BANK0      2     2      0
 ---------------------------------------------------------------------------------
 (3) _dio_u8_read_pin_value                                4     3      1     469
                                              9 BANK0      4     3      1
             _dio_u8_read_port_value
 ---------------------------------------------------------------------------------
 (4) _dio_u8_read_port_value                               3     3      0      22
                                              6 BANK0      3     3      0
 ---------------------------------------------------------------------------------
 (7) Absolute function(Fake)                               0     0      0       0
 ---------------------------------------------------------------------------------
 (1) _sch_u8_add_task                                     12     4      8    1163
                                             10 BANK0     12     4      8
                             ___bmul
 ---------------------------------------------------------------------------------
 (3) ___bmul                                               4     3      1     479
                                              6 BANK0      4     3      1
 ---------------------------------------------------------------------------------
 (1) _display_init                                         1     1      0   11233
                                             17 BANK0      1     1      0
             _counter_u8_get_counter
                   _counter_vid_init
          _dio_vid_set_pin_direction
              _dio_vid_set_pin_value
             _dio_vid_set_port_value
                       _ssd_vid_init
                  _ssd_vid_set_state
                 _ssd_vid_set_symbol
 ---------------------------------------------------------------------------------
 (3) _ssd_vid_set_symbol                                   3     3      0      22
                                              6 BANK0      3     3      0
 ---------------------------------------------------------------------------------
 (3) _ssd_vid_set_state                                    2     2      0      22
                                              6 BANK0      2     2      0
 ---------------------------------------------------------------------------------
 (2) _ssd_vid_init                                         1     1      0    2342
                                             11 BANK0      1     1      0
          _dio_vid_set_pin_direction
         _dio_vid_set_port_direction
 ---------------------------------------------------------------------------------
 (3) _dio_vid_set_port_direction                           4     3      1     208
                                              6 BANK0      4     3      1
 ---------------------------------------------------------------------------------
 (3) _dio_vid_set_port_value                               4     3      1     360
                                              9 BANK0      4     3      1
                    _ssd_u8_get_code (ARG)
 ---------------------------------------------------------------------------------
 (3) _dio_vid_set_pin_value                                5     3      2    1526
                                              6 BANK0      5     3      2
 ---------------------------------------------------------------------------------
 (2) _counter_vid_init                                     2     2      0    4827
                                             15 BANK0      2     2      0
                            ___awmod
          _dio_vid_set_pin_direction
           _eeprom_external_vid_read
 ---------------------------------------------------------------------------------
 (3) _eeprom_external_vid_read                             3     3      0    2245
                                             12 BANK0      3     3      0
            _i2c_u8_master_read_byte
           _i2c_u8_master_write_byte
_i2c_u8_master_write_slave_address_w
_i2c_u8_master_write_slave_address_w
                _i2c_vid_master_init
                       _i2c_vid_nack
                    _i2c_vid_restart
                      _i2c_vid_start
                       _i2c_vid_stop
 ---------------------------------------------------------------------------------
 (4) _i2c_vid_stop                                         0     0      0       0
                       _i2c_vid_wait
 ---------------------------------------------------------------------------------
 (4) _i2c_vid_start                                        0     0      0       0
                       _i2c_vid_wait
 ---------------------------------------------------------------------------------
 (4) _i2c_vid_restart                                      0     0      0       0
                       _i2c_vid_wait
 ---------------------------------------------------------------------------------
 (4) _i2c_vid_nack                                         0     0      0       0
                       _i2c_vid_wait
 ---------------------------------------------------------------------------------
 (4) _i2c_vid_master_init                                  1     1      0    2134
                                             11 BANK0      1     1      0
          _dio_vid_set_pin_direction
 ---------------------------------------------------------------------------------
 (5) _dio_vid_set_pin_direction                            5     3      2    2134
                                              6 BANK0      5     3      2
 ---------------------------------------------------------------------------------
 (4) _i2c_u8_master_write_slave_address_with_write_req     2     2      0      22
                                              6 BANK0      2     2      0
                       _i2c_vid_wait
 ---------------------------------------------------------------------------------
 (4) _i2c_u8_master_write_slave_address_with_read_req      1     1      0      22
                                              6 BANK0      1     1      0
                       _i2c_vid_wait
 ---------------------------------------------------------------------------------
 (4) _i2c_u8_master_write_byte                             1     1      0      22
                                              6 BANK0      1     1      0
                       _i2c_vid_wait
 ---------------------------------------------------------------------------------
 (4) _i2c_u8_master_read_byte                              0     0      0       0
                       _i2c_vid_wait
 ---------------------------------------------------------------------------------
 (5) _i2c_vid_wait                                         0     0      0       0
 ---------------------------------------------------------------------------------
 (3) ___awmod                                              7     3      4     448
                                              6 BANK0      7     3      4
 ---------------------------------------------------------------------------------
 (3) _counter_u8_get_counter                               0     0      0       0
 ---------------------------------------------------------------------------------
 Estimated maximum stack depth 7
 ---------------------------------------------------------------------------------
 (Depth) Function   	        Calls       Base Space   Used Autos Params    Refs
 ---------------------------------------------------------------------------------
 (6) _timer_isr                                            6     6      0     401
                                              0 BANK0      6     6      0
                   Absolute function *
                         _sch_update *
 ---------------------------------------------------------------------------------
 (7) _sch_update                                           7     7      0     401
                                              4 COMMON     7     7      0
                           i1___bmul
 ---------------------------------------------------------------------------------
 (8) i1___bmul                                             4     3      1     201
                                              0 COMMON     4     3      1
 ---------------------------------------------------------------------------------
 (7) Absolute function(Fake)                               0     0      0       0
 ---------------------------------------------------------------------------------
 Estimated maximum stack depth 8
 ---------------------------------------------------------------------------------

 Call Graph Graphs:

 _main (ROOT)
   _display_init
     _counter_u8_get_counter
     _counter_vid_init
       ___awmod
       _dio_vid_set_pin_direction
       _eeprom_external_vid_read
         _i2c_u8_master_read_byte
           _i2c_vid_wait
         _i2c_u8_master_write_byte
           _i2c_vid_wait
         _i2c_u8_master_write_slave_address_with_read_req
           _i2c_vid_wait
         _i2c_u8_master_write_slave_address_with_write_req
           _i2c_vid_wait
         _i2c_vid_master_init
           _dio_vid_set_pin_direction
         _i2c_vid_nack
           _i2c_vid_wait
         _i2c_vid_restart
           _i2c_vid_wait
         _i2c_vid_start
           _i2c_vid_wait
         _i2c_vid_stop
           _i2c_vid_wait
     _dio_vid_set_pin_direction
     _dio_vid_set_pin_value
     _dio_vid_set_port_value
       _ssd_u8_get_code (ARG)
     _ssd_vid_init
       _dio_vid_set_pin_direction
       _dio_vid_set_port_direction
     _ssd_vid_set_state
     _ssd_vid_set_symbol
   _sch_u8_add_task
     ___bmul
   _sch_vid_dispatch_tasks
     Absolute function(Fake) *
     ___bmul *
     _counter_vid_update *
       _dio_u8_read_pin_value
         _dio_u8_read_port_value
       _display_set_setting_mode
       _eeprom_external_vid_write
         _i2c_u8_master_write_byte
           _i2c_vid_wait
         _i2c_u8_master_write_slave_address_with_write_req
           _i2c_vid_wait
         _i2c_vid_master_init
           _dio_vid_set_pin_direction
         _i2c_vid_restart
           _i2c_vid_wait
         _i2c_vid_start
           _i2c_vid_wait
         _i2c_vid_stop
           _i2c_vid_wait
       _ssd_vid_set_symbol
     _display_vid_update *
       ___lwmod
       _counter_u8_get_counter
       _ssd_u8_get_state
       _ssd_vid_set_state
       _ssd_vid_set_symbol
     _sch_vid_delete_task *
       ___bmul
     _ssd_vid_update *
       ___lwdiv
       ___lwmod
       _dio_u8_read_pin_value
         _dio_u8_read_port_value
       _dio_vid_set_pin_value
       _dio_vid_set_port_value
         _ssd_u8_get_code (ARG)
       _ssd_u8_get_code
   _sch_vid_init
     _sch_vid_delete_task
       ___bmul
     _timer_vid_init_0
     _timer_vid_set_isr_0

 _timer_isr (ROOT)
   Absolute function(Fake) *
   _sch_update *
     i1___bmul

 Address spaces:
Name               Size   Autos  Total    Cost      Usage
BANK3               60      0       0       9        0.0%
BITBANK3            60      0       0       8        0.0%
SFR3                 0      0       0       4        0.0%
BITSFR3              0      0       0       4        0.0%
BANK2               60      0       0      11        0.0%
BITBANK2            60      0       0      10        0.0%
SFR2                 0      0       0       5        0.0%
BITSFR2              0      0       0       5        0.0%
BANK1               50      0       0       7        0.0%
BITBANK1            50      0       0       6        0.0%
SFR1                 0      0       0       2        0.0%
BITSFR1              0      0       0       2        0.0%
BANK0               50     17      47       5       88.8%
BITBANK0            50      0       0       4        0.0%
SFR0                 0      0       0       1        0.0%
BITSFR0              0      0       0       1        0.0%
COMMON               E      B       E       1      100.0%
BITCOMMON            E      0       0       0        0.0%
CODE                 0      0       0       0        0.0%
DATA                 0      0      55      12        0.0%
ABS                  0      0      55       3        0.0%
NULL                 0      0       0       0        0.0%
STACK                0      0       0       2        0.0%
EEDATA             100      0       0       0        0.0%


Microchip Technology PIC Macro Assembler V2.10 build 88905656 
Symbol Table                                                                                   Thu Jul 09 19:17:25 2020

                                 ??_sch_vid_dispatch_tasks 005F  
                                                        pc 0002  
                                           ___bmul@product 0056  
                                              __CFG_CP$OFF 0000  
                                                       l26 0F57  
                                                       l35 03B2  
                                                       l38 0C4A  
                                                       l83 0D97  
                                                       l91 0D4A  
                                                       l68 0E50  
                                                       l78 0E19  
                                                       fsr 0004  
                                   __end_of_ssd_vid_update 0466  
                                timer_vid_init_0@prescaler 0054  
                                                      l201 0E64  
                                                      l210 0FA6  
                                                      l116 0224  
                                                      l204 0E8A  
                                                      l141 0143  
                                                      l207 0F6B  
                                                      l251 0DEC  
                                                      l260 0C6F  
                                                      l180 0C8B  
                                                      l404 0F09  
                                                      l333 0DC0  
                                                      l254 0C78  
                                                      l263 0CA3  
                                                      l351 0582  
                                                      l272 0CA2  
                                                      l168 0FFF  
                                                      l176 0753  
                                                      l281 0CCF  
                                                      l257 0C81  
                                                      l177 075D  
                                                      l266 0CAF  
                                                      l290 0CC1  
                                                      l362 05E8  
                                                      l283 0CD3  
                                                      l275 0D26  
                                                      l284 0CD4  
                                                      l293 0CF2  
                                                      l277 0D2A  
                                                      l381 0D6E  
                                                      l278 0D30  
                                                      l358 04F6  
                                                      l470 0600  
                                                      l295 0CF7  
                                                      l287 0CBC  
                                                      l471 0606  
                                                      l296 0D00  
                                                      l472 060C  
                                                      l456 0C5E  
                                                      l289 0CC0  
                                                      l393 0C96  
                                                      l385 0465  
                                                      l473 0612  
                                                      l642 0D17  
                                                      l474 0618  
                                                      l466 05EE  
                                                      l396 0C4E  
                                                      l476 064D  
                                                      l468 05F4  
                                                      l469 05FA  
                                                      l399 0C56  
                                                      l782 0703  
                                                      l888 07FD  
                                                      l898 0EC6  
                                                      _GIE 005F  
                                            ?_display_init 0070  
                                                      _PS0 0408  
                                                      _PR2 0092  
                                                      _PS1 0409  
                                                      _PEN 048A  
                                                      _PS2 040A  
                                             __CFG_CPD$OFF 0000  
                                                      _SEN 0488  
                                                      _PSA 040B  
                                                      fsr0 0004  
                                                      indf 0000  
                                   _dio_u8_read_port_value 0D6F  
                                             ___awmod@sign 005A  
                                             __CFG_FOSC$HS 0000  
                                             __CFG_LVP$OFF 0000  
                                                     l2000 007E  
                                                     l2010 00AE  
                                                     l2002 0083  
                                                     l2020 00E9  
                                                     l2012 00BE  
                                                     l2004 0093  
                                                     l2100 0DE4  
                                                     l2030 0119  
                                                     l2022 00EE  
                                                     l2014 00C3  
                                                     l2006 0098  
                                                     l2102 0DE5  
                                                     l2110 0C70  
                                                     l2120 0D20  
                                                     l2024 00FF  
                                                     l2016 00D4  
                                                     l2008 00A9  
                                                     l2104 0DE6  
                                                     l2112 0C75  
                                                     l2200 0E32  
                                                     l2042 0CA3  
                                                     l2122 0D2B  
                                                     l2026 0104  
                                                     l2018 00D9  
                                                     l2034 012A  
                                                     l2106 0DE7  
                                                     l2114 0C67  
                                                     l2130 0C79  
                                                     l2044 0CA9  
                                                     l2140 0CEF  
                                                     l2028 0114  
                                                     l2108 0DE8  
                                                     l2116 0C6C  
                                                     l2132 0C7E  
                                                     l2220 0DFA  
                                                     l2212 0DF0  
                                                     l2204 0E37  
                                                     l2060 0D77  
                                                     l2142 0CF8  
                                                     l2126 0CB3  
                                                     l2134 0CC5  
                                                     l2118 0D1B  
                                                     l2150 0C9A  
                                                     l2222 0DFD  
                                                     l2214 0DF1  
                                                     l2054 0D75  
                                                     l2046 0D72  
                                                     l2310 0ED3  
                                                     l2302 0ECF  
                                                     l2144 0CFD  
                                                     l2128 0CB8  
                                                     l2136 0CCA  
                                                     l2152 0C9F  
                                                     l2160 0F76  
                                                     l2240 015B  
                                                     l2216 0DF4  
                                                     l2072 0D7B  
                                                     l2048 0D73  
                                                     l2080 0D7D  
                                                     l2400 07B8  
                                                     l2138 0CEA  
                                                     l2162 0FA3  
                                                     l2154 0F5B  
                                                     l2250 0187  
                                                     l2242 0160  
                                                     l2234 0147  
                                                     l2218 0DF7  
                                                     l2226 0E00  
                                                     l2082 0D96  
                                                     l2066 0D79  
                                                     l2410 07D0  
                                                     l2402 07BC  
                                                     l2330 0EDD  
                                                     l2322 0ED9  
                                                     l2314 0ED5  
                                                     l2306 0ED1  
                                                     l2092 0DC1  
                                                     l2148 0C97  
                                                     l2156 0F60  
                                                     l2260 01BD  
                                                     l2252 0196  
                                                     l2244 016F  
                                                     l2236 0148  
                                                     l2172 0C85  
                                                     l2180 0E5F  
                                                     l2420 07F3  
                                                     l2412 07D4  
                                                     l2404 07C2  
                                                     l2340 0EE1  
                                                     l2500 070D  
                                                     l2094 0DDD  
                                                     l2158 0F66  
                                                     l2270 01E9  
                                                     l2262 01C2  
                                                     l2254 019B  
                                                     l2246 0174  
                                                     l2238 014D  
                                                     l2190 0E1D  
                                                     l2350 0D05  
                                                     l2166 0D34  
                                                     l2174 0C89  
                                                     l2182 0E6F  
                                                     l2430 0E96  
                                                     l2414 07E5  
                                                     l2406 07C5  
                                                     l2422 07F9  
                                                     l2334 0EDF  
                                                     l2326 0EDB  
                                                     l2318 0ED7  
                                                     l2510 0735  
                                                     l2502 0712  
                                                     l2096 0DE0  
                                                     l2272 01F7  
                                                     l2264 01D0  
                                                     l2256 01A9  
                                                     l2248 0182  
                                                     l2192 0E1E  
                                                     l2184 0C8F  
                                                     l2352 0D09  
                                                     l2600 051A  
                                                     l2168 0D3F  
                                                     l2176 0E54  
                                                     l2440 0EB5  
                                                     l2432 0E9D  
                                                     l2520 058C  
                                                     l2416 07EB  
                                                     l2408 07CC  
                                                     l2512 073F  
                                                     l2504 0715  
                                                     l2186 0C47  
                                                     l2370 06B7  
                                                     l2362 06A9  
                                                     l2098 0DE1  
                                                     l2450 0F2F  
                                                     l2274 01FC  
                                                     l2266 01D5  
                                                     l2258 01AE  
                                                     l2194 0E23  
                                                     l2354 0D0D  
                                                     l2178 0E59  
                                                     l2442 0EBC  
                                                     l2434 0EA1  
                                                     l2426 0E8B  
                                                     l2418 07EC  
                                                     l2514 0746  
                                                     l2506 071A  
                                                     l2530 0644  
                                                     l2522 0C5A  
                                                     l2380 06D0  
                                                     l2372 06BB  
                                                     l2364 06AC  
                                                     l2452 0F35  
                                                     l2268 01E4  
                                                     l2196 0E28  
                                                     l2356 0D0F  
                                                     l2348 0D04  
                                                     l2604 0523  
                                                     l2436 0EA5  
                                                     l2428 0E93  
                                                     l2444 0EC2  
                                                     l2292 0ECA  
                                                     l2460 0305  
                                                     l2508 0720  
                                                     l2516 074D  
                                                     l2620 04C0  
                                                     l2532 064A  
                                                     l2524 05E9  
                                                     l2390 06EF  
                                                     l2382 06D4  
                                                     l2374 06C0  
                                                     l2366 06B0  
                                                     l2454 0F3B  
                                                     l2278 020B  
                                                     l2198 0E2D  
                                                     l2286 0C52  
                                                     l2358 0D16  
                                                     l2438 0EAF  
                                                     l2518 0586  
                                                     l2294 0ECB  
                                                     l2550 03F9  
                                                     l2542 03B3  
                                                     l2470 0337  
                                                     l2462 030C  
                                                     l2622 04E4  
                                                     l2614 0469  
                                                     l2384 06D8  
                                                     l2376 06C6  
                                                     l2392 06F5  
                                                     l2368 06B5  
                                                     l2456 0F53  
                                                     l2448 0F0A  
                                                     l2288 0C4B  
                                                     l2552 0408  
                                                     l2544 03BA  
                                                     l2480 0360  
                                                     l2472 033D  
                                                     l2464 0312  
                                                     l2616 048B  
                                                     l2624 04EA  
                                                     l2608 0466  
                                                     l2528 061E  
                                                     l2394 06FA  
                                                     l2386 06E2  
                                                     l2378 06C9  
                                                     l2570 0FA7  
                                                     l2298 0ECD  
                                                     l2554 0437  
                                                     l2482 0364  
                                                     l2490 038F  
                                                     l2466 0316  
                                                     l2474 0344  
                                                     l2458 02F4  
                                                     l2626 04F0  
                                                     l2618 049E  
                                                     l2396 06FF  
                                                     l2388 06E8  
                                                     l2572 0FAC  
                                                     l2548 03D3  
                                                     l2492 03A0  
                                                     l2484 0378  
                                                     l2476 0353  
                                                     l2468 032A  
                                                     l2574 0FB2  
                                                     l2494 03AF  
                                                     l2486 0385  
                                                     l2478 035A  
                                                     l2910 0628  
                                                     l2590 0DB3  
                                                     l2582 0D9B  
                                                     l2654 064E  
                                                     l2920 0E08  
                                                     l2496 0D4B  
                                                     l2592 04FA  
                                                     l2488 0389  
                                                     l2912 063F  
                                                     l2584 0DA1  
                                                     l2576 0D98  
                                                     l2656 06A0  
                                                     l2922 0213  
                                                     l2594 04FC  
                                                     l2914 0EE9  
                                                     l2498 0704  
                                                     l2586 0DA7  
                                                     l2924 0132  
                                                     l2596 0500  
                                                     l2916 0D85  
                                                     l2588 0DAD  
                                                     l1990 0052  
                                                     l2918 0E3F  
                                                     l2598 0512  
                                                     l1992 0053  
                                                     l1994 0058  
                                                     l1996 0068  
                                                     l1998 006D  
                                                     _T0CS 040D  
                      dio_vid_set_pin_direction@portNumber 0058  
                                                     u1200 0098  
                                                     u2000 071A  
                                                     u1201 0097  
                                                     u2001 0719  
                                                     u2010 0735  
                                                     u2011 0734  
                                                     u1300 0104  
                                                     u1220 00AE  
                                                     u1140 0058  
                                                     u2100 0512  
                                                     u2020 073F  
                                                     u1301 0103  
                                                     u1221 00AD  
                                                     u1141 0057  
                                                     u2101 0511  
                                                     u2021 073E  
                                                     u1214 009E  
                                                     u2110 051A  
                                                     u2030 058C  
                                                     u1215 009C  
                                                     u2111 0519  
                                                     u2031 058B  
                                                     u1320 0119  
                                                     u1240 00C3  
                                                     u1160 006D  
                                                     u1400 0F76  
                                                     u2120 0522  
                                                     u2040 064A  
                                                     u1321 0118  
                                                     u1241 00C2  
                                                     u1161 006C  
                                                     u1401 0F75  
                                                     u2121 0521  
                                                     u2041 0649  
                                                     u1314 010A  
                                                     u1234 00B4  
                                                     u1154 005E  
                                                     u2050 03BA  
                                                     u2130 048B  
                                                     u1315 0108  
                                                     u1235 00B2  
                                                     u1155 005C  
                                                     u2051 03B9  
                                                     u2131 048A  
                                                     u1340 0CA9  
                                                     u1260 00D9  
                                                     u1180 0083  
                                                     u1420 0E6F  
                                                     u2060 0408  
                                                     u2140 04E4  
                                                     u1341 0CA8  
                                                     u1261 00D8  
                                                     u1181 0082  
                                                     u1421 0E6E  
                                                     u2061 0407  
                                                     u2141 04E3  
                                                     u1350 0CAF  
                                                     u1334 011F  
                                                     u1254 00C9  
                                                     u1174 0073  
                                                     u1510 019B  
                                                     u1430 014D  
                                                     u1414 0D45  
                                                     u2150 04F6  
                                                     u1351 0CAE  
                                                     u1335 011D  
                                                     u1255 00C7  
                                                     u1175 0071  
                                                     u1511 019A  
                                                     u1431 014C  
                                                     u1415 0D43  
                                                     u2151 04F5  
                                                     u1360 0D2A  
                                                     u1280 00EE  
                                                     u1504 018D  
                                                     u1361 0D29  
                                                     u1281 00ED  
                                                     u1505 018B  
                                                     u1370 0CC0  
                                                     u1274 00DF  
                                                     u1194 0089  
                                                     u1610 01FC  
                                                     u1530 01AE  
                                                     u1450 0160  
                                                     u2090 0DAD  
                                                     u1371 0CBF  
                                                     u1275 00DD  
                                                     u1195 0087  
                                                     u1611 01FB  
                                                     u1531 01AD  
                                                     u1451 015F  
                                                     u2091 0DAC  
                                                     u1700 06E2  
                                                     u1380 0CD3  
                                                     u1604 01EF  
                                                     u1524 01A1  
                                                     u1444 0153  
                                                     u1701 06E1  
                                                     u1381 0CD2  
                                                     u1605 01ED  
                                                     u1525 019F  
                                                     u1445 0151  
                                                     u1390 0CF7  
                                                     u1294 00F4  
                                                     u1550 01C2  
                                                     u1470 0174  
                                                     u1630 0D09  
                                                     u1391 0CF6  
                                                     u1295 00F2  
                                                     u1551 01C1  
                                                     u1471 0173  
                                                     u1631 0D08  
                                                     u1720 06F5  
                                                     u1624 0202  
                                                     u1544 01B4  
                                                     u1464 0166  
                                                     u1640 0D16  
                                                     u1800 07F9  
                                                     u1721 06F4  
                                                     u1705 06DE  
                                                     u1625 0200  
                                                     u1545 01B2  
                                                     u1465 0164  
                                                     u1641 0D15  
                                                     u1801 07F8  
                                                     u1730 06FA  
                                                     u1650 06B0  
                                                     u1570 01D5  
                                                     u1490 0187  
                                                     u1810 0E93  
                                                     u1731 06F9  
                                                     u1715 06E9  
                                                     u1651 06AF  
                                                     u1571 01D4  
                                                     u1491 0186  
                                                     u1811 0E92  
                                                     u1660 06BB  
                                                     u1564 01C8  
                                                     u1484 017A  
                                                     u1740 07C2  
                                                     u1900 0305  
                                                     u1661 06BA  
                                                     u1565 01C6  
                                                     u1485 0178  
                                                     u1741 07C1  
                                                     u1901 0304  
                                                     u1670 06C6  
                                                     u1590 01E9  
                                                     u1830 0EA5  
                                                     u1910 030C  
                                                     u1671 06C5  
                                                     u1591 01E8  
                                                     u1831 0EA4  
                                                     u1911 030B  
                                                     u1584 01DB  
                                                     u1840 0EAF  
                                                     u1760 07D4  
                                                     u1920 032A  
                                                     u1585 01D9  
                                                     u1841 0EAE  
                                                     u1825 0E97  
                                                     u1761 07D3  
                                                     u1921 0329  
                                                     u1690 06D8  
                                                     u1930 0353  
                                                     u1691 06D7  
                                                     u1755 07C6  
                                                     u1931 0352  
                                                     u1860 0EC2  
                                                     u1780 07E5  
                                                     u1940 035A  
                                                     u1685 06CA  
                                                     u1861 0EC1  
                                                     u1845 0EAB  
                                                     u1781 07E4  
                                                     u1941 0359  
                                                     u1925 0326  
                                                     u1870 0F35  
                                                     u1950 0378  
                                                     u1871 0F34  
                                                     u1855 0EB6  
                                                     u1775 07D5  
                                                     u1951 0377  
                                                     u1880 0F3B  
                                                     u1960 03A0  
                                                     u1881 0F3A  
                                                     u1785 07E1  
                                                     u1961 039F  
                                                     u1890 0F53  
                                                     u1970 03AF  
                                                     u1891 0F52  
                                                     u1795 07ED  
                                                     u1971 03AE  
                                                     u1955 0374  
                                                     _PEIE 005E  
                                                     u1980 070D  
                                                     u1981 070C  
                                                     u1990 0712  
                                                     u1991 0711  
                                                     _RCEN 048B  
                                                     _PIR1 000C  
                                                     _RSEN 0489  
                                             __CFG_WRT$OFF 0000  
                                    ??_sch_vid_delete_task 0058  
                                            fp__sch_update 004C  
                                                     _main 064E  
                                      _timer_vid_set_isr_0 0C57  
                                                     fp_u0 003C  
                          eeprom_external_vid_read@address 005B  
                                                     btemp 007E  
                                            __CFG_BOREN$ON 0000  
                                                     start 0012  
                                        ___bmul@multiplier 0057  
                                 __size_of_ssd_u8_get_code 0043  
                                            ?_i2c_vid_nack 0070  
                                            ?_i2c_vid_wait 0070  
                                            ?_i2c_vid_stop 0070  
                                          ?_ssd_vid_update 0070  
                                            _i2c_vid_start 0C70  
                         dio_u8_read_port_value@portNumber 0056  
                                           ??_display_init 005F  
                                     ?_timer_vid_set_isr_0 0070  
                                                    ?_main 0070  
                                                    _ACKEN 048C  
                                                    _ACKDT 048D  
                                                    _CCP1X 00BD  
                                                    _CCP1Y 00BC  
                                            __CFG_WDTE$OFF 0000  
                                          __end_of___awmod 0704  
                                        ??_i2c_vid_restart 0054  
                                          __end_of___lwdiv 07FE  
                                                    i1l342 02F3  
                                          __end_of___lwmod 0EC7  
                                                    i1l451 078C  
                                                    i1l453 07AD  
                                                    i1l642 0CE9  
                                                    _PORTA 0005  
                                                    _PORTB 0006  
                                                    _PORTC 0007  
                                                    _PORTD 0008  
                                                    _PORTE 0009  
                                                    _SSPM0 00A0  
                                                    _SSPM1 00A1  
                                                    _SSPM2 00A2  
                                                    _SSPM3 00A3  
                                                    _TRISA 0085  
                                                    _TRISB 0086  
                                                    _TRISC 0087  
                                                    _TRISD 0088  
                                                    _TRISE 0089  
                                                    _SSPEN 00A5  
                                                    _SSPIF 0063  
                                            __CFG_PWRTE$ON 0000  
                        __size_of_eeprom_external_vid_read 004F  
                                 ??_counter_u8_get_counter 0054  
                                ?_eeprom_external_vid_read 0070  
                                                    fpbase 003B  
                                         __end_ofi1___bmul 0CEA  
                                                    pclath 000A  
                         __end_of_display_set_setting_mode 0C8C  
                                                    status 0003  
                                                    wtemp0 007E  
                                         _timer_vid_init_0 05E9  
                                          __initialization 0015  
                                           ??_i2c_vid_nack 0054  
                                           ??_i2c_vid_wait 0054  
                                           ??_i2c_vid_stop 0054  
                                             __end_of_main 06A9  
                          __size_of_sch_vid_dispatch_tasks 0091  
                           __size_of_dio_u8_read_pin_value 001A  
                                           ?_i2c_vid_start 0070  
                            __end_of_dio_u8_read_pin_value 0D4B  
                                    ??_timer_vid_set_isr_0 0054  
                                 __size_of_sch_u8_add_task 008C  
                                                   ??_main 0065  
                                 __end_of_ssd_u8_get_state 0C4F  
                                                   _CCP1M2 00BA  
                                                   _CCP1M3 00BB  
                                                   _CCP2M2 00EA  
                                                   _CCP2M3 00EB  
                                __size_of_counter_vid_init 004E  
                                                   _CCPR1L 0015  
                                          sch_update@index 007A  
                                                   i1l2560 0CDB  
                                                   i1l2640 0298  
                                                   i1l2562 0CDF  
                                                   i1l2642 02C9  
                                                   i1l2634 0226  
                                                   i1l2564 0CE1  
                                                   i1l2556 0CD6  
                                                   i1l2636 0238  
                                                   i1l2644 02E9  
                                                   i1l2628 0225  
                                                   i1l2660 0762  
                                                   i1l2566 0CE8  
                                                   i1l2558 0CD7  
                                                   i1l2646 02ED  
                                                   i1l2638 0258  
                                                   i1l2662 0763  
                                                   i1l2664 0769  
                                                   i1l2666 077B  
                                                   i1l2658 075E  
                                                   i1l2668 079C  
                                                   u220_20 0762  
                                                   u220_21 0761  
                                                   u221_24 0774  
                                                   u221_25 0772  
                                                   u222_20 077B  
                                                   u222_21 077A  
                                                   u207_20 0CDB  
                                                   u207_21 0CDA  
                                                   u223_24 0784  
                                                   u223_25 0782  
                                                   u208_20 0CE8  
                                                   u216_20 0238  
                                                   u208_21 0CE7  
                                                   u216_21 0237  
                                                   u224_24 0795  
                                                   u224_25 0793  
                     dio_vid_set_port_direction@portNumber 0057  
                                                   u217_20 0258  
                                                   u225_20 079C  
                                                   u217_21 0257  
                                                   u225_21 079B  
                                                   u218_20 0298  
                                                   u218_21 0297  
                                                   u226_24 07A5  
                                                   u226_25 07A3  
                                                   u219_20 02F3  
                                                   u219_21 02F2  
                                               __i1fptable 0046  
                                                   _TMR0IE 005D  
                                                   _TMR0IF 005A  
                                                   _TMR1IF 0060  
                                                   _TMR2IF 0061  
                                                   _TMR2ON 0092  
                                                   _SSPADD 0093  
                                                   _SSPBUF 0013  
                                         __end_of__fptable 0046  
                               ?_dio_vid_set_pin_direction 0054  
                                                   ___bmul 0D01  
                               __end_of_counter_vid_update 03B3  
                                      _i2c_vid_master_init 0DC1  
                                                ??___awmod 0058  
                               ?_eeprom_external_vid_write 005A  
                                                ??___lwdiv 0058  
                                                ??___lwmod 0058  
                               __end_of_display_vid_update 075E  
                            eeprom_external_vid_write@data 005A  
                                          ___awmod@divisor 0054  
                                          ___awmod@counter 0059  
                                        ??_ssd_u8_get_code 0054  
                                                   fptable 0036  
                                             __pdataCOMMON 007D  
                                                   fptotal 0006  
                      dio_vid_set_port_direction@direction 0054  
                                                   saved_w 007E  
                                     ?_i2c_vid_master_init 0070  
                          __size_of_counter_u8_get_counter 0004  
                                   _sch_vid_dispatch_tasks 0466  
                                  __end_of__initialization 0032  
                                    _dio_vid_set_pin_value 0144  
                                     __end_of_display_init 1000  
                                       ssd_vid_update@ones 005D  
                                    ssd_u8_get_code@number 0056  
                                       ssd_vid_update@tens 005E  
                                      ___bmul@multiplicand 0054  
                             display_set_setting_mode@mode 0055  
                                           __pcstackCOMMON 0070  
                                             __pidataBANK0 07FE  
                                            sch_vid_init@i 005B  
                                          ??_i2c_vid_start 0054  
                                 sch_vid_delete_task@index 0059  
                                            ?_sch_vid_init 0070  
                                  ?_dio_u8_read_port_value 0070  
                                                ?i1___bmul 0070  
                        __size_of_display_set_setting_mode 000A  
                                ?_display_set_setting_mode 0070  
                                       _ssd_vid_set_symbol 0C8C  
                     timer_vid_set_isr_0@callback_function 0055  
                                    ??_i2c_vid_master_init 0059  
                                        ??_sch_u8_add_task 0060  
                                      ?_ssd_vid_set_symbol 0070  
                                     __end_of_i2c_vid_nack 0CA3  
                                         i1___bmul@product 0073  
                                     __end_of_i2c_vid_wait 0CB0  
                                 ?_i2c_u8_master_read_byte 0070  
                                     __end_of_i2c_vid_stop 0C82  
                                               __pbssBANK0 0020  
                                 ??_dio_vid_set_port_value 0058  
                                          _i2c_vid_restart 0C67  
                        __size_of_i2c_u8_master_write_byte 0012  
                                               __pmaintext 064E  
                                ?_i2c_u8_master_write_byte 0070  
                                   _counter_u8_get_counter 0C47  
                                         ??_ssd_vid_update 005C  
                                     ??_ssd_vid_set_symbol 0054  
                                                  ?___bmul 0054  
                                               __pintentry 0004  
                           __end_of_dio_u8_read_port_value 0D98  
                                           ??_sch_vid_init 005A  
                               dio_vid_set_pin_value@index 0054  
                                                  _ACKSTAT 048E  
                                    fp__counter_vid_update 0040  
  __end_of_i2c_u8_master_write_slave_address_with_read_req 0CD5  
 __size_of_i2c_u8_master_write_slave_address_with_read_req 0013  
        ??_i2c_u8_master_write_slave_address_with_read_req 0054  
         ?_i2c_u8_master_write_slave_address_with_read_req 0070  
          _i2c_u8_master_write_slave_address_with_read_req 0CC2  
                               dio_vid_set_pin_value@value 0055  
                                               ??i1___bmul 0071  
                                                  _T2CKPS0 0090  
                                                  _T2CKPS1 0091  
                                    fp__display_vid_update 0043  
                                 __end_of_timer_vid_init_0 064E  
                                       __size_of_timer_isr 005A  
                              __end_of_sch_vid_delete_task 05E9  
                                         _counter_vid_init 0F0A  
                                                  _SSPCON2 0091  
                                                  _SSPSTAT 0094  
                      __size_of_dio_vid_set_port_direction 0037  
                                   ?_dio_vid_set_pin_value 0054  
                                                  i1fpbase 004B  
                                          __size_of___bmul 0017  
                                                  ___awmod 06A9  
                                                  ___lwdiv 07B8  
                                                  ___lwmod 0E8B  
                                                  __ptext1 0D98  
                                                  __ptext2 0C57  
                                                  __ptext3 05E9  
                                                  __ptext4 0466  
                                                  __ptext5 0704  
                                                  __ptext6 02F4  
                                                  __ptext7 03B3  
                                                  __ptext8 0EC7  
                                                  __ptext9 07B8  
                                   ssd_vid_set_state@state 0055  
                                      __size_of__i1fptable 0009  
                                                  _counter 0066  
                          __end_of_i2c_u8_master_read_byte 0D01  
                                         ___awmod@dividend 0056  
                                      i1___bmul@multiplier 0072  
                                        ?_ssd_u8_get_state 0070  
                                               _sch_update 0225  
                                                  clrloop0 0C60  
                                       ??_ssd_u8_get_state 0054  
                                    __size_of_display_init 0059  
                                     end_of_initialization 0032  
                                  __end_of_i2c_vid_restart 0C70  
                          __size_of_dio_vid_set_port_value 002D  
                              ??_dio_vid_set_pin_direction 0056  
                                          _ssd_u8_get_code 0EC7  
                                        __end_of_timer_isr 07B8  
                              __end_of_timer_vid_set_isr_0 0C5F  
                                               _timer0_isr 007C  
                                               _timer1_isr 007B  
                                               _timer2_isr 004B  
                              ??_eeprom_external_vid_write 005B  
                                 _eeprom_external_vid_read 0F58  
                                    _dio_u8_read_pin_value 0D31  
                                    __size_of_i2c_vid_nack 000C  
                                     sch_u8_add_task@delay 0058  
                                             _display_init 0FA7  
                                    __size_of_i2c_vid_wait 000D  
                                     sch_u8_add_task@index 0063  
                                  ?_sch_vid_dispatch_tasks 0070  
                                    __size_of_i2c_vid_stop 0009  
                                       _counter_vid_update 02F4  
                                       _display_vid_update 0704  
                                      ?_counter_vid_update 0070  
                                     __end_of_sch_vid_init 0DC1  
                                            ?_ssd_vid_init 0070  
                                      ?_display_vid_update 0070  
                                dio_u8_read_pin_value@port 005A  
                       __end_of_dio_vid_set_port_direction 0E51  
                               _dio_vid_set_port_direction 0E1A  
                                             _i2c_vid_nack 0C97  
                                             _i2c_vid_wait 0CA3  
                                             _i2c_vid_stop 0C79  
                                           __end_of___bmul 0D18  
                                     ??_counter_vid_update 005C  
                                          _sch_u8_add_task 04F7  
                                            __pidataCOMMON 0003  
                                   _dio_vid_set_port_value 0DED  
                                     ??_display_vid_update 005A  
                           __end_of_sch_vid_dispatch_tasks 04F7  
                                _dio_vid_set_pin_direction 004F  
                                        __size_ofi1___bmul 0015  
                                      start_initialization 0015  
                                              ?_sch_update 0070  
                                _eeprom_external_vid_write 0E51  
                         __end_of_i2c_u8_master_write_byte 0CC2  
                                  __end_of_ssd_u8_get_code 0F0A  
                                           ??_ssd_vid_init 0059  
                                         ?_i2c_vid_restart 0070  
                                  ?_counter_u8_get_counter 0070  
                                          _settingModeFlag 004C  
                         __size_of_i2c_u8_master_read_byte 0017  
                             i2c_u8_master_write_byte@data 0054  
                                                 ??___bmul 0055  
                                 __end_of_counter_vid_init 0F58  
                                              __pdataBANK0 0065  
                                    __end_of_i2c_vid_start 0C79  
                                   ?_dio_u8_read_pin_value 0057  
                              __end_of_i2c_vid_master_init 0DED  
                                       __end_of__i1fptable 004F  
                               dio_u8_read_pin_value@index 0057  
                                              __pbssCOMMON 007B  
                                                ___latbits 0002  
                                        ?_timer_vid_init_0 0054  
                                            __pcstackBANK0 004E  
                                  ??_dio_vid_set_pin_value 0056  
                                        __size_of__fptable 0010  
                                       ??_timer_vid_init_0 0057  
                                        _ssd_vid_set_state 0C4F  
                           __end_of_counter_u8_get_counter 0C4B  
                                       ?_ssd_vid_set_state 0070  
                       dio_vid_set_pin_direction@direction 0055  
   i2c_u8_master_write_slave_address_with_read_req@address 0054  
                                  __end_of_sch_u8_add_task 0583  
                                         ___lwdiv@dividend 0056  
                                      ??_ssd_vid_set_state 0054  
                         dio_vid_set_port_value@portNumber 005A  
                                                __pfunctab 0036  
                              __size_of_ssd_vid_set_symbol 000B  
                                                 ?___awmod 0054  
                                 _display_set_setting_mode 0C82  
                                                 ?___lwdiv 0054  
                                                 ?___lwmod 0054  
                                      __size_of_sch_update 00CF  
                                __end_of_ssd_vid_set_state 0C57  
                                    __size_of_sch_vid_init 0029  
                                         ___lwdiv@quotient 0059  
                                         ?_ssd_u8_get_code 0070  
                                        interrupt_function 0004  
                                                _sch_tasks 0020  
  i2c_u8_master_write_slave_address_with_write_req@address 0055  
                          dio_vid_set_pin_value@portNumber 0058  
                                 _i2c_u8_master_write_byte 0CB0  
                             __size_of_sch_vid_delete_task 0066  
                                                clear_ram0 0C5F  
                          dio_u8_read_pin_value@portNumber 0059  
                                    i1___bmul@multiplicand 0070  
                                __size_of_ssd_u8_get_state 0004  
                              sch_vid_dispatch_tasks@index 0064  
                               ??_eeprom_external_vid_read 005A  
                             ??_dio_vid_set_port_direction 0055  
                             eeprom_external_vid_read@data 005C  
                                              _displayFlag 007D  
                                                _timer_isr 075E  
                                                _ssdSymbol 0047  
                                       _settingModeCounter 0049  
                                             _sch_vid_init 0D98  
                                                 i1___bmul 0CD5  
                                     __end_of_ssd_vid_init 0D6F  
                                  __size_of_ssd_vid_update 00B3  
                                        fp__ssd_vid_update 003D  
 __end_of_i2c_u8_master_write_slave_address_with_write_req 0D31  
__size_of_i2c_u8_master_write_slave_address_with_write_req 0019  
       ??_i2c_u8_master_write_slave_address_with_write_req 0054  
        ?_i2c_u8_master_write_slave_address_with_write_req 0070  
         _i2c_u8_master_write_slave_address_with_write_req 0D18  
                                                 i1fptable 0046  
                                                 i1fptotal 0002  
                       __size_of_dio_vid_set_pin_direction 00F5  
                              dio_vid_set_port_value@value 0057  
                           dio_vid_set_pin_direction@index 0054  
                              ?_dio_vid_set_port_direction 0054  
                       __size_of_eeprom_external_vid_write 003A  
                                 ??_dio_u8_read_port_value 0054  
                                  _i2c_u8_master_read_byte 0CEA  
                                         ?_sch_u8_add_task 0058  
                                  ?_dio_vid_set_port_value 0057  
                                               ?_timer_isr 0070  
                                         __size_of___awmod 005B  
                                         __size_of___lwdiv 0046  
                                         __size_of___lwmod 003C  
                             __size_of_timer_vid_set_isr_0 0008  
                                                 __fptable 0036  
                         eeprom_external_vid_write@address 005B  
                                          ___lwdiv@divisor 0054  
                               __size_of_ssd_vid_set_state 0008  
                                          ___lwdiv@counter 005B  
                                                 __ptext10 0583  
                                                 __ptext11 0C4B  
                                                 __ptext20 0C8C  
                                                 __ptext12 0E8B  
                                                 __ptext21 0C4F  
                                                 __ptext13 0E51  
                                                 __ptext30 0C67  
                                                 __ptext22 0D4B  
                                                 __ptext14 0C82  
                                                 __ptext31 0C97  
                                                 __ptext23 0E1A  
                                                 __ptext15 0D31  
                                                 __ptext40 0C47  
                                                 __ptext32 0DC1  
                                                 __ptext24 0DED  
                                                 __ptext16 0D6F  
                                                 __ptext41 075E  
                                                 __ptext33 004F  
                                                 __ptext25 0144  
                                                 __ptext17 04F7  
                                                 __ptext42 0225  
                                                 __ptext34 0D18  
                                                 __ptext26 0F0A  
                                                 __ptext18 0D01  
                                                 __ptext43 0CD5  
                                                 __ptext35 0CC2  
                                                 __ptext27 0F58  
                                                 __ptext19 0FA7  
                                                 __ptext36 0CB0  
                                                 __ptext28 0C79  
                                                 __ptext37 0CEA  
                                                 __ptext29 0C70  
                                                 __ptext38 0CA3  
                                                 __ptext39 06A9  
                                             ??_sch_update 0074  
                        __end_of_dio_vid_set_pin_direction 0144  
                              sch_u8_add_task@taskFunction 0062  
                                            __size_of_main 005B  
                           __end_of_dio_vid_set_port_value 0E1A  
                        __end_of_eeprom_external_vid_write 0E8B  
                                                 _ssdState 0065  
                                  ??_dio_u8_read_pin_value 0058  
                                        ?_counter_vid_init 0070  
                              __size_of_counter_vid_update 00BF  
                                       __end_of_sch_update 02F4  
                                       ??_counter_vid_init 005D  
                              __size_of_display_vid_update 005A  
                           __size_of_dio_vid_set_pin_value 00E1  
                            __end_of_dio_vid_set_pin_value 0225  
                                                 intlevel1 0036  
                                         ___lwmod@dividend 0056  
                                ??_i2c_u8_master_read_byte 0054  
                               ??_display_set_setting_mode 0054  
                                __size_of_timer_vid_init_0 0065  
                                         _ssd_u8_get_state 0C4B  
                          __size_of_dio_u8_read_port_value 0029  
                         __end_of_eeprom_external_vid_read 0FA7  
                          timer_vid_init_0@interruptEnable 0056  
                                 __size_of_i2c_vid_restart 0009  
                                    __size_of_ssd_vid_init 0024  
                                              ??_timer_isr 004E  
                                      _sch_vid_delete_task 0583  
                                           _ssd_vid_update 03B3  
                                          ___lwmod@divisor 0054  
                                          ___lwmod@counter 0059  
                                        _buttonPressedFlag 004D  
                               ??_i2c_u8_master_write_byte 0054  
                             __size_of_i2c_vid_master_init 002C  
                                   __size_of_i2c_vid_start 0009  
                                     ?_sch_vid_delete_task 0070  
                                             _ssd_vid_init 0D4B  
                                    sch_u8_add_task@period 005C  
                                 ssd_vid_set_symbol@symbol 0056  
                               __end_of_ssd_vid_set_symbol 0C97  
